
/data/data/dev.hellpie.mcpe.autodumpe/files/libminecraftpe.so:     file format elf32-littlearm

SYMBOL TABLE:
no symbols


DYNAMIC SYMBOL TABLE:
00000000      DF *UND*	00000000 __cxa_finalize
00000000      DF *UND*	00000000 __cxa_atexit
0023a0d8  w   DF .text	00000002 _ZN10GuiElement4tickEP15MinecraftClient
00574374 g    DF .text	00000004 __aeabi_unwind_cpp_pr0
0023a0dc  w   DF .text	00000002 _ZN10GuiElement9topRenderEP15MinecraftClientii
0023a0e0  w   DF .text	00000002 _ZN10GuiElement14setupPositionsEv
0023a0e4  w   DF .text	00000002 _ZN10GuiElement14pointerPressedEP15MinecraftClientii
0023a0e8  w   DF .text	00000002 _ZN10GuiElement15pointerReleasedEP15MinecraftClientii
0023a0ec  w   DF .text	00000002 _ZN10GuiElement19focusedMouseClickedEP15MinecraftClientii
0023a0f0  w   DF .text	00000002 _ZN10GuiElement20focusedMouseReleasedEP15MinecraftClientii
0023a0f4  w   DF .text	00000002 _ZN10GuiElement17handleButtonPressEP15MinecraftClients
0023a0f8  w   DF .text	00000002 _ZN10GuiElement19handleButtonReleaseEP15MinecraftClients
0023a0fc  w   DF .text	00000002 _ZN10GuiElement14handleTextCharEP15MinecraftClientRKSsb
0023a100  w   DF .text	00000004 _ZN10GuiElement11backPressedEP15MinecraftClientb
0023a104  w   DF .text	00000002 _ZN10GuiElement17setKeyboardHeightEP15MinecraftClientfRK4Vec2
0023a108  w   DF .text	00000004 _ZN10GuiElement16suppressOtherGUIEv
0023a10c  w   DF .text	00000002 _ZN10GuiElement14setTextboxTextERKSs
0023a110  w   DF .text	00000006 _ZNK10GuiElement8hasFocusEv
0023a118  w   DF .text	00000006 _ZN10GuiElement8setFocusEb
0023a120  w   DF .text	00000004 _ZN10GuiElement29handleControllerDirectionHeldEi14StickDirection
0023a124  w   DF .text	00000002 _ZN10GuiElement11drawPressedEi
0023a128  w   DF .text	00000004 _ZNK10GuiElement11hasChildrenEv
0023a12c  w   DF .text	00000002 _ZN19AppPlatformListener11onLowMemoryEv
0023a130  w   DF .text	00000002 _ZN19AppPlatformListener12onAppResumedEv
0023a134  w   DF .text	00000002 _ZN19AppPlatformListener14onAppFocusLostEv
0023a138  w   DF .text	00000002 _ZN19AppPlatformListener16onAppFocusGainedEv
0023a13c  w   DF .text	00000002 _ZN19AppPlatformListener15onAppTerminatedEv
0023a140  w   DF .text	00000002 _ZN5Model6renderEv
0023a144  w   DF .text	00000002 _ZN5Model9setupAnimEffffff
0023a148  w   DF .text	00000002 _ZN5Model15prepareMobModelER3Mobfff
0023a14c  w   DF .text	00000010 _ZN8DataItemD2Ev
005dbec8  w   DO .data.rel.ro	00000018 _ZTV8DataItem
0023a14c  w   DF .text	00000010 _ZN8DataItemD1Ev
0023a15c  w   DF .text	0000000c _ZNK8DataItem11isDataEqualERKS_
0023a168  w   DF .text	00000010 _ZN11IDataOutputD2Ev
005dbee0  w   DO .data.rel.ro	00000030 _ZTV11IDataOutput
0023a168  w   DF .text	00000010 _ZN11IDataOutputD1Ev
0023a178  w   DF .text	00000010 _ZN10IDataInputD2Ev
005dbf10  w   DO .data.rel.ro	00000034 _ZTV10IDataInput
0023a178  w   DF .text	00000010 _ZN10IDataInputD1Ev
0023a188  w   DF .text	00000018 _ZN15BytesDataOutput10writeFloatEf
0023a1a0  w   DF .text	00000018 _ZN15BytesDataOutput11writeDoubleEd
0023a1b8  w   DF .text	00000018 _ZN15BytesDataOutput9writeByteEc
0023a1d0  w   DF .text	00000018 _ZN15BytesDataOutput10writeShortEs
0023a1e8  w   DF .text	00000018 _ZN15BytesDataOutput8writeIntEi
0023a200  w   DF .text	00000018 _ZN15BytesDataOutput13writeLongLongEx
0023a218  w   DF .text	00000016 _ZN14BytesDataInput9readFloatEv
0023a230  w   DF .text	00000018 _ZN14BytesDataInput10readDoubleEv
0023a248  w   DF .text	0000001a _ZN14BytesDataInput8readByteEv
0023a264  w   DF .text	0000001a _ZN14BytesDataInput9readShortEv
0023a280  w   DF .text	00000016 _ZN14BytesDataInput7readIntEv
0023a298  w   DF .text	00000018 _ZN14BytesDataInput12readLongLongEv
0023a2b0  w   DF .text	00000010 _ZN3TagD2Ev
005dc8a8 g    DO .data.rel.ro	0000003c _ZTV3Tag
0023a2b0  w   DF .text	00000010 _ZN3TagD1Ev
0023a2c0  w   DF .text	00000002 _ZN3Tag14deleteChildrenEv
0023a2c4  w   DF .text	00000002 _ZN14EntityRenderer15renderWaterHoleER6EntityRK4Vec3RK4Vec2f
0023a2c8 g    DF .text	00000002 _ZN11SkinsButton14setupPositionsEv
0023a2cc  w   DF .text	00000004 _ZNK5Block11isDoorBlockEv
0023a2d0  w   DF .text	00000004 _ZNK5Block22waterSpreadCausesSpawnEv
0023a2d4  w   DF .text	00000002 _ZN5Block16onRedstoneUpdateER11BlockSourceRK8BlockPosib
0023a2d8  w   DF .text	00000002 _ZN5Block8onLoadedER11BlockSourceRK8BlockPos
0023a2dc  w   DF .text	00000010 _ZN6PacketD2Ev
005dbf48  w   DO .data.rel.ro	00000020 _ZTV6Packet
0023a2dc  w   DF .text	00000010 _ZN6PacketD1Ev
0023a2ec  w   DF .text	00000002 _ZN19BlockSourceListener15onSourceCreatedER11BlockSource
0023a2f0  w   DF .text	00000002 _ZN19BlockSourceListener17onSourceDestroyedER11BlockSource
0023a2f4  w   DF .text	00000002 _ZN19BlockSourceListener13onBlocksDirtyER11BlockSourceiiiiii
0023a2f8  w   DF .text	00000002 _ZN19BlockSourceListener13onAreaChangedER11BlockSourceRK8BlockPosS4_
0023a2fc  w   DF .text	00000002 _ZN19BlockSourceListener14onBlockChangedER11BlockSourceRK8BlockPos9FullBlockS5_i
0023a300  w   DF .text	0000000c _ZN19BlockSourceListener19onBrightnessChangedER11BlockSourceRK8BlockPos
0023a30c  w   DF .text	00000002 _ZN19BlockSourceListener20onBlockEntityChangedER11BlockSourceR11BlockEntity
0023a310  w   DF .text	00000002 _ZN19BlockSourceListener12onBlockEventER11BlockSourceiiiii
0023a314  w   DF .text	00000010 _ZN8_TickPtrD2Ev
005dbf68  w   DO .data.rel.ro	00000014 _ZTV8_TickPtr
0023a314  w   DF .text	00000010 _ZN8_TickPtrD1Ev
0023a324  w   DF .text	00000002 _ZN5Biome12refreshBiomeEj
0023a328  w   DF .text	00000010 _ZN13LevelListenerD2Ev
005ef5b0 g    DO .data.rel.ro	00000034 _ZTV19BlockSourceListener
0023a328  w   DF .text	00000010 _ZN13LevelListenerD1Ev
0023a338  w   DF .text	00000002 _ZN13LevelListener10allChangedEv
0023a33c  w   DF .text	00000004 _ZN13LevelListener11addParticleE12ParticleTypeRK4Vec3S3_i
0023a340  w   DF .text	00000002 _ZN13LevelListener9playSoundERKSsRK4Vec3ff
0023a344  w   DF .text	00000002 _ZN13LevelListener9playMusicERKSsRK4Vec3f
0023a348  w   DF .text	00000002 _ZN13LevelListener18playStreamingMusicERKSsiii
0023a34c  w   DF .text	00000002 _ZN13LevelListener13onEntityAddedER6Entity
0023a350  w   DF .text	00000002 _ZN13LevelListener15onEntityRemovedER6Entity
0023a354  w   DF .text	00000002 _ZN13LevelListener13onNewChunkForER6PlayerR10LevelChunk
0023a358  w   DF .text	00000002 _ZN13LevelListener10levelEventE10LevelEventRK4Vec3i
0023a35c g    DF .text	0000000e _ZN13InventoryMenu7setSlotEiR12ItemInstance
00574378  w   DF .text	00000004 __aeabi_unwind_cpp_pr1
0023a36c g    DF .text	0000000e _ZN13InventoryMenu7getSlotEi
0023a37c g    DF .text	0000000c _ZN13InventoryMenu10removeSlotEii
0023a388 g    DF .text	00000004 _ZN13InventoryMenu29blockEntityDestroyedIsInvalidEi
0023a38c  w   DF .text	00000002 _ZN14AbstractScreen14resetDirectionEv
0023a390  w   DF .text	00000002 _ZN10BaseScreen15toGUICoordinateEiiRiS0_
0023a394 g    DF .text	0000001e _ZN21PackedScrollContainer14setTextboxTextERKSs
0023a3b4  w   DF .text	0000000c _ZNK12RakDataInput12numBytesLeftEv
0023a3c0  w   DF .text	00000004 _ZNK21BlockEntityDataPacket5getIdEv
0023a3c4  w   DF .text	00000012 _ZNK21BlockEntityDataPacket6handleERKN6RakNet10RakNetGUIDEP16NetEventCallback
0023a3d8 g    DF .text	0000000a _ZN16SkullBlockEntity14onUpdatePacketER11CompoundTag
0023a3e8  w   DF .text	00000010 _ZNK20BaseCircuitComponent11getBaseTypeEv
0023a3f8  w   DF .text	00000010 _ZNK20BaseCircuitComponent15getInstanceTypeEv
0023a408  w   DF .text	00000004 _ZN20BaseCircuitComponent15allowConnectionER17CircuitSceneGraphRK19CircuitTrackingInfo
0023a40c  w   DF .text	00000010 _ZN20BaseCircuitComponent8evaluateER13CircuitSystemRK8BlockPos
0023a41c  w   DF .text	00000002 _ZN20BaseCircuitComponent11cacheValuesER13CircuitSystemRK8BlockPos
0023a420  w   DF .text	00000002 _ZN20BaseCircuitComponent18updateDependenciesER17CircuitSceneGraphRK8BlockPos
0023a424  w   DF .text	00000004 _ZN20BaseCircuitComponent13allowIndirectEv
0023a428 g    DF .text	00000006 _ZNK20BaseCircuitComponent12getDirectionEv
0023a430 g    DF .text	00000004 _ZNK20BaseCircuitComponent11getStrengthEv
0023a434 g    DF .text	00000008 _ZN20BaseCircuitComponent11setStrengthEi
0023a43c g    DF .text	00000004 _ZN20BaseCircuitComponent12setDirectionEa
0023a440 g    DF .text	00000004 _ZN20BaseCircuitComponent9addSourceER17CircuitSceneGraphRK19CircuitTrackingInfoRiRb
0023a444  w   DF .text	00000002 _ZN16UICustomRenderer14preRenderSetupEv
0023a448  w   DF .text	00000004 _ZN16UICustomRenderer6updateER15MinecraftClientRSt10shared_ptrI9UIControlE
0023a44c  w   DF .text	00000004 _ZNK16UICustomRenderer11getCustomIdEv
0023a450  w   DF .text	0000000c _ZNK16UICustomRenderer14getTextureNameEi
0023a45c  w   DF .text	0000000c _ZNK16UICustomRenderer15getMaterialNameEv
0023a468  w   DF .text	00000010 _ZN15UIRenderContextD2Ev
005dc108  w   DO .data.rel.ro	00000064 _ZTV15UIRenderContext
0023a468  w   DF .text	00000010 _ZN15UIRenderContextD1Ev
0023a478  w   DF .text	00000006 _ZN4Item15setUseAnimationE12UseAnimation
0023a480  w   DF .text	00000004 _ZN4Item17setMaxUseDurationEi
0023a484  w   DF .text	00000004 _ZNK4Item16isLiquidClipItemEi
0023a488  w   DF .text	00000004 _ZNK4Item16requiresInteractEv
0023a48c  w   DF .text	00000004 _ZN4Item17isValidRepairItemERK12ItemInstanceS2_
0023a490  w   DF .text	00000004 _ZNK4Item20getAnimationFrameForER3Mob
0023a494  w   DF .text	00000004 _ZNK4Item10isEmissiveEi
0023a498  w   DF .text	00000004 _ZNK4Item14getIconYOffsetEv
0023a49c g    DF .text	0000000c _ZNK25InventoryFoilItemRenderer15getMaterialNameEv
0023a4a8 g    DF .text	0000001c _ZNK25InventoryFoilItemRenderer14getTextureNameEi
0068a34c g    DO .bss	00000004 _ZN19EntityShaderManager13GLINT_TEXTUREE
0023a4c4 g    DF .text	00000012 _ZN18ServerSkinInfoData7getDataEv
0023a4d8 g    DF .text	00000008 _ZN18ServerSkinInfoData13getDataLengthEv
0023a4e0 g    DF .text	0000001a _ZN18ServerSkinInfoData15hasValidTextureEv
0023a4fc g    DF .text	00000004 _ZNK9ThrownEgg15getEntityTypeIdEv
0023a500 g    DF .text	00000004 _ZNK10BottleItem16isLiquidClipItemEi
0023a504 g    DF .text	00000010 _ZN18BackgroundRendererD2Ev
005ed4a0 g    DO .data.rel.ro	0000002c _ZTV16UICustomRenderer
0023a504 g    DF .text	00000010 _ZN18BackgroundRendererD1Ev
0023a514 g    DF .text	00000010 _ZN24MinecraftUIRenderContext8setColorERK5Color
0023a524 g    DF .text	00000004 _ZN24MinecraftUIRenderContext8setAlphaEf
0023a528  w   DF .text	00000012 _ZN27NearestAttackableTargetGoal5startEv
0023a53c g    DF .text	00000004 _ZN6Ocelot8useNewAiEv
0023a540 g    DF .text	00000022 _ZN6Ocelot18_removeWhenFarAwayEv
0023a564 g    DF .text	00000038 _ZNK6Ocelot6isFoodERK12ItemInstance
006ad028 g    DO .bss	00000004 _ZN4Item13mFish_raw_codE
006ad024 g    DO .bss	00000004 _ZN4Item16mFish_raw_salmonE
0023a59c g    DF .text	00000006 _ZNK6Ocelot15getEntityTypeIdEv
0023a5a4 g    DF .text	00000002 _ZN6Ocelot15causeFallDamageEf
0023a5a8 g    DF .text	0000000a _ZN6Ocelot12getBaseSpeedEv
0023a5b4  w   DF .text	00000004 _ZNK13LightningBolt15getEntityTypeIdEv
0023a5b8  w   DF .text	00000004 _ZN13LightningBolt18shouldAlwaysRenderEv
0023a5bc g    DF .text	00000002 _ZN13LightningBolt22readAdditionalSaveDataERK11CompoundTag
0023a5c0 g    DF .text	00000002 _ZN13LightningBolt21addAdditionalSaveDataER11CompoundTag
0023a5c4 g    DF .text	0000000a _ZN9SandBlock10getTextureEai
0023a5d0 g    DF .text	00000004 _ZN9SandBlock25getSpawnResourcesAuxValueEh
0023a5d4 g    DF .text	00000006 _ZNK17FlintAndSteelItem14getEnchantSlotEv
0023a5dc g    DF .text	00000018 _ZN15WoodButtonBlock10getTextureEai
006ac170 g    DO .bss	00000004 _ZN5Block11mWoodPlanksE
0023a5f4 g    DF .text	000000d4 _ZN19EnchantingBookModel9setupAnimEffffff
005a84ac g    DO .rodata	00000004 _ZN3Mth9mSinScaleE
0064a104 g    DO .bss	00040000 _ZN3Mth4mSinE
005a84bc g    DO .rodata	00000004 _ZN3Mth2PIE
0023a6c8 g    DF .text	0000002c _ZN17ScreenViewAdapter5_initEii
0023a6f4 g    DF .text	0000002c _ZN17ScreenViewAdapter7setSizeEii
0023a720 g    DF .text	0000000c _ZN17ScreenViewAdapter14setupAndRenderER15UIRenderContextiif
0023a72c g    DF .text	00000002 _ZN17ScreenViewAdapter12updateEventsEv
0023a730 g    DF .text	0000000e _ZN17ScreenViewAdapter17handleButtonPressEs
0023a740 g    DF .text	0000000e _ZN17ScreenViewAdapter19handleButtonReleaseEs
0023a750 g    DF .text	00000002 _ZN17ScreenViewAdapter20handleLicenseChangedEv
0023a754 g    DF .text	00000002 _ZN17ScreenViewAdapter20handlePointerPressedEb
0023a758 g    DF .text	00000004 _ZN17ScreenViewAdapter15handleBackEventEb
0023a75c  w   DF .text	00000004 _ZNK14StructureStart7isValidEv
0023a760  w   DF .text	00000002 _ZN6EndTag4loadER10IDataInput
0023a764  w   DF .text	00000002 _ZNK6EndTag5writeER11IDataOutput
0023a768  w   DF .text	00000004 _ZNK6EndTag5getIdEv
0023a76c g    DF .text	00000002 _ZN3Tag7setNameERKSs
0023a770  w   DF .text	00000008 _ZNK15StringByteInput12numBytesLeftEv
0023a778  w   DF .text	00000004 _ZNK19SetEntityDataPacket5getIdEv
0023a77c  w   DF .text	00000012 _ZNK19SetEntityDataPacket6handleERKN6RakNet10RakNetGUIDEP16NetEventCallback
0023a790 g    DF .text	00000018 _ZNK3Mob13getHeadHeightEv
0023a7a8 g    DF .text	00000004 _ZN3Mob23getAmbientSoundIntervalEv
0023a7ac g    DF .text	00000002 _ZN3Mob9spawnAnimEv
0023a7b0 g    DF .text	00000006 _ZN3Mob15_getSoundVolumeEv
0023a7b8 g    DF .text	00000004 _ZN3Mob16_getAmbientSoundEv
0023a7bc g    DF .text	00000002 _ZN3Mob17dropRareDeathLootEv
0023a7c0 g    DF .text	00000004 _ZN3Mob12getDeathLootEv
0023a7c4 g    DF .text	00000004 _ZN3Mob11isShootableEv
0023a7c8 g    DF .text	00000012 _ZN3Mob11animateHurtEv
0023a7dc g    DF .text	00000002 _ZN3Mob16_serverAiMobStepEv
0023a7e0 g    DF .text	00000002 _ZN3Mob11_pickUpItemER10ItemEntity
0023a7e4 g    DF .text	00000004 _ZN3Mob18_removeWhenFarAwayEv
0023a7e8 g    DF .text	00000008 _ZN3Mob14getMaxHeadXRotEv
0023a7f0 g    DF .text	00000014 _ZN3Mob19isLookingAtAnEntityEv
0023a804 g    DF .text	00000002 _ZN3Mob16finalizeMobSpawnEv
0023a808 g    DF .text	00000034 _ZN3Mob13getAttackAnimEf
0023a83c g    DF .text	00000004 _ZN3Mob14getCarriedItemEv
0023a840 g    DF .text	00000002 _ZN3Mob14setCarriedItemERK12ItemInstance
0023a844 g    DF .text	00000004 _ZN3Mob18getItemUseDurationEv
0023a848 g    DF .text	0000000e _ZN3Mob8setSpeedEf
0023a858 g    DF .text	00000004 _ZNK3Mob6isBabyEv
0023a85c g    DF .text	0000000a _ZNK3Mob12getJumpPowerEv
0023a868 g    DF .text	00000004 _ZN3Mob8useNewAiEv
0023a86c g    DF .text	00000002 _ZN3Mob3ateEv
0023a870 g    DF .text	00000004 _ZNK3Mob10isSleepingEv
0023a874 g    DF .text	0000001e _ZN3Mob12dropHeldItemEv
0023a894 g    DF .text	00000002 _ZNK3Mob13sendInventoryEv
0023a898 g    DF .text	00000004 _ZNK3Mob19getExperienceRewardEv
0023a89c g    DF .text	00000004 _ZN3Mob22canBeControlledByRiderEv
0023a8a0 g    DF .text	00000004 _ZN3Mob10isAlliedToEPS_
0023a8a4 g    DF .text	0000000e _ZN3Mob12doHurtTargetEP6Entity
0023a8b4 g    DF .text	00000002 _ZN3Mob19performRangedAttackERS_f
0023a8b8 g    DF .text	0000000a _ZNK3Mob13shouldDespawnEv
0023a8c4 g    DF .text	00000014 _ZN12AvoidMobGoal16canContinueToUseEv
0023a8d8 g    DF .text	00000020 _ZNK11SwimEnchant10getMinCostEi
0023a8f8 g    DF .text	00000028 _ZNK11SwimEnchant10getMaxCostEi
0023a920 g    DF .text	0000001c _ZNK11SwimEnchant11getMaxLevelEv
0023a93c  w   DF .text	00000002 _ZN16ScreenController20handleLicenseChangedEv
0023a940  w   DF .text	00000012 _ZNSt8functionIFvvEED2Ev
0023a940  w   DF .text	00000012 _ZNSt8functionIFvvEED1Ev
0023a954  w   DF .text	0000000c _ZNK8Particle18getParticleTextureEv
006480f4 g    DO .bss	0000000c _ZN8Particle14PARTICLE_ATLASE
0023a960 g    DF .text	0000000c _ZN25HugeExplosionSeedParticle4initERK4Vec3S2_iR14ParticleEngine
0023a96c g    DF .text	00000002 _ZN25HugeExplosionSeedParticle6renderER11Tessellatorffffff
0023a970 g    DF .text	0000000e _ZN9SlabBlock16getResourceCountER6Randomii
0023a980 g    DF .text	00000004 _ZNK9SlabBlock16canBeSilkTouchedEv
0023a984 g    DF .text	0000000c _ZN9SlabBlock7onPlaceER11BlockSourceRK8BlockPos
0023a990 g    DF .text	00000004 _ZN8Fireball10isPickableEv
0023a994 g    DF .text	00000006 _ZN8Fireball13getPickRadiusEv
0023a99c g    DF .text	00000004 _ZN8Fireball19getShadowHeightOffsEv
0023a9a0 g    DF .text	00000006 _ZN8Fireball13getBrightnessEf
0023a9a8 g    DF .text	0000000e _ZN8Fireball17getSourceUniqueIDEv
0023a9b8 g    DF .text	00000030 _ZN10GuiElement11pointInsideEii
0023a9e8 g    DF .text	00000002 _ZN10GuiElement17onSelectedChangedEv
0023a9ec g    DF .text	0000060a _ZN10BlazeModel9setupAnimEffffff
0023aff8 g    DF .text	0000000a _ZN16BrewingStandMenu29blockEntityDestroyedIsInvalidEi
0023b004 g    DF .text	0000001e _ZN14WorkbenchBlock10getTextureEa
0023b024 g    DF .text	00000004 _ZNK14WorkbenchBlock15isCraftingBlockEv
0023b028 g    DF .text	00000058 _ZN11InBedScreen14setupPositionsEv
0023b080 g    DF .text	00000004 _ZNK11InBedScreen16renderGameBehindEv
0023b084 g    DF .text	00000004 _ZNK11InBedScreen13isShowingMenuEv
0023b088 g    DF .text	00000014 _ZN13LightGemBlock11getResourceER6Randomii
006ad02c g    DO .bss	00000004 _ZN4Item11mYellowDustE
0023b09c g    DF .text	0000000c _ZN13LightGemBlock7onPlaceER11BlockSourceRK8BlockPos
0023b0a8 g    DF .text	00000004 _ZNK13RedstoneBlock15isRedstoneBlockEv
0023b0ac g    DF .text	0000000c _ZN13RedstoneBlock7onPlaceER11BlockSourceRK8BlockPos
0023b0b8  w   DF .text	00000002 _ZN16InGamePlayScreen15_preLevelRenderEv
0023b0bc g    DF .text	0000000a _ZN20InGamePlayHoloScreen4exitEv
0023b0c8 g    DF .text	00000018 _ZNK18TextureTessellator8getStatsEv
0023b0e0 g    DF .text	0000000a _ZN21EnchantingTableEntity14onUpdatePacketER11CompoundTag
0023b0ec g    DF .text	00000010 _ZN12GuiComponentD2Ev
005dc598 g    DO .data.rel.ro	00000010 _ZTV12GuiComponent
0023b0ec g    DF .text	00000010 _ZN12GuiComponentD1Ev
0023b0fc g    DF .text	0000002c _ZN10GuiElementD2Ev
005dc5a8 g    DO .data.rel.ro	00000070 _ZTV10GuiElement
0023b0fc g    DF .text	0000002c _ZN10GuiElementD1Ev
0023b128 g    DF .text	00000004 _ZNK22GazeGestureVoiceMapper12getInputModeEv
0023b12c  w   DF .text	00000004 _ZNK19SetEntityLinkPacket5getIdEv
0023b130  w   DF .text	00000012 _ZNK19SetEntityLinkPacket6handleERKN6RakNet10RakNetGUIDEP16NetEventCallback
0023b144  w   DF .text	00000004 _ZNK15AddEntityPacket5getIdEv
0023b148  w   DF .text	00000010 _ZNK15AddEntityPacket6handleERKN6RakNet10RakNetGUIDEP16NetEventCallback
0023b158  w   DF .text	00000004 _ZNK14InteractPacket5getIdEv
0023b15c  w   DF .text	00000012 _ZNK14InteractPacket6handleERKN6RakNet10RakNetGUIDEP16NetEventCallback
0023b170  w   DF .text	00000004 _ZNK16MoveEntityPacket5getIdEv
0023b174  w   DF .text	00000010 _ZNK16MoveEntityPacket6handleERKN6RakNet10RakNetGUIDEP16NetEventCallback
0023b184  w   DF .text	00000004 _ZNK21SetEntityMotionPacket5getIdEv
0023b188  w   DF .text	00000012 _ZNK21SetEntityMotionPacket6handleERKN6RakNet10RakNetGUIDEP16NetEventCallback
0023b19c g    DF .text	00000002 _ZN6Entity9_postInitEv
0023b1a0 g    DF .text	00000006 _ZNK6Entity9isInWaterEv
0023b1a8 g    DF .text	00000002 _ZN6Entity22testForEntityCollisionER11BlockSourceRK4AABBRSt6vectorIS2_SaIS2_EE
0023b1ac g    DF .text	0000000e _ZN6Entity14makeStuckInWebEv
0023b1bc g    DF .text	00000004 _ZNK6Entity6getPosEv
0023b1c0 g    DF .text	00000004 _ZNK6Entity9getPosOldEv
0023b1c4 g    DF .text	0000007a _ZNK6Entity18getPosExtrapolatedEf
0023b240 g    DF .text	00000004 _ZNK6Entity11getVelocityEv
0023b244 g    DF .text	00000008 _ZN6Entity6removeEv
0023b24c g    DF .text	00000090 _ZN6Entity4turnERK4Vec2
0023b2dc g    DF .text	00000058 _ZN6Entity15interpolateTurnERK4Vec2
0023b334 g    DF .text	00000006 _ZN6Entity15getRidingHeightEv
0023b33c g    DF .text	00000012 _ZNK6Entity13getRideHeightEv
0023b350 g    DF .text	00000002 _ZNK6Entity14buildDebugInfoERSs
0023b354 g    DF .text	0000000a _ZN6Entity10outOfWorldEv
0023b360 g    DF .text	00000024 _ZN6Entity15causeFallDamageEf
0023b384 g    DF .text	00000004 _ZNK6Entity13getHeadHeightEv
0023b388 g    DF .text	00000002 _ZN6Entity11playerTouchER6Player
0023b38c g    DF .text	00000032 _ZN6Entity4pushERK4Vec3
0023b3c0 g    DF .text	00000008 _ZN6Entity8markHurtEv
0023b3c8 g    DF .text	0000000e _ZN6Entity4hurtERK18EntityDamageSourcei
0023b3d8 g    DF .text	00000002 _ZN6Entity17handleEntityEventE11EntityEvent
0023b3dc g    DF .text	00000004 _ZN6Entity10isPickableEv
0023b3e0 g    DF .text	00000004 _ZNK6Entity10isPushableEv
0023b3e4 g    DF .text	00000004 _ZN6Entity11isShootableEv
0023b3e8 g    DF .text	00000002 _ZN6Entity14awardKillScoreERS_i
0023b3ec g    DF .text	00000004 _ZN6Entity21isCreativeModeAllowedEv
0023b3f0 g    DF .text	00000004 _ZNK6Entity12isSurfaceMobEv
0023b3f4 g    DF .text	00000012 _ZN6Entity19getShadowHeightOffsEv
0023b408 g    DF .text	00000006 _ZNK6Entity15getShadowRadiusEv
0023b410 g    DF .text	0000000a _ZN6Entity7isAliveEv
0023b41c g    DF .text	00000004 _ZN6Entity18interactWithPlayerER6Player
0023b420 g    DF .text	0000000a _ZN6Entity13getPickRadiusEv
0023b42c g    DF .text	0000000e _ZN6Entity10lerpMotionERK4Vec3
0023b43c g    DF .text	00000002 _ZN6Entity11animateHurtEv
0023b440 g    DF .text	00000002 _ZN6Entity15setEquippedSlotE9ArmorSlotii
0023b444 g    DF .text	00000002 _ZN6Entity15setEquippedSlotE9ArmorSlotRK12ItemInstance
0023b448 g    DF .text	00000004 _ZNK6Entity10isSneakingEv
0023b44c g    DF .text	00000004 _ZN6Entity19queryEntityRendererEv
0023b450 g    DF .text	0000000e _ZN6Entity15spawnAtLocationEii
0023b460 g    DF .text	00000004 _ZN6Entity22interactPreventDefaultEv
0023b464 g    DF .text	0000000e _ZN6Entity17getSourceUniqueIDEv
0023b474 g    DF .text	00000002 _ZN6Entity19onSynchedDataUpdateEi
0023b478 g    DF .text	0000000e _ZN6Entity20checkBlockCollisionsEv
0023b488 g    DF .text	00000002 _ZN6Entity16onBlockCollisionEi
0023b48c g    DF .text	00000004 _ZN6Entity15canInteractWithER6Player
0023b490 g    DF .text	00000006 _ZNK6Entity17getPortalCooldownEv
0023b498 g    DF .text	00000004 _ZNK6Entity17getPortalWaitTimeEv
0023b49c g    DF .text	00000004 _ZNK6Entity14getDimensionIdEv
0023b4a0 g    DF .text	00000002 _ZN6Entity15changeDimensionER21ChangeDimensionPacket
0023b4a4 g    DF .text	0000000e _ZNK6Entity20getControllingPlayerEv
0023b4b4  w   DF .text	00000010 _ZN7FeatureD2Ev
005dc3d8  w   DO .data.rel.ro	00000014 _ZTV7Feature
0023b4b4  w   DF .text	00000010 _ZN7FeatureD1Ev
0023b4c4 g    DF .text	00000006 _ZN7Sapling25getSpawnResourcesAuxValueEh
0023b4cc g    DF .text	00000032 _ZN7Sapling10getTextureEai
0023b500 g    DF .text	00000010 _ZN11BlockEntityD2Ev
005dcf88 g    DO .data.rel.ro	00000048 _ZTV11BlockEntity
0023b500 g    DF .text	00000010 _ZN11BlockEntityD1Ev
0023b510 g    DF .text	00000002 _ZN11BlockEntity4loadER11CompoundTag
0023b514 g    DF .text	00000004 _ZN11BlockEntity10isFinishedEv
0023b518 g    DF .text	00000002 _ZN11BlockEntity9onChangedER11BlockSource
0023b51c g    DF .text	00000006 _ZN11BlockEntity15getUpdatePacketER11BlockSource
0023b524 g    DF .text	00000002 _ZN11BlockEntity14onUpdatePacketER11CompoundTag
0023b528 g    DF .text	00000002 _ZN11BlockEntity9onRemovedEv
0023b52c g    DF .text	00000002 _ZN11BlockEntity12triggerEventEii
0023b530 g    DF .text	0000000c _ZN11BlockEntity10clearCacheEv
0023b53c g    DF .text	00000002 _ZN11BlockEntity17onNeighborChangedER11BlockSourceiii
0023b540 g    DF .text	00000002 _ZN11BlockEntity17onNeighborChangedER11BlockSourceRK8BlockPos
0023b544 g    DF .text	00000004 _ZNK11BlockEntity15getShadowRadiusER11BlockSource
0023b548 g    DF .text	00000002 _ZN11BlockEntity14getCrackEntityER11BlockSourceRK8BlockPos
0023b54c g    DF .text	0000003c _ZN11DeathScreen14setupPositionsEv
0023b588 g    DF .text	00000004 _ZNK11DeathScreen16renderGameBehindEv
0023b58c g    DF .text	0000000c _ZN11LiquidBlock7mayPickER11BlockSourceib
0023b598 g    DF .text	00000004 _ZN11LiquidBlock16getResourceCountER6Randomii
0023b59c g    DF .text	00000004 _ZN11LiquidBlock11getResourceER6Randomii
0023b5a0 g    DF .text	0000000c _ZN11LiquidBlock10getTextureEa
0023b5ac g    DF .text	00000014 _ZN18NetherReactorBlock10getTextureEai
0023b5c0 g    DF .text	00000004 _ZNK17TrialUpsellScreen16renderGameBehindEv
0023b5c4 g    DF .text	00000016 _ZN16OcelotAttackGoal6canUseEv
0023b5dc g    DF .text	00000010 _ZNK8FloatTag5writeER11IDataOutput
0023b5ec g    DF .text	00000010 _ZN8FloatTag4loadER10IDataInput
0023b5fc g    DF .text	00000004 _ZNK8FloatTag5getIdEv
0023b600 g    DF .text	00000002 _ZN10HeavyBlock6onLandER11BlockSourceRK8BlockPos
0023b604 g    DF .text	00000004 _ZN10HeavyBlock7fallingEv
0023b608 g    DF .text	0000000a _ZN9RailBlock10getTextureEai
0023b614 g    DF .text	00000004 _ZN18MerchantRecipeList12getRecipeForEP12ItemInstanceS1_i
0023b618 g    DF .text	00000002 _ZN18MerchantRecipeList16addIfNewOrBetterEP14MerchantRecipe
0023b61c g    DF .text	00000004 _ZN18MerchantRecipeList20getMatchingRecipeForEP12ItemInstanceS1_S1_
0023b620 g    DF .text	00000002 _ZN18MerchantRecipeList13writeToStreamEP15FriendlyByteBuf
0023b624 g    DF .text	00000002 _ZN18MerchantRecipeList4loadEPK11CompoundTag
0023bd58 g    DF .text	00000004 _ZNK18MakeInfiniteScreen16renderGameBehindEv
0023bd5c g    DF .text	00000002 _ZN15FarlandsFeature10addFeatureER10LevelChunkP11BiomeSourceR6Randomii
0023bd60 g    DF .text	0000000c _ZN6Button8releasedEii
0023bd6c g    DF .text	00000034 _ZN6Button7clickedEP15MinecraftClientii
0023bda0 g    DF .text	00000006 _ZN6Button10setPressedEb
0023bda8 g    DF .text	0000000e _ZN6Button10setPressedEv
0023bdb8 g    DF .text	0000000e _ZN6Button9getYImageEb
0023bdc8 g    DF .text	00000002 _ZN6Button15pointerReleasedEP15MinecraftClientii
0023bdcc g    DF .text	00000028 _ZNK17ProtectionEnchant10getMinCostEi
0023bdf4 g    DF .text	0000000c _ZNK17ProtectionEnchant11getMaxLevelEv
0023be00 g    DF .text	00000004 _ZNK17ProtectionEnchant19isProtectionEnchantEv
0023be04 g    DF .text	00000004 _ZN10LeverBlock11blocksLightEv
0023be08 g    DF .text	00000032 _ZN10LeverBlock8mayPlaceER11BlockSourceRK8BlockPos
0023be3c g    DF .text	00000004 _ZNK10LeverBlock15isRedstoneBlockEv
0023be40 g    DF .text	0000000c _ZN10LeverBlock7onPlaceER11BlockSourceRK8BlockPos
0023be4c g    DF .text	00000004 _ZN10LeverBlock16getResourceCountER6Randomii
0023be50 g    DF .text	00000010 _ZN10LeverBlock11getResourceER6Randomii
006ac088 g    DO .bss	00000004 _ZN5Block6mLeverE
0023be60 g    DF .text	0000000c _ZNK18FurnaceBlockEntity7getItemEi
0023be6c g    DF .text	00000008 _ZThn92_NK18FurnaceBlockEntity7getItemEi
0023be74 g    DF .text	00000004 _ZNK18FurnaceBlockEntity15getMaxStackSizeEv
0023be78 g    DF .text	00000008 _ZThn92_NK18FurnaceBlockEntity15getMaxStackSizeEv
0023be80 g    DF .text	00000004 _ZNK18FurnaceBlockEntity16getContainerSizeEv
0023be84 g    DF .text	00000008 _ZThn92_NK18FurnaceBlockEntity16getContainerSizeEv
0023be8c g    DF .text	00000002 _ZN18FurnaceBlockEntity9startOpenER6Player
0023be90 g    DF .text	00000008 _ZThn92_N18FurnaceBlockEntity9startOpenER6Player
0023be98 g    DF .text	00000002 _ZN18FurnaceBlockEntity8stopOpenER6Player
0023be9c g    DF .text	00000008 _ZThn92_N18FurnaceBlockEntity8stopOpenER6Player
0023bea4 g    DF .text	00000010 _ZN18FurnaceBlockEntity10isFinishedEv
0023beb4 g    DF .text	00000018 _ZN16StoneButtonBlock10getTextureEai
006ac180 g    DO .bss	00000004 _ZN5Block6mStoneE
0023becc g    DF .text	00000002 _ZN13BuyGameScreen4initEv
0023bed0 g    DF .text	00000002 _ZN13BuyGameScreen6renderEiif
0023bed4 g    DF .text	00000002 _ZN13BuyGameScreen14_buttonClickedER6Button
0023bed8  w   DF .text	00000010 _ZN6EndTagD2Ev
0023bed8  w   DF .text	00000010 _ZN6EndTagD1Ev
0023bee8  w   DF .text	00000010 _ZN8FloatTagD2Ev
0023bee8  w   DF .text	00000010 _ZN8FloatTagD1Ev
0023bef8  w   DF .text	00000010 _ZN10OakFeatureD2Ev
0023bef8  w   DF .text	00000010 _ZN10OakFeatureD1Ev
0023bf08  w   DF .text	0000001c _ZN16SkullBlockEntityD2Ev
005dcfd0 g    DO .data.rel.ro	00000048 _ZTV16SkullBlockEntity
0023bf08  w   DF .text	0000001c _ZN16SkullBlockEntityD1Ev
0023bf24  w   DF .text	0000000c _ZNSt16_Sp_counted_baseILN9__gnu_cxx12_Lock_policyE2EE10_M_destroyEv
0023bf30  w   DF .text	00000010 _ZN9DataItem2IiED2Ev
0023bf30  w   DF .text	00000010 _ZN9DataItem2IiED1Ev
0023bf40  w   DF .text	00000010 _ZN9DataItem2IaED2Ev
0023bf40  w   DF .text	00000010 _ZN9DataItem2IaED1Ev
0023bf50  w   DF .text	00000010 _ZN9DataItem2IfED2Ev
0023bf50  w   DF .text	00000010 _ZN9DataItem2IfED1Ev
0023bf60  w   DF .text	00000010 _ZN9DataItem2IsED2Ev
0023bf60  w   DF .text	00000010 _ZN9DataItem2IsED1Ev
0023bf70  w   DF .text	00000010 _ZNSt16_Sp_counted_baseILN9__gnu_cxx12_Lock_policyE2EED2Ev
005dbe90  w   DO .data.rel.ro	0000001c _ZTVSt16_Sp_counted_baseILN9__gnu_cxx12_Lock_policyE2EE
0023bf70  w   DF .text	00000010 _ZNSt16_Sp_counted_baseILN9__gnu_cxx12_Lock_policyE2EED1Ev
0023bf80 g    DF .text	000000d6 _ZN20BaseCircuitComponent12removeSourceERK8BlockPos
0023c058  w   DF .text	00000010 _ZN11ClayFeatureD2Ev
0023c058  w   DF .text	00000010 _ZN11ClayFeatureD1Ev
0023c068  w   DF .text	00000010 _ZN12MelonFeatureD2Ev
0023c068  w   DF .text	00000010 _ZN12MelonFeatureD1Ev
0023c078  w   DF .text	00000010 _ZN14InteractPacketD2Ev
0023c078  w   DF .text	00000010 _ZN14InteractPacketD1Ev
0023c088  w   DF .text	00000010 _ZN19SetEntityLinkPacketD2Ev
0023c088  w   DF .text	00000010 _ZN19SetEntityLinkPacketD1Ev
0023c098  w   DF .text	00000010 _ZN12DripParticleD2Ev
005e97c0 g    DO .data.rel.ro	00000024 _ZTV8Particle
0023c098  w   DF .text	00000010 _ZN12DripParticleD1Ev
0023c0a8  w   DF .text	00000010 _ZN25HugeExplosionSeedParticleD2Ev
0023c0a8  w   DF .text	00000010 _ZN25HugeExplosionSeedParticleD1Ev
0023c0b8  w   DF .text	00000010 _ZN15StringByteInputD2Ev
0023c0b8  w   DF .text	00000010 _ZN15StringByteInputD1Ev
0023c0c8  w   DF .text	00000010 _ZN12RakDataInputD2Ev
0023c0c8  w   DF .text	00000010 _ZN12RakDataInputD1Ev
0023c0d8  w   DF .text	00000010 _ZN13RakDataOutputD2Ev
0023c0d8  w   DF .text	00000010 _ZN13RakDataOutputD1Ev
0023c0fc  w   DF .text	00000010 _ZNSt19_Sp_counted_deleterIP5LabelNSt12__shared_ptrIS0_LN9__gnu_cxx12_Lock_policyE2EE8_DeleterISaIS0_EEES7_LS4_2EED2Ev
0023c0fc  w   DF .text	00000010 _ZNSt19_Sp_counted_deleterIP5LabelNSt12__shared_ptrIS0_LN9__gnu_cxx12_Lock_policyE2EE8_DeleterISaIS0_EEES7_LS4_2EED1Ev
0023c10c  w   DF .text	00000004 _ZNSt19_Sp_counted_deleterIP5LabelNSt12__shared_ptrIS0_LN9__gnu_cxx12_Lock_policyE2EE8_DeleterISaIS0_EEES7_LS4_2EE14_M_get_deleterERKSt9type_info
0023c110  w   DF .text	00000010 _ZNSt19_Sp_counted_deleterIP19ImageWithBackgroundNSt12__shared_ptrIS0_LN9__gnu_cxx12_Lock_policyE2EE8_DeleterISaIS0_EEES7_LS4_2EED2Ev
0023c110  w   DF .text	00000010 _ZNSt19_Sp_counted_deleterIP19ImageWithBackgroundNSt12__shared_ptrIS0_LN9__gnu_cxx12_Lock_policyE2EE8_DeleterISaIS0_EEES7_LS4_2EED1Ev
0023c120  w   DF .text	00000004 _ZNSt19_Sp_counted_deleterIP19ImageWithBackgroundNSt12__shared_ptrIS0_LN9__gnu_cxx12_Lock_policyE2EE8_DeleterISaIS0_EEES7_LS4_2EE14_M_get_deleterERKSt9type_info
0023c124  w   DF .text	00000010 _ZNSt19_Sp_counted_deleterIPN5Touch7TButtonENSt12__shared_ptrIS1_LN9__gnu_cxx12_Lock_policyE2EE8_DeleterISaIS1_EEES8_LS5_2EED2Ev
0023c124  w   DF .text	00000010 _ZNSt19_Sp_counted_deleterIPN5Touch7TButtonENSt12__shared_ptrIS1_LN9__gnu_cxx12_Lock_policyE2EE8_DeleterISaIS1_EEES8_LS5_2EED1Ev
0023c134  w   DF .text	00000004 _ZNSt19_Sp_counted_deleterIPN5Touch7TButtonENSt12__shared_ptrIS1_LN9__gnu_cxx12_Lock_policyE2EE8_DeleterISaIS1_EEES8_LS5_2EE14_M_get_deleterERKSt9type_info
0023c138  w   DF .text	00000010 _ZNSt19_Sp_counted_deleterIP12ItemInstanceNSt12__shared_ptrIS0_LN9__gnu_cxx12_Lock_policyE2EE8_DeleterISaIS0_EEES7_LS4_2EED2Ev
0023c138  w   DF .text	00000010 _ZNSt19_Sp_counted_deleterIP12ItemInstanceNSt12__shared_ptrIS0_LN9__gnu_cxx12_Lock_policyE2EE8_DeleterISaIS0_EEES7_LS4_2EED1Ev
0023c148  w   DF .text	00000004 _ZNSt19_Sp_counted_deleterIP12ItemInstanceNSt12__shared_ptrIS0_LN9__gnu_cxx12_Lock_policyE2EE8_DeleterISaIS0_EEES7_LS4_2EE14_M_get_deleterERKSt9type_info
0023c14c  w   DF .text	00000010 _ZNSt19_Sp_counted_deleterIP23HealthAttributeDelegateSt14default_deleteIS0_ESaIvELN9__gnu_cxx12_Lock_policyE2EED2Ev
0023c14c  w   DF .text	00000010 _ZNSt19_Sp_counted_deleterIP23HealthAttributeDelegateSt14default_deleteIS0_ESaIvELN9__gnu_cxx12_Lock_policyE2EED1Ev
0023c15c  w   DF .text	0000000e _ZNSt19_Sp_counted_deleterIP23HealthAttributeDelegateSt14default_deleteIS0_ESaIvELN9__gnu_cxx12_Lock_policyE2EE10_M_disposeEv
0023c16c  w   DF .text	00000004 _ZNSt19_Sp_counted_deleterIP23HealthAttributeDelegateSt14default_deleteIS0_ESaIvELN9__gnu_cxx12_Lock_policyE2EE14_M_get_deleterERKSt9type_info
0023c170  w   DF .text	00000008 _ZN8TempEPtrI6EntityE10invalidateEv
0023c178  w   DF .text	00000008 _ZN8TempEPtrI3MobE10invalidateEv
0023c180  w   DF .text	0000001c _ZN8DataItemD0Ev
00000000      DF *UND*	00000000 _ZdlPv
0023c19c  w   DF .text	0000001c _ZN11IDataOutputD0Ev
0023c1b8  w   DF .text	0000001c _ZN10IDataInputD0Ev
0023c1d4  w   DF .text	0000001c _ZN3TagD0Ev
0023c1f0  w   DF .text	0000001c _ZN6PacketD0Ev
0023c20c  w   DF .text	0000001c _ZN8_TickPtrD0Ev
0023c228  w   DF .text	0000001c _ZN13LevelListenerD0Ev
0023c244  w   DF .text	0000001c _ZN15UIRenderContextD0Ev
0023c260 g    DF .text	00000012 _ZN18BackgroundRendererD0Ev
0023c274 g    DF .text	00000012 _ZN12GuiComponentD0Ev
0023c288  w   DF .text	0000001c _ZN7FeatureD0Ev
0023c2a4 g    DF .text	00000012 _ZN11BlockEntityD0Ev
0023c2e8  w   DF .text	0000001c _ZN6EndTagD0Ev
0023c304  w   DF .text	0000001c _ZN8FloatTagD0Ev
0023c320  w   DF .text	0000001c _ZN10OakFeatureD0Ev
0023c33c  w   DF .text	00000020 _ZN16SkullBlockEntityD0Ev
0023c35c  w   DF .text	0000001c _ZN9DataItem2IiED0Ev
0023c378  w   DF .text	0000001c _ZN9DataItem2IaED0Ev
0023c394  w   DF .text	0000001c _ZN9DataItem2IfED0Ev
0023c3b0  w   DF .text	0000001c _ZN9DataItem2IsED0Ev
0023c3cc  w   DF .text	0000001c _ZNSt16_Sp_counted_baseILN9__gnu_cxx12_Lock_policyE2EED0Ev
0023c3e8  w   DF .text	0000001c _ZN11ClayFeatureD0Ev
0023c404  w   DF .text	0000001c _ZN12MelonFeatureD0Ev
0023c420  w   DF .text	0000001c _ZN14InteractPacketD0Ev
0023c43c  w   DF .text	0000001c _ZN19SetEntityLinkPacketD0Ev
0023c458  w   DF .text	0000001c _ZN12DripParticleD0Ev
0023c474  w   DF .text	0000001c _ZN25HugeExplosionSeedParticleD0Ev
0023c490  w   DF .text	0000001c _ZN15StringByteInputD0Ev
0023c4ac  w   DF .text	0000001c _ZN12RakDataInputD0Ev
0023c4c8  w   DF .text	0000001c _ZN13RakDataOutputD0Ev
0023c4e4  w   DF .text	0000001c _ZNSt19_Sp_counted_deleterIP23HealthAttributeDelegateSt14default_deleteIS0_ESaIvELN9__gnu_cxx12_Lock_policyE2EED0Ev
0023c500 g    DF .text	00000012 _ZN10GuiElementD0Ev
0023c514  w   DF .text	00000020 _ZN20BaseCircuitComponentD2Ev
005dd018 g    DO .data.rel.ro	00000044 _ZTV20BaseCircuitComponent
0023c514  w   DF .text	00000020 _ZN20BaseCircuitComponentD1Ev
0023c534  w   DF .text	00000024 _ZN20BaseCircuitComponentD0Ev
0023c558  w   DF .text	00000020 _ZN18MerchantRecipeListD2Ev
005ddb98 g    DO .data.rel.ro	00000028 _ZTV18MerchantRecipeList
0023c558  w   DF .text	00000020 _ZN18MerchantRecipeListD1Ev
0023c578  w   DF .text	00000024 _ZN18MerchantRecipeListD0Ev
0023c59c  w   DF .text	0000002c _ZN16MoveEntityPacketD2Ev
005dc398  w   DO .data.rel.ro	00000020 _ZTV16MoveEntityPacket
0023c59c  w   DF .text	0000002c _ZN16MoveEntityPacketD1Ev
0023c5c8  w   DF .text	00000034 _ZN16MoveEntityPacketD0Ev
0023c5fc  w   DF .text	0000002c _ZN21SetEntityMotionPacketD2Ev
005dc3b8  w   DO .data.rel.ro	00000020 _ZTV21SetEntityMotionPacket
0023c5fc  w   DF .text	0000002c _ZN21SetEntityMotionPacketD1Ev
0023c628  w   DF .text	00000034 _ZN21SetEntityMotionPacketD0Ev
0023c65c  w   DF .text	0000001c _ZNSt19_Sp_counted_deleterIP12ItemInstanceNSt12__shared_ptrIS0_LN9__gnu_cxx12_Lock_policyE2EE8_DeleterISaIS0_EEES7_LS4_2EED0Ev
0023c678  w   DF .text	0000001c _ZNSt19_Sp_counted_deleterIPN5Touch7TButtonENSt12__shared_ptrIS1_LN9__gnu_cxx12_Lock_policyE2EE8_DeleterISaIS1_EEES8_LS5_2EED0Ev
0023c694  w   DF .text	0000001c _ZNSt19_Sp_counted_deleterIP19ImageWithBackgroundNSt12__shared_ptrIS0_LN9__gnu_cxx12_Lock_policyE2EE8_DeleterISaIS0_EEES7_LS4_2EED0Ev
0023c6b0  w   DF .text	0000001c _ZNSt19_Sp_counted_deleterIP5LabelNSt12__shared_ptrIS0_LN9__gnu_cxx12_Lock_policyE2EE8_DeleterISaIS0_EEES7_LS4_2EED0Ev
0023c6cc  w   DF .text	00000014 _ZNSt19_Sp_counted_deleterIP5LabelNSt12__shared_ptrIS0_LN9__gnu_cxx12_Lock_policyE2EE8_DeleterISaIS0_EEES7_LS4_2EE10_M_destroyEv
0023c6e0  w   DF .text	00000014 _ZNSt19_Sp_counted_deleterIP19ImageWithBackgroundNSt12__shared_ptrIS0_LN9__gnu_cxx12_Lock_policyE2EE8_DeleterISaIS0_EEES7_LS4_2EE10_M_destroyEv
0023c6f4  w   DF .text	00000014 _ZNSt19_Sp_counted_deleterIPN5Touch7TButtonENSt12__shared_ptrIS1_LN9__gnu_cxx12_Lock_policyE2EE8_DeleterISaIS1_EEES8_LS5_2EE10_M_destroyEv
0023c708  w   DF .text	00000014 _ZNSt19_Sp_counted_deleterIP12ItemInstanceNSt12__shared_ptrIS0_LN9__gnu_cxx12_Lock_policyE2EE8_DeleterISaIS0_EEES7_LS4_2EE10_M_destroyEv
0023c71c  w   DF .text	00000014 _ZNSt19_Sp_counted_deleterIP23HealthAttributeDelegateSt14default_deleteIS0_ESaIvELN9__gnu_cxx12_Lock_policyE2EE10_M_destroyEv
0023c730 g    DF .text	00000018 _ZN6Entity15getInteractTextER6Player
00000000      DF *UND*	00000000 _ZNSsC1ERKSs
00646784 g    DO .bss	00000004 _ZN4Util12EMPTY_STRINGE
0023c748 g    DF .text	00000056 _ZN17ScreenViewAdapter21handlePointerLocationEss
003761c8 g    DF .text	00000010 _ZN3Gui14getInvGuiScaleEv
0023c7a0 g    DF .text	00000006 _ZNK24MinecraftUIRenderContext13getLineLengthERKSs
002cdac8 g    DF .text	0000008c _ZNK4Font13getLineLengthERKSs
0023c7a8 g    DF .text	00000114 _ZN5Touch7THeader8renderBgEP15MinecraftClientii
0042dfac g    DF .text	000001b8 _ZN14ScreenRenderer4blitERKN3mce10TexturePtrEiiiiiiiiPNS0_11MaterialPtrE
006aee84 g    DO .bss	00000010 _ZN5Color5WHITEE
006aa8b4 g    DO .bss	00000010 currentShaderColor
006aa9bc g    DO .bss	0000000c _ZN14ScreenRenderer11touchGuiTexE
0023c8bc  w   DF .text	0000001c _ZNK4Item15getInteractTextEv
00000000      DF *UND*	00000000 _ZNSsC1EPKcRKSaIcE
0023c8d8 g    DF .text	0000001c _ZN6Ocelot13_getHurtSoundEv
0023c8f4 g    DF .text	0000001c _ZN6Ocelot14_getDeathSoundEv
0023c910 g    DF .text	0000001c _ZN19NetherBridgeFeature14getFeatureNameEv
0023c92c  w   DF .text	0000001c _ZNK6EndTag8toStringEv
0023c948 g    DF .text	0000001c _ZNK3Tag7getNameEv
0023c964 g    DF .text	0000001c _ZN3Mob13_getHurtSoundEv
0023c980 g    DF .text	0000001c _ZN3Mob14_getDeathSoundEv
0023c99c g    DF .text	00000030 _ZNK21EnchantingTableEntity7getNameEv
0023c9cc g    DF .text	00000030 _ZNK18FurnaceBlockEntity7getNameEv
0023c9fc g    DF .text	00000008 _ZThn92_NK18FurnaceBlockEntity7getNameEv
0023ca04  w   DF .text	0000000a _ZN13RakDataOutput10writeBytesEPKvi
00545f3c g    DF .text	00000098 _ZN6RakNet9BitStream9WriteBitsEPKhjb
00000000      DF *UND*	00000000 memset
0023cb14 g    DF .text	0000001c _ZN13InventoryMenuD2Ev
003acdd0 g    DF .text	00000040 _ZN17BaseContainerMenuD2Ev
005dcc90 g    DO .data.rel.ro	00000038 _ZTV13InventoryMenu
0023cb14 g    DF .text	0000001c _ZN13InventoryMenuD1Ev
0023cb30 g    DF .text	00000012 _ZN13InventoryMenuD0Ev
0023cb44  w   DF .text	0000001c _ZN16BrewingStandMenuD2Ev
005ded90 g    DO .data.rel.ro	00000038 _ZTV16BrewingStandMenu
0023cb44  w   DF .text	0000001c _ZN16BrewingStandMenuD1Ev
0023cb60  w   DF .text	00000020 _ZN16BrewingStandMenuD0Ev
0023cb80 g    DF .text	0000002c _ZN21PackedScrollContainerD2Ev
0030cb10 g    DF .text	0000011c _ZN19GuiElementContainerD2Ev
005dccc8 g    DO .data.rel.ro	0000007c _ZTV21PackedScrollContainer
0023cb80 g    DF .text	0000002c _ZN21PackedScrollContainerD1Ev
0023cbac g    DF .text	00000012 _ZN21PackedScrollContainerD0Ev
0023cbc0 g    DF .text	0000002e _ZN21PackedScrollContainer4tickEP15MinecraftClient
00369f50 g    DF .text	00000022 _ZN13ScrollingPane4tickEv
00303000 g    DF .text	00000028 _ZN19GuiElementContainer4tickEP15MinecraftClient
0023cbf0 g    DF .text	0000000a _ZN25InventoryFoilItemRenderer14preRenderSetupEv
003de2bc g    DF .text	00000068 _ZN19EntityShaderManager26_setupFoilShaderParametersERK22TextureUVCoordinateSet
0023cbfc g    DF .text	00000032 _ZN6Entity15spawnAtLocationEiif
00322a20 g    DF .text	00000010 _ZN12ItemInstanceC1Eiii
0023cc30 g    DF .text	0000001e _ZN3Mob17getItemInHandIconEPK12ItemInstancei
00324934 g    DF .text	00000018 _ZNK12ItemInstance7getIconEib
0023cc50 g    DF .text	000000b8 _ZN25InventoryFoilItemRenderer6renderER15MinecraftClientRSt10shared_ptrI9UIControlE
003b8a5c g    DF .text	00000010 _ZNK9UIControl11getPositionEv
003b8a78 g    DF .text	00000010 _ZNK9UIControl7getSizeEv
00376a8c g    DF .text	00000034 _ZN3Gui23floorAlignToScreenPixelEf
003c1eb8 g    DF .text	00000010 _ZN12ItemRenderer11getInstanceEv
003de514 g    DF .text	000001b8 _ZN12ItemRenderer20renderGuiItemInChunkE19ItemRenderChunkTypePK12ItemInstancefffff
006ad210 g    DO .bss	00000800 _ZN4Item6mItemsE
0023cd08 g    DF .text	00000042 _ZN18BackgroundRenderer6renderER15MinecraftClientRSt10shared_ptrI9UIControlE
0042de44 g    DF .text	00000030 _ZN14ScreenRenderer9singletonEv
002ca018 g    DF .text	00000004 _ZNK15MinecraftClient8getWidthEv
002ca01c g    DF .text	00000004 _ZNK15MinecraftClient9getHeightEv
0042e378 g    DF .text	0000003a _ZNK14ScreenRenderer4fillEiiiiRK5Color
0023cd4c g    DF .text	00000060 _ZNK24MinecraftUIRenderContext11measureTextERKSs
002ea908 g    DF .text	000002a8 _ZN4Font6heightERKSsi
00524f90 g    DF .text	0000000c _ZN13RectangleAreaC1Ev
0023cdac g    DF .text	0000000e _ZNK24MinecraftUIRenderContext10getTextureERKSs
002b8020 g    DF .text	0000000c _ZN12TextureGroup10getTextureERKSs
0023cdbc g    DF .text	0000005a _ZN24MinecraftUIRenderContext13drawRectangleERK13RectangleAreai
0042e590 g    DF .text	0000005c _ZN14ScreenRenderer8drawRectEiiiiRK5Colori
0023ce18 g    DF .text	00000034 _ZN10GuiElement12drawSelectedEi
0023ce4c g    DF .text	00000034 _ZN10GuiElement18drawSliderSelectedEv
0023ce80 g    DF .text	00000038 _ZN6Button11drawPressedEi
0023ceb8 g    DF .text	0000002e _ZN24MinecraftUIRenderContext13fillRectangleERK13RectangleArea
0042e2fc g    DF .text	0000007c _ZNK14ScreenRenderer4fillEffffRK5Color
0023cee8 g    DF .text	0000002a _ZN24MinecraftUIRenderContext18increaseStencilRefEv
004245a0 g    DF .text	00000010 _ZN3mce22RenderContextImmediate3getEv
0023cf14 g    DF .text	0000002a _ZN24MinecraftUIRenderContext18decreaseStencilRefEv
0023cf40 g    DF .text	00000020 _ZN24MinecraftUIRenderContext15resetStencilRefEv
0023cf60 g    DF .text	0000001c _ZN24MinecraftUIRenderContext20fillRectangleStencilERK13RectangleArea
0042e3b4 g    DF .text	00000068 _ZNK14ScreenRenderer11fillStencilEffff
0023cf7c g    DF .text	0000000a _ZN24MinecraftUIRenderContext12updateCustomEP21CustomRenderComponent
00377ebc g    DF .text	0000014c _ZN21CustomRenderComponent12updateCustomER15MinecraftClient
0023cf88 g    DF .text	0000000a _ZN24MinecraftUIRenderContext12renderCustomEP21CustomRenderComponent
00378018 g    DF .text	000000f0 _ZN21CustomRenderComponent12renderCustomER15MinecraftClient
0023cf94  w   DF .text	0000001c _ZN27NearestAttackableTargetGoalD2Ev
003a5034 g    DF .text	00000010 _ZN4GoalD2Ev
005fbcd8 g    DO .data.rel.ro	00000030 _ZTV10TargetGoal
0023cf94  w   DF .text	0000001c _ZN27NearestAttackableTargetGoalD1Ev
0023cfb0  w   DF .text	00000020 _ZN27NearestAttackableTargetGoalD0Ev
0023cfd0  w   DF .text	0000001c _ZN16OcelotAttackGoalD2Ev
005dd920 g    DO .data.rel.ro	0000002c _ZTV16OcelotAttackGoal
0023cfd0  w   DF .text	0000001c _ZN16OcelotAttackGoalD1Ev
0023cfec  w   DF .text	00000020 _ZN16OcelotAttackGoalD0Ev
0023d00c  w   DF .text	0000001c _ZN16RandomStrollGoalD2Ev
005dd950 g    DO .data.rel.ro	0000002c _ZTV16RandomStrollGoal
0023d00c  w   DF .text	0000001c _ZN16RandomStrollGoalD1Ev
0023d028  w   DF .text	00000020 _ZN16RandomStrollGoalD0Ev
0023d048 g    DF .text	00000036 _ZN6Entity18getOwnerEntityTypeEv
00426b08 g    DF .text	0000003e _ZNK5Level9getEntityE14EntityUniqueIDb
0023d080  w   DF .text	0000001c _ZN6OcelotD2Ev
002ac7ac g    DF .text	0000004c _ZN13PathfinderMobD2Ev
005f0038 g    DO .data.rel.ro	0000037c _ZTV9AgableMob
0023d080  w   DF .text	0000001c _ZN6OcelotD1Ev
0023d09c  w   DF .text	00000020 _ZN6OcelotD0Ev
0023d0bc g    DF .text	0000004c _ZN6Ocelot18registerAttributesEv
00512d40 g    DF .text	0000000e _ZN17AttributeInstance8setRangeEfff
00512c64 g    DF .text	00000022 _ZN17AttributeInstance15setDefaultValueEfi
006468fc g    DO .bss	00000014 _ZN16SharedAttributes6HEALTHE
006468c0 g    DO .bss	00000014 _ZN16SharedAttributes14MOVEMENT_SPEEDE
0023d108 g    DF .text	00000018 _ZN3Mob9canAttackEPS_b
00506368 g    DF .text	00000016 _ZN15EntityClassTree12isInstanceOfERK6Entity10EntityType
0023d120 g    DF .text	00000020 _ZN6Ocelot4hurtERK18EntityDamageSourcei
00529714 g    DF .text	00000004 _ZN7SitGoal9wantToSitEb
00416708 g    DF .text	00000024 _ZN6Animal4hurtERK18EntityDamageSourcei
0023d140 g    DF .text	00000014 _ZN6Entity14canShowNameTagEv
0043b66c g    DF .text	00000018 _ZNK17SynchedEntityData7getByteEh
0023d154 g    DF .text	00000014 _ZN6Entity8isSilentEv
0023d168 g    DF .text	0000001a _ZNK3Mob21isInvertedHealAndHarmEv
005062c4 g    DF .text	0000002e _ZN15EntityClassTree16isTypeInstanceOfE10EntityTypeS0_
0023d184 g    DF .text	0000001c _ZN8OreBlock25getSpawnResourcesAuxValueEh
004acd58 g    DF .text	00000008 _ZNK5Block6isTypeEPKS_
006ac130 g    DO .bss	00000004 _ZN5Block9mLapisOreE
0023d1a0 g    DF .text	000000b8 _ZN8OreBlock11getResourceER6Randomii
006ac144 g    DO .bss	00000004 _ZN5Block8mCoalOreE
006ad180 g    DO .bss	00000004 _ZN4Item5mCoalE
006ac0bc g    DO .bss	00000004 _ZN5Block11mDiamondOreE
006ad17c g    DO .bss	00000004 _ZN4Item8mDiamondE
006ad000 g    DO .bss	00000004 _ZN4Item11mDye_powderE
006abfd0 g    DO .bss	00000004 _ZN5Block11mEmeraldOreE
006acf54 g    DO .bss	00000004 _ZN4Item8mEmeraldE
006abf60 g    DO .bss	00000004 _ZN5Block10mQuartzOreE
006acf5c g    DO .bss	00000004 _ZN4Item13mNetherQuartzE
0023d258 g    DF .text	00000016 _ZN10LeverBlock9getSignalER11BlockSourceRK8BlockPosi
005189b4 g    DF .text	0000005e _ZN11BlockSource7getDataERK8BlockPos
0023d270  w   DF .text	0000001c _ZN10HeavyBlockD2Ev
0048c698 g    DF .text	00000054 _ZN5BlockD2Ev
005ddd30 g    DO .data.rel.ro	00000180 _ZTV10HeavyBlock
0023d270  w   DF .text	0000001c _ZN10HeavyBlockD1Ev
0023d28c  w   DF .text	00000020 _ZN10HeavyBlockD0Ev
0023d2ac  w   DF .text	0000001c _ZN9SandBlockD2Ev
0023d2ac  w   DF .text	0000001c _ZN9SandBlockD1Ev
0023d2c8  w   DF .text	00000020 _ZN9SandBlockD0Ev
0023d2e8  w   DF .text	0000001c _ZN16StoneButtonBlockD2Ev
005ed160 g    DO .data.rel.ro	00000170 _ZTV11ButtonBlock
0023d2e8  w   DF .text	0000001c _ZN16StoneButtonBlockD1Ev
0023d304  w   DF .text	00000020 _ZN16StoneButtonBlockD0Ev
0023d324  w   DF .text	0000001c _ZN15WoodButtonBlockD2Ev
0023d324  w   DF .text	0000001c _ZN15WoodButtonBlockD1Ev
0023d340  w   DF .text	00000020 _ZN15WoodButtonBlockD0Ev
0023d360  w   DF .text	0000001c _ZN7SaplingD2Ev
005eb658 g    DO .data.rel.ro	00000174 _ZTV9BushBlock
0023d360  w   DF .text	0000001c _ZN7SaplingD1Ev
0023d37c  w   DF .text	00000020 _ZN7SaplingD0Ev
0023d39c  w   DF .text	0000001c _ZN11EntityBlockD2Ev
005de5d8 g    DO .data.rel.ro	0000016c _ZTV11EntityBlock
0023d39c  w   DF .text	0000001c _ZN11EntityBlockD1Ev
0023d3b8  w   DF .text	00000020 _ZN11EntityBlockD0Ev
0023d3d8  w   DF .text	0000001c _ZN18NetherReactorBlockD2Ev
0023d3d8  w   DF .text	0000001c _ZN18NetherReactorBlockD1Ev
0023d3f4  w   DF .text	00000020 _ZN18NetherReactorBlockD0Ev
0023d414  w   DF .text	0000001c _ZN9RailBlockD2Ev
00600100 g    DO .data.rel.ro	00000170 _ZTV13BaseRailBlock
0023d414  w   DF .text	0000001c _ZN9RailBlockD1Ev
0023d430  w   DF .text	00000020 _ZN9RailBlockD0Ev
0023d450  w   DF .text	0000001c _ZN10LeverBlockD2Ev
005e01b0 g    DO .data.rel.ro	00000178 _ZTV10LeverBlock
0023d450  w   DF .text	0000001c _ZN10LeverBlockD1Ev
0023d46c  w   DF .text	00000020 _ZN10LeverBlockD0Ev
0023d48c  w   DF .text	0000001c _ZN8OreBlockD2Ev
005df978 g    DO .data.rel.ro	0000016c _ZTV8OreBlock
0023d48c  w   DF .text	0000001c _ZN8OreBlockD1Ev
0023d4a8  w   DF .text	00000020 _ZN8OreBlockD0Ev
0023d4c8  w   DF .text	0000001c _ZN14InvisibleBlockD2Ev
005df458 g    DO .data.rel.ro	0000016c _ZTV14InvisibleBlock
0023d4c8  w   DF .text	0000001c _ZN14InvisibleBlockD1Ev
0023d4e4  w   DF .text	00000020 _ZN14InvisibleBlockD0Ev
0023d504  w   DF .text	0000001c _ZN13RedstoneBlockD2Ev
005df0a8 g    DO .data.rel.ro	0000016c _ZTV13RedstoneBlock
0023d504  w   DF .text	0000001c _ZN13RedstoneBlockD1Ev
0023d520  w   DF .text	00000020 _ZN13RedstoneBlockD0Ev
0023d540  w   DF .text	0000001c _ZN13LightGemBlockD2Ev
005def38 g    DO .data.rel.ro	0000016c _ZTV13LightGemBlock
0023d540  w   DF .text	0000001c _ZN13LightGemBlockD1Ev
0023d55c  w   DF .text	00000020 _ZN13LightGemBlockD0Ev
0023d57c  w   DF .text	0000001c _ZN14WorkbenchBlockD2Ev
005dedc8 g    DO .data.rel.ro	0000016c _ZTV14WorkbenchBlock
0023d57c  w   DF .text	0000001c _ZN14WorkbenchBlockD1Ev
0023d598  w   DF .text	00000020 _ZN14WorkbenchBlockD0Ev
0023d5b8  w   DF .text	0000001c _ZN9SlabBlockD2Ev
005ddbc0 g    DO .data.rel.ro	0000016c _ZTV9SlabBlock
0023d5b8  w   DF .text	0000001c _ZN9SlabBlockD1Ev
0023d5d4  w   DF .text	00000020 _ZN9SlabBlockD0Ev
0023d5f4 g    DF .text	00000018 _ZNK15WoodButtonBlock14asItemInstanceER11BlockSourceRK8BlockPosi
00322a48 g    DF .text	00000016 _ZN12ItemInstanceC1EPK5Block
006abfbc g    DO .bss	00000004 _ZN5Block11mWoodButtonE
0023d60c g    DF .text	00000018 _ZNK10LeverBlock14asItemInstanceER11BlockSourceRK8BlockPosi
0023d624 g    DF .text	00000018 _ZNK16StoneButtonBlock14asItemInstanceER11BlockSourceRK8BlockPosi
006ac068 g    DO .bss	00000004 _ZN5Block12mStoneButtonE
0023d63c g    DF .text	00000048 _ZN10BlazeModel6renderER6Entityffffff
00531afc g    DF .text	00000270 _ZN9ModelPart6renderERK5Modelf
0023d684 g    DF .text	00000072 _ZN14IronGolemModel6renderER6Entityffffff
0023d6f8  w   DF .text	0000001c _ZN17ScreenViewAdapterD2Ev
0035a0c8 g    DF .text	0000002c _ZN10BaseScreenD2Ev
005de2e8 g    DO .data.rel.ro	000000bc _ZTV17ScreenViewAdapter
0023d6f8  w   DF .text	0000001c _ZN17ScreenViewAdapterD1Ev
0023d714  w   DF .text	00000020 _ZN17ScreenViewAdapterD0Ev
0023d734 g    DF .text	000000bc _ZN6Entity12moveRelativeEfff
00000000      DF *UND*	00000000 sin
00000000      DF *UND*	00000000 cos
005a84b4 g    DO .rodata	00000004 _ZN3Mth6DEGRADE
0023d7f0 g    DF .text	00000028 _ZN3Mob13getArmorValueEv
00324988 g    DF .text	00000010 _ZN12ItemInstance11isArmorItemEPKS_
0023d818 g    DF .text	00000048 _ZN3Mob9hurtArmorEi
0032384c g    DF .text	00000148 _ZN12ItemInstance12hurtAndBreakEiP3Mob
0023d860  w   DF .text	00000042 _ZN15StringByteInput9readBytesEPvi
00000000      DF *UND*	00000000 memcpy
0023d8a4 g    DF .text	000000b4 _ZN6Entity7setSizeEff
002babac g    DF .text	00000066 _ZN4AABB3setEffffff
00428554 g    DF .text	00000008 _ZNK5Level15getIsClientSideEv
0023d958 g    DF .text	00000024 _ZN11EntityBlock15neighborChangedER11BlockSourceRK8BlockPosS4_
0051dc5c g    DF .text	00000024 _ZN11BlockSource14getBlockEntityERK8BlockPos
0023d97c g    DF .text	00000006 _ZN11LiquidBlock13getTextureNumEi
0050aea4 g    DF .text	00000018 _ZNK23TextureAtlasTextureItemixEi
0023d984 g    DF .text	00000074 _ZN10HeavyBlock6isFreeER11BlockSourceRK8BlockPos
00518590 g    DF .text	00000074 _ZN11BlockSource10getBlockIDERK8BlockPos
004ac2e0 g    DF .text	00000004 _ZNK5Block11getMaterialEv
0037e7c4 g    DF .text	00000012 _ZNK8Material6isTypeE12MaterialType
006ac9ac g    DO .bss	00000400 _ZN5Block7mBlocksE
006ac184 g    DO .bss	00000004 _ZN5Block4mAirE
006abed4 g    DO .bss	00000004 _ZN5Block5mFireE
0023d9f8 g    DF .text	00000048 _ZN6Entity8isInWallEv
004a4314 g    DF .text	00000014 _ZN8BlockPosC1ERK4Vec3
0051ac10 g    DF .text	00000006 _ZN11BlockSource20isSolidBlockingBlockERK8BlockPos
0051b38c g    DF .text	00000006 _ZN11BlockSource22isConsideredSolidBlockERK8BlockPos
0023da40 g    DF .text	000001e8 _ZN14BiomeInitLayer8fillAreaER9LayerDataiiii
003d92b0 g    DF .text	000000f0 _ZN5Layer10initRandomExx
003d98bc g    DF .text	00000044 _ZN5Layer8_isOceanEi
003d93a0 g    DF .text	00000080 _ZN5Layer10nextRandomEi
003d9118 g    DF .text	0000000a _ZN9LayerData4swapEv
006ae9d4 g    DO .bss	00000004 _ZN5Biome14mushroomIslandE
006ae970 g    DO .bss	00000004 _ZN5Biome13mesaClearRockE
006ae974 g    DO .bss	00000004 _ZN5Biome8mesaRockE
006ae9b8 g    DO .bss	00000004 _ZN5Biome6jungleE
006ae98c g    DO .bss	00000004 _ZN5Biome12redwoodTaigaE
0023dc28 g    DF .text	00000020 _ZNK14PathNavigation14getMaxDistanceEv
005121f0 g    DF .text	00000004 _ZNK17AttributeInstance15getCurrentValueEv
006468e8 g    DO .bss	00000014 _ZN16SharedAttributes12FOLLOW_RANGEE
0023dc48 g    DF .text	00000008 _ZN3Mob6lerpToERK4Vec3RK4Vec2i
003c8064 g    DF .text	00000024 _ZN20MovementInterpolator6lerpToERK4Vec3RK4Vec2i
0023dc50 g    DF .text	00000024 _ZN3Mob25getMeleeWeaponDamageBonusEPS_
00323fac g    DF .text	0000000c _ZN12ItemInstance15getAttackDamageEv
002c07d0 g    DF .text	000000e0 _ZN12EnchantUtils19getMeleeDamageBonusERK3MobRS0_
0023dc74 g    DF .text	0000001a _ZN3Mob22getMeleeKnockbackBonusEv
002c0500 g    DF .text	00000044 _ZN12EnchantUtils15getEnchantLevelEiRK12ItemInstance
0023dc90 g    DF .text	000000a0 _ZN6Entity14_playStepSoundERK8BlockPosi
003803ac g    DF .text	00000004 _ZNK8Material8isLiquidEv
004adc94 g    DF .text	00000004 _ZN5Block12getSoundTypeEv
004ac0f4 g    DF .text	00000004 _ZNK5Block9SoundType12getStepSoundEv
004ac0ec g    DF .text	00000004 _ZNK5Block9SoundType9getVolumeEv
004ac0f0 g    DF .text	00000004 _ZNK5Block9SoundType8getPitchEv
006ac064 g    DO .bss	00000004 _ZN5Block8mTopSnowE
0023dd30 g    DF .text	0000009e _ZN3Mob25getDamageAfterArmorAbsorbERK18EntityDamageSourcei
00424bdc g    DF .text	00000004 _ZNK18EntityDamageSource8getCauseEv
0023ddd0 g    DF .text	00000024 _ZNK3Mob17getEquipmentCountEv
00322b7c g    DF .text	00000032 _ZNK12ItemInstance6isNullEv
0023ddf4 g    DF .text	00000038 _ZN3Mob23getArmorCoverPercentageEv
0023de2c g    DF .text	0000001e _ZNK3Mob8getArmorE9ArmorSlot
0023de4c g    DF .text	00000054 _ZN6Entity8isSkyLitEf
00519dfc g    DF .text	00000042 _ZN11BlockSource9canSeeSkyERK8BlockPos
0023dea0 g    DF .text	00000024 _ZN3Mob8setArmorE9ArmorSlotPK12ItemInstance
0032428c g    DF .text	00000052 _ZN12ItemInstanceaSERKS_
00322c74 g    DF .text	0000001c _ZN12ItemInstance7setNullEv
0023dec4 g    DF .text	00000064 _ZN18FurnaceBlockEntity10removeItemEii
003240ac g    DF .text	00000050 _ZN12ItemInstanceC1ERKS_
00322d24 g    DF .text	00000008 _ZN12ItemInstance6removeEi
0023df28 g    DF .text	00000008 _ZThn92_N18FurnaceBlockEntity10removeItemEii
0023df30 g    DF .text	00000064 _ZN3Mob16getArmorTypeHashEv
00324048 g    DF .text	0000001e _ZNK12ItemInstance5getIdEv
00322fa8 g    DF .text	00000014 _ZNK12ItemInstance11isEnchantedEv
006ad0f4 g    DO .bss	00000004 _ZN4Item13mHelmet_clothE
0023df94 g    DF .text	00000054 _ZN3Mob9setOnFireEi
002c08b0 g    DF .text	0000003e _ZN12EnchantUtils24getTotalProtectionLevelsEiRK3Mob
0023dfe8 g    DF .text	00000030 _ZN3Mob19getLastHurtByPlayerEv
00427f64 g    DF .text	00000022 _ZNK5Level9getPlayerE14EntityUniqueID
0023e018 g    DF .text	0000001e _ZN3Mob9getTargetEv
00427524 g    DF .text	00000022 _ZNK5Level6getMobE14EntityUniqueID
0023e038 g    DF .text	00000048 _ZNK21AttackDamageMobEffect25getAttributeModifierValueEiRK17AttributeModifier
00430b64 g    DF .text	00000004 _ZNK9MobEffect5getIdEv
006aa938 g    DO .bss	00000004 _ZN9MobEffect8WEAKNESSE
0023e080 g    DF .text	00000044 _ZN3Mob13onEffectAddedER17MobEffectInstance
00523f6c g    DF .text	00000004 _ZNK17MobEffectInstance5getIdEv
00524218 g    DF .text	00000020 _ZNK17MobEffectInstance12applyEffectsEP3Mob
006aa950 g    DO .bss	00000004 _ZN9MobEffect15FIRE_RESISTANCEE
0023e0c4 g    DF .text	00000044 _ZN3Mob15onEffectRemovedER17MobEffectInstance
00524238 g    DF .text	0000001c _ZNK17MobEffectInstance13removeEffectsEP3Mob
0023e108 g    DF .text	00000008 _ZN3Mob19getMutableAttributeERK9Attribute
00496b28 g    DF .text	00000016 _ZN16BaseAttributeMap18getMutableInstanceERK9Attribute
0023e110 g    DF .text	00000008 _ZNK3Mob12getAttributeERK9Attribute
00496bc4 g    DF .text	00000016 _ZNK16BaseAttributeMap11getInstanceERK9Attribute
0023e118 g    DF .text	00000008 _ZNK3Mob14buildDebugInfoERSs
0050c24c g    DF .text	00000044 _ZNK12GoalSelector14buildDebugInfoERSs
0023e120 g    DF .text	00000030 _ZN23FurnaceScreenControllerD2Ev
002b12d8 g    DF .text	000000c4 _ZN25MinecraftScreenControllerD2Ev
005de7a0 g    DO .data.rel.ro	00000088 _ZTV23FurnaceScreenController
0023e120 g    DF .text	00000030 _ZN23FurnaceScreenControllerD1Ev
0023e150 g    DF .text	00000012 _ZN23FurnaceScreenControllerD0Ev
0023e164 g    DF .text	00000014 _ZN23FurnaceScreenController6onOpenEv
0042f3a8 g    DF .text	00000086 _ZN20MinecraftScreenModel18linkPlayerToScreenEv
0042f17c g    DF .text	0000002c _ZN20MinecraftScreenModel18linkScreenToPlayerEv
0023e178 g    DF .text	00000038 _ZNK9SlabBlock14asItemInstanceER11BlockSourceRK8BlockPosi
00322ac4 g    DF .text	00000012 _ZN12ItemInstanceC1EPK5Blockii
006ac0e8 g    DO .bss	00000004 _ZN5Block10mStoneSlabE
006abf3c g    DO .bss	00000004 _ZN5Block11mWoodenSlabE
0023e1b0 g    DF .text	00000038 _ZN8Fireball25shouldRenderAtSqrDistanceEf
002baa34 g    DF .text	00000040 _ZNK4AABB7getSizeEv
0023e1e8 g    DF .text	00000044 _ZN6Entity25shouldRenderAtSqrDistanceEf
0023e22c g    DF .text	00000024 _ZN13BuyGameScreenD2Ev
0038aad4 g    DF .text	0000031c _ZN6ScreenD2Ev
005e05f0 g    DO .data.rel.ro	00000114 _ZTV13BuyGameScreen
0023e22c g    DF .text	00000024 _ZN13BuyGameScreenD1Ev
0023e250 g    DF .text	00000008 _ZThn8_N13BuyGameScreenD1Ev
0023e258 g    DF .text	00000012 _ZN13BuyGameScreenD0Ev
0023e26c g    DF .text	00000008 _ZThn8_N13BuyGameScreenD0Ev
0023e274 g    DF .text	00000028 _ZN5Touch15StartMenuScreen27_controllerDirectionChangedEi14StickDirection
00372c2c g    DF .text	0000002a _ZN6Screen27_controllerDirectionChangedEi14StickDirection
00372bd0 g    DF .text	00000030 _ZN6Screen8_tabPrevEv
00372ba0 g    DF .text	0000002e _ZN6Screen8_tabNextEv
0023e29c g    DF .text	000000c4 _ZN17TrialUpsellScreen14setupPositionsEv
0036d064 g    DF .text	00000042 _ZN14NinePatchLayer7setSizeEff
0023e360 g    DF .text	00000218 _ZN8BatModel6renderER6Entityffffff
004a2ad0 g    DF .text	00000010 _ZN3Bat9isRestingEv
0051104c g    DF .text	0000000e _ZN9ModelPart6setPosERK4Vec3
0023e578 g    DF .text	00000024 _ZN20FallingBlockRendererD2Ev
0043a900 g    DF .text	00000048 _ZN3mce11MaterialPtrD1Ev
00489498 g    DF .text	00000070 _ZN14EntityRendererD2Ev
005df218 g    DO .data.rel.ro	00000024 _ZTV20FallingBlockRenderer
0023e578 g    DF .text	00000024 _ZN20FallingBlockRendererD1Ev
0023e59c g    DF .text	00000012 _ZN20FallingBlockRendererD0Ev
0023e5b0  w   DF .text	0000001c _ZN11TntRendererD2Ev
005de110 g    DO .data.rel.ro	00000024 _ZTV11TntRenderer
0023e5b0  w   DF .text	0000001c _ZN11TntRendererD1Ev
0023e5cc  w   DF .text	00000020 _ZN11TntRendererD0Ev
0023e5ec g    DF .text	0000002c _ZN20InGamePlayHoloScreenD2Ev
0032d9f8 g    DF .text	00000048 _ZN3mce10TexturePtrD1Ev
00305da4 g    DF .text	00000024 _ZN16InGamePlayScreenD2Ev
005df240 g    DO .data.rel.ro	0000014c _ZTV20InGamePlayHoloScreen
0023e5ec g    DF .text	0000002c _ZN20InGamePlayHoloScreenD1Ev
0023e618 g    DF .text	00000008 _ZThn8_N20InGamePlayHoloScreenD1Ev
0023e620 g    DF .text	00000012 _ZN20InGamePlayHoloScreenD0Ev
0023e634 g    DF .text	00000008 _ZThn8_N20InGamePlayHoloScreenD0Ev
0023e63c g    DF .text	000000d8 _ZN20InGamePlayHoloScreen18handleCommandEventERK12VoiceCommand
002c9f38 g    DF .text	00000006 _ZNK15MinecraftClient16getScreenChooserEv
004478f0 g    DF .text	0000006c _ZN13ScreenChooser17pushRealityScreenEv
002c9b4c g    DF .text	00000008 _ZN15MinecraftClient22setHoloscreenHalfWidthEf
00447884 g    DF .text	0000006c _ZN13ScreenChooser19pushPlaySpaceScreenEv
002cd1e0 g    DF .text	00000004 _ZN15MinecraftClient9getServerEv
0037d4f8 g    DF .text	00000008 _ZN9Minecraft8getLevelEv
002cb948 g    DF .text	0000005a _ZN15MinecraftClient23setHoloviewerPlayerModeEbb
00447818 g    DF .text	0000006c _ZN13ScreenChooser20pushGameViewerScreenEv
00645104 g    DO .bss	00000001 _ZN20InGamePlayHoloScreen11mStereoModeE
0023e714 g    DF .text	0000000c _ZN14InvisibleBlock4clipER11BlockSourceRK8BlockPosRK4Vec3S7_bi
0032a628 g    DF .text	0000001e _ZN9HitResultC1Ev
0023e720 g    DF .text	000002cc _ZN21EnchantingTableEntity4tickER11BlockSource
003d5698 g    DF .text	00000026 _ZN4Vec3C1ERK8BlockPos
005175e8 g    DF .text	00000004 _ZN11BlockSource8getLevelEv
00425e6c g    DF .text	000000b8 _ZN5Level16getNearestPlayerEffff
00000000      DF *UND*	00000000 atan2
0036b058 g    DF .text	0000014c _ZN3Mth6randomEi
0023e9ec g    DF .text	000000ac _ZNK17ProtectionEnchant19getDamageProtectionEiRK18EntityDamageSource
00000000      DF *UND*	00000000 floorf
0023ea98 g    DF .text	0000001c _ZN22GazeGestureVoiceMapperD2Ev
003b83b8 g    DF .text	00000010 _ZN17InputDeviceMapperD2Ev
005df640 g    DO .data.rel.ro	00000028 _ZTV22GazeGestureVoiceMapper
0023ea98 g    DF .text	0000001c _ZN22GazeGestureVoiceMapperD1Ev
0023eab4 g    DF .text	00000012 _ZN22GazeGestureVoiceMapperD0Ev
0023eac8 g    DF .text	00000038 _ZN6EntityD2Ev
0043aca4 g    DF .text	00000032 _ZN17SynchedEntityDataD1Ev
005dc6c8 g    DO .data.rel.ro	000001e0 _ZTV6Entity
0023eac8 g    DF .text	00000038 _ZN6EntityD1Ev
0023eb00 g    DF .text	00000012 _ZN6EntityD0Ev
0023eb14  w   DF .text	0000001c _ZN9ThrownEggD2Ev
005f5e98 g    DO .data.rel.ro	000001f4 _ZTV9Throwable
0023eb14  w   DF .text	0000001c _ZN9ThrownEggD1Ev
0023eb30  w   DF .text	00000020 _ZN9ThrownEggD0Ev
0023eb50  w   DF .text	0000001c _ZN8FireballD2Ev
005de8f8 g    DO .data.rel.ro	000001e4 _ZTV8Fireball
0023eb50  w   DF .text	0000001c _ZN8FireballD1Ev
0023eb6c  w   DF .text	00000020 _ZN8FireballD0Ev
0023eb8c  w   DF .text	0000001c _ZN13LightningBoltD2Ev
005dd9b0 g    DO .data.rel.ro	000001e4 _ZTV13LightningBolt
0023eb8c  w   DF .text	0000001c _ZN13LightningBoltD1Ev
0023eba8  w   DF .text	00000020 _ZN13LightningBoltD0Ev
0023ebc8 g    DF .text	00000056 _ZN6Entity15isInWaterOrRainEv
00517d34 g    DF .text	00000004 _ZN11BlockSource12getDimensionEv
003c52f0 g    DF .text	00000004 _ZNK9Dimension10getWeatherEv
0043dec4 g    DF .text	00000056 _ZNK7Weather11isRainingAtERK8BlockPos
0023ec20 g    DF .text	000000cc _ZN6Entity8isInLavaEv
002b95f8 g    DF .text	00000094 _ZN4AABBC1Effffff
0051b650 g    DF .text	0000015a _ZN11BlockSource16containsMaterialERK4AABB12MaterialType
0023ecec g    DF .text	00000062 _ZN6Entity6isFreeERK4Vec3f
002b9b60 g    DF .text	00000068 _ZNK4AABB4growERK4Vec3
002ba3ac g    DF .text	00000068 _ZNK4AABB9cloneMoveERK4Vec3
0052ee40 g    DF .text	00000338 _ZN11BlockSource10fetchAABBsERK4AABBb
0051b50c g    DF .text	000000ba _ZN11BlockSource17containsAnyLiquidERK4AABB
0023ed50 g    DF .text	0000004c _ZN6Entity6isFreeERK4Vec3
0023ed9c g    DF .text	00000032 _ZN6Entity10intersectsERK4Vec3S2_
002ba624 g    DF .text	00000076 _ZNK4AABB10intersectsERKS_
0023edd0 g    DF .text	00000008 _ZNK6Entity10getNameTagEv
0043bddc g    DF .text	0000002c _ZNK17SynchedEntityData9getStringEh
0023edd8 g    DF .text	000001a8 _ZN6Entity20checkBlockCollisionsERK4AABB
002b968c g    DF .text	0000009c _ZN4AABBC1ERK4Vec3S2_
005184c0 g    DF .text	0000004a _ZN11BlockSource11hasChunksAtERK4AABB
00518844 g    DF .text	00000028 _ZN11BlockSource8getBlockERK8BlockPos
006acec0 g    DO .bss	00000001 _ZN7BlockID3AIRE
0023ef80 g    DF .text	0000007c _ZNK6Entity18getHandleWaterAABBEv
002baa74 g    DF .text	000000cc _ZN4AABB6shrinkERK4Vec3
0023effc g    DF .text	00000074 _ZN6Entity18handleInsidePortalEv
003c64a8 g    DF .text	0000003a _ZN9Direction12getDirectionEff
006ac034 g    DO .bss	00000004 _ZN5Block7mPortalE
0023f070 g    DF .text	0000000c _ZN6Entity15changeDimensionE11DimensionId
00469cdc g    DF .text	000000e4 _ZN5Level21entityChangeDimensionER6Entity11DimensionId
0023f07c g    DF .text	0000002c _ZN11EntityBlock12triggerEventER11BlockSourceRK8BlockPosii
00482cf4 g    DF .text	00000002 _ZN5Block12triggerEventER11BlockSourceRK8BlockPosii
00520324 g    DF .text	00000016 _ZN11BlockSource14getBlockEntityEiii
0023f0a8  w   DF .text	0000004c _ZN14IronGolemModelD2Ev
0051128c g    DF .text	00000024 _ZN9ModelPartD1Ev
002a642c g    DF .text	00000070 _ZN5ModelD2Ev
005e0340 g    DO .data.rel.ro	0000003c _ZTV14IronGolemModel
0023f0a8  w   DF .text	0000004c _ZN14IronGolemModelD1Ev
0023f0f4  w   DF .text	00000038 _ZN10BlazeModelD2Ev
005ded50 g    DO .data.rel.ro	0000003c _ZTV10BlazeModel
0023f0f4  w   DF .text	00000038 _ZN10BlazeModelD1Ev
0023f12c  w   DF .text	0000005c _ZN8BatModelD2Ev
005ded10 g    DO .data.rel.ro	0000003c _ZTV8BatModel
0023f12c  w   DF .text	0000005c _ZN8BatModelD1Ev
0023f188  w   DF .text	00000030 _ZN19EnchantingBookModelD2Ev
005de2a8 g    DO .data.rel.ro	0000003c _ZTV19EnchantingBookModel
0023f188  w   DF .text	00000030 _ZN19EnchantingBookModelD1Ev
0023f1b8 g    DF .text	00000190 _ZN19VillagerZombieModel9setupAnimEffffff
00485228 g    DF .text	00000436 _ZN13HumanoidModel9setupAnimEffffff
0023f348 g    DF .text	0000000e _ZN11DeathScreen17handleButtonPressEs
00358ef4 g    DF .text	00000002 _ZN6Screen17handleButtonPressEs
0023f358 g    DF .text	00000080 _ZN5Touch7THeader6renderEP15MinecraftClientii
002ca034 g    DF .text	00000004 _ZNK15MinecraftClient7getFontEv
0042de74 g    DF .text	0000004a _ZN14ScreenRenderer18drawCenteredStringEP4FontRKSsiiRK5Color
0023f3d8 g    DF .text	00000016 _ZN11LiquidBlock15checkIsPathableER6EntityRK8BlockPosS4_
003808e0 g    DF .text	00000014 _ZN8Material11getMaterialE12MaterialType
0037e728 g    DF .text	0000000e _ZNK8MaterialneERKS_
0023f3f0 g    DF .text	0000000a _ZNK11LiquidBlock13getMobToSpawnER11BlockSourceRK8BlockPos
004ada94 g    DF .text	0000008c _ZNK5Block14getTypeToSpawnER11BlockSource10EntityTypeRK8BlockPos
0023f3fc g    DF .text	00000014 _ZN17TrialUpsellScreen4tickEv
00358ff4 g    DF .text	00000002 _ZN6Screen4tickEv
0023f410 g    DF .text	00000058 _ZN11PlayerModel9setupAnimEffffff
002bcf84 g    DF .text	0000001a _ZN5Model13copyModelPartERK9ModelPartRS0_
0023f468 g    DF .text	0000024c _ZN11PlayerModel9renderGuiEP6Entityfb
0037bce0 g    DF .text	0000001a _ZN3mce23ConstantBufferContainer4syncERNS_13RenderContextE
006469c8 g    DO .bss	00000004 _ZN3mce9SingletonINS_21GlobalConstantBuffersESt10unique_ptrIS1_St14default_deleteIS1_EEE8instanceE
00000000      DF *UND*	00000000 feof
00000000      DF *UND*	00000000 fseek
00000000      DF *UND*	00000000 fread
00000000      DF *UND*	00000000 ldexp
00000000      DF *UND*	00000000 malloc
00000000      DF *UND*	00000000 pow
00000000      DF *UND*	00000000 free
0023f910 g    DF .text	0000001c _ZN10LeverBlock8mayPlaceER11BlockSourceRK8BlockPosa
003803c4 g    DF .text	00000082 _ZN11ButtonBlock11canAttachToER11BlockSourceRK8BlockPosa
005a8a78 g    DO .rodata	00000006 _ZN6Facing15OPPOSITE_FACINGE
0023f92c g    DF .text	00000032 _ZN10LeverBlock8onRemoveER11BlockSourceRK8BlockPos
003c5b6c g    DF .text	00000004 _ZN9Dimension16getCircuitSystemEv
00348334 g    DF .text	00000058 _ZN13CircuitSystem16removeComponentsERK8BlockPos
004880d0 g    DF .text	00000028 _ZN5Block8onRemoveER11BlockSourceRK8BlockPos
0023f960 g    DF .text	00000032 _ZN17UnderworldFeature5applyEP11ChunkSourceR10LevelChunkP11BiomeSourceR6Random
004a8c2c g    DF .text	00000004 _ZNK10LevelChunk11getPositionEv
0023f994 g    DF .text	000001d4 _ZN17UnderworldFeature10addFeatureER10LevelChunkP11BiomeSourceR6Randomii
004a803c g    DF .text	00000006 _ZN10LevelChunk12getRawBlocksEv
00508d74 g    DF .text	000000a8 _ZNK11PerlinNoise8getValueERK4Vec3
0023fb68 g    DF .text	0000003a _ZN19DisabledOptionsPane14setupPositionsEv
003c42ac g    DF .text	00000006 _ZN5Label11setCenteredEb
0049da54 g    DF .text	00000048 _ZN9Semaphore6notifyEv
0023fbdc  w   DF .text	00000024 _ZN18TextureTessellatorD2Ev
004f8f40 g    DF .text	00000010 _ZN13MemoryTrackerD2Ev
005de3e8 g    DO .data.rel.ro	00000014 _ZTV18TextureTessellator
0023fbdc  w   DF .text	00000024 _ZN18TextureTessellatorD1Ev
0023fc00  w   DF .text	0000002c _ZN17UnderworldFeatureD2Ev
00508c80 g    DF .text	00000010 _ZN11PerlinNoiseD1Ev
004f97c8 g    DF .text	00000010 _ZN12LargeFeatureD2Ev
005e0328 g    DO .data.rel.ro	00000018 _ZTV17UnderworldFeature
0023fc00  w   DF .text	0000002c _ZN17UnderworldFeatureD1Ev
0023fc2c  w   DF .text	0000002c _ZN15FarlandsFeatureD2Ev
005e0148 g    DO .data.rel.ro	00000018 _ZTV15FarlandsFeature
0023fc2c  w   DF .text	0000002c _ZN15FarlandsFeatureD1Ev
0023fc58  w   DF .text	0000001c _ZN17ProtectionEnchantD2Ev
004ffe64 g    DF .text	00000054 _ZN7EnchantD2Ev
005e0178 g    DO .data.rel.ro	00000038 _ZTV17ProtectionEnchant
0023fc58  w   DF .text	0000001c _ZN17ProtectionEnchantD1Ev
0023fc74  w   DF .text	00000020 _ZN17ProtectionEnchantD0Ev
0023fc94  w   DF .text	0000001c _ZN11SwimEnchantD2Ev
005de768 g    DO .data.rel.ro	00000038 _ZTV11SwimEnchant
0023fc94  w   DF .text	0000001c _ZN11SwimEnchantD1Ev
0023fcb0  w   DF .text	00000020 _ZN11SwimEnchantD0Ev
0023fcd0  w   DF .text	0000001c _ZN15StoneBeachBiomeD2Ev
0048f890 g    DF .text	000000b0 _ZN5BiomeD2Ev
005dc420  w   DO .data.rel.ro	00000060 _ZTV15StoneBeachBiome
0023fcd0  w   DF .text	0000001c _ZN15StoneBeachBiomeD1Ev
0023fcec  w   DF .text	00000020 _ZN15StoneBeachBiomeD0Ev
0023fd0c  w   DF .text	0000001c _ZN9HellBiomeD2Ev
005dc2d8  w   DO .data.rel.ro	00000060 _ZTV9HellBiome
0023fd0c  w   DF .text	0000001c _ZN9HellBiomeD1Ev
0023fd28  w   DF .text	00000020 _ZN9HellBiomeD0Ev
0023fd48  w   DF .text	0000001c _ZN17GridItemComponentD2Ev
0030b19c g    DF .text	00000044 _ZN11UIComponentD2Ev
005dc1a0  w   DO .data.rel.ro	00000014 _ZTV17GridItemComponent
0023fd48  w   DF .text	0000001c _ZN17GridItemComponentD1Ev
0023fd64  w   DF .text	00000020 _ZN17GridItemComponentD0Ev
0023fd84  w   DF .text	0000001c _ZN12CreativeModeD2Ev
002a4dcc g    DF .text	00000010 _ZN8GameModeD2Ev
005dc280  w   DO .data.rel.ro	00000058 _ZTV12CreativeMode
0023fd84  w   DF .text	0000001c _ZN12CreativeModeD1Ev
0023fda0  w   DF .text	00000020 _ZN12CreativeModeD0Ev
0023fdc0  w   DF .text	00000024 _ZN14BiomeInitLayerD2Ev
003b2388 g    DF .text	00000094 _ZN5LayerD2Ev
005de748 g    DO .data.rel.ro	0000001c _ZTV14BiomeInitLayer
0023fdc0  w   DF .text	00000024 _ZN14BiomeInitLayerD1Ev
0023fde4  w   DF .text	0000001c _ZN12WaterTextureD2Ev
0035ab10 g    DF .text	00000024 _ZN14TickingTextureD2Ev
005de030 g    DO .data.rel.ro	00000018 _ZTV12WaterTexture
0023fde4  w   DF .text	0000001c _ZN12WaterTextureD1Ev
0023fe00  w   DF .text	00000020 _ZN12WaterTextureD0Ev
0023fe20 g    DF .text	0000002c _ZN9SlabBlock21getPlacementDataValueER3MobRK8BlockPosaRK4Vec3i
0023fe4c g    DF .text	00000010 _ZN5Touch15StartMenuScreen15handleBackEventEb
0023fe5c g    DF .text	00000018 _ZN14WorkbenchBlock3useER6PlayerRK8BlockPos
0023fe74 g    DF .text	00000028 _ZN6Entity14onLightningHitEv
0057347c g    DF .text	00000000 __aeabi_idiv
0023ff8c  w   DF .text	00000026 _ZN12RakDataInput9readBytesEPvi
00545bb2 g    DF .text	000000c4 _ZN6RakNet9BitStream8ReadBitsEPhjb
0023ffb4 g    DF .text	00000044 _ZNK6Ocelot7canMateERK6Animal
00420d48 g    DF .text	0000000e _ZNK6Animal8isInLoveEv
0023fff8 g    DF .text	0000001e _ZNK6Entity10isImmobileEv
00240018 g    DF .text	00000038 _ZN6Ocelot8setOwnerE14EntityUniqueID
0048917c g    DF .text	00000046 _ZN13TamableAnimal8setOwnerE14EntityUniqueID
0050c040 g    DF .text	0000007a _ZN12GoalSelector10removeGoalEP4Goal
00240050 g    DF .text	0000001a _ZN11InBedScreen15handleBackEventEb
002cb7b0 g    DF .text	00000006 _ZN15MinecraftClient14getLocalPlayerEv
0024006c g    DF .text	00000052 _ZNK11LiquidBlock16shouldRenderFaceER11BlockSourceRK8BlockPosaRK4AABB
0051a230 g    DF .text	0000000e _ZN11BlockSource11getMaterialERK8BlockPos
0037e720 g    DF .text	00000008 _ZNK8MaterialeqERKS_
004ae39c g    DF .text	00000118 _ZNK5Block16shouldRenderFaceER11BlockSourceRK8BlockPosaRK4AABB
002400c0 g    DF .text	00000034 _ZN3Mob8getSpeedEv
002400f4 g    DF .text	0000004c _ZN3Mob12dropAllArmorEv
00240140 g    DF .text	0000005c _ZN3Mob13canBeAffectedERK17MobEffectInstance
006aa958 g    DO .bss	00000004 _ZN9MobEffect12REGENERATIONE
006aa934 g    DO .bss	00000004 _ZN9MobEffect6POISONE
0024019c g    DF .text	0000002a _ZN3Mob15onEffectUpdatedERK17MobEffectInstance
002401c8 g    DF .text	00000024 _ZN12DripParticle21getParticleLightColorEf
00305e6c g    DF .text	0000018a _ZN8Particle21getParticleLightColorEf
002401ec g    DF .text	00000036 _ZN11DeathScreen27_controllerDirectionChangedEi14StickDirection
00240224 g    DF .text	00000032 _ZN17TrialUpsellScreen27_controllerDirectionChangedEi14StickDirection
00240258 g    DF .text	0000002e _ZN6Entity9playSoundERKSsff
00426384 g    DF .text	00000072 _ZN5Level9playSoundEP6EntityRKSsff
00240288 g    DF .text	0000004c _ZN11LiquidBlock7getAABBER11BlockSourceRK8BlockPosR4AABBibi
002b9764 g    DF .text	00000098 _ZN4AABB3setERK4Vec3S2_
002ba864 g    DF .text	00000062 _ZN4AABB4moveERK4Vec3
006473ac g    DO .bss	0000001c _ZN4AABB5EMPTYE
0068a500 g    DO .bss	0000000c _ZN4Vec34ZEROE
0068a4f4 g    DO .bss	0000000c _ZN4Vec33ONEE
006450a8 g    DO .bss	00000004 stbi_png_partial
005733d0 g    DF .text	00000000 __aeabi_uidiv
00000000      DF *UND*	00000000 _Znwj
00241618 g    DF .text	000000b4 _ZN10GuiElement6renderEP15MinecraftClientii
0036d2ac g    DF .text	0000010c _ZN14NinePatchLayer4drawER11Tessellatorff
006473c8 g    DO .bss	000000dc _ZN11Tessellator8instanceE
002416cc g    DF .text	00000100 _ZN6Entity4pushERS_b
002417cc g    DF .text	00000168 _ZN6Entity8rideTickEv
00241934 g    DF .text	0000001e _ZN3Mob8rideTickEv
00241954 g    DF .text	00000038 _ZN16SkullBlockEntity9onChangedER11BlockSource
00518b3c g    DF .text	00000074 _ZN11BlockSource15getBlockAndDataERK8BlockPos
0051bb38 g    DF .text	00000178 _ZN11BlockSource15setBlockAndDataERK8BlockPos9FullBlocki
0024198c g    DF .text	00000050 _ZN11BlockEntity4tickER11BlockSource
0051e280 g    DF .text	00000056 _ZN11BlockSource22fireBlockEntityChangedER11BlockEntity
002419dc g    DF .text	0000007c _ZNK9SandBlock12getDustColorEh
006aedf4 g    DO .bss	00000010 _ZN5Color3NILE
00241a58 g    DF .text	00000028 _ZN6Entity9setOnFireEi
00241a80 g    DF .text	00000074 _ZN3Mob14_playStepSoundERK8BlockPosi
006ac098 g    DO .bss	00000004 _ZN5Block7mLadderE
00241af4 g    DF .text	0000001a _ZN11InBedScreen14_buttonClickedER6Button
00241b10 g    DF .text	0000005e _ZN11DeathScreen14_buttonClickedER6Button
0044656c g    DF .text	00000030 _ZN13ScreenChooser9popScreenER14AbstractScreeni
002ca7f4 g    DF .text	00000042 _ZN15MinecraftClient9leaveGameEb
00241b70 g    DF .text	00000080 _ZN17TrialUpsellScreen14_buttonClickedER6Button
002cb438 g    DF .text	00000006 _ZNK15MinecraftClient12getGameStoreEv
003d7d18 g    DF .text	0000000c _ZNK9GameStore7isTrialEv
003e46b0 g    DF .text	00000032 _ZN9GameStore12purchaseGameESt8functionIFv14PurchaseResultEE
00000000      DF *UND*	00000000 __stack_chk_fail
00000000      DO *UND*	00000000 __stack_chk_guard
00241bf0 g    DF .text	00000014 _ZN17TrialUpsellScreen15handleBackEventEb
00241c04 g    DF .text	0000003a _ZN21PackedScrollContainer14pointerPressedEP15MinecraftClientii
00241c40 g    DF .text	0000001a _ZNK23FurnaceScreenController13_isStillValidEv
0042c360 g    DF .text	0000002e _ZN20MinecraftScreenModel13isPlayerValidEv
0051e0a0 g    DF .text	00000078 _ZN11FurnaceMenu14isFurnaceValidEv
00241c5c  w   DF .text	00000040 _ZNSt14_Function_base13_Base_managerISt5_BindIFSt7_Mem_fnIM23FurnaceScreenControllerFv8TakeTypebEEPS3_S4_bEEE10_M_managerERSt9_Any_dataRKSC_St18_Manager_operation
00241c9c g    DF .text	00000058 _ZN9RailBlock11updateStateER11BlockSourceRK8BlockPosiii
00533b00 g    DF .text	00000058 _ZN13BaseRailBlock4RailC1ER11BlockSourceRK8BlockPos
0051878c g    DF .text	00000072 _ZN13BaseRailBlock4Rail25countPotentialConnectionsEv
00534328 g    DF .text	00000054 _ZN13BaseRailBlock9updateDirER11BlockSourceRK8BlockPosb
00241cf4  w   DF .text	00000040 _ZNSt14_Function_base13_Base_managerISt5_BindIFSt7_Mem_fnIM23FurnaceScreenControllerFv12ItemLocationiEEPS3_S4_iEEE10_M_managerERSt9_Any_dataRKSC_St18_Manager_operation
00241d34 g    DF .text	00000074 _ZN16PaintingRendererD2Ev
00437950 g    DF .text	0000001c _ZN3mce4MeshD1Ev
004857bc g    DF .text	00000044 _ZN19AppPlatformListenerD2Ev
005e0380 g    DO .data.rel.ro	00000050 _ZTV16PaintingRenderer
00241d34 g    DF .text	00000074 _ZN16PaintingRendererD1Ev
00241da8 g    DF .text	00000008 _ZThn128_N16PaintingRendererD1Ev
00241db0 g    DF .text	00000012 _ZN16PaintingRendererD0Ev
00241dc4 g    DF .text	00000008 _ZThn128_N16PaintingRendererD0Ev
00241dcc  w   DF .text	0000001c _ZNSt19_Sp_counted_deleterIP12ItemInstanceNSt12__shared_ptrIS0_LN9__gnu_cxx12_Lock_policyE2EE8_DeleterISaIS0_EEES7_LS4_2EE10_M_disposeEv
00241de8  w   DF .text	00000016 _ZNSt19_Sp_counted_deleterIPN5Touch7TButtonENSt12__shared_ptrIS1_LN9__gnu_cxx12_Lock_policyE2EE8_DeleterISaIS1_EEES8_LS5_2EE10_M_disposeEv
00241e00  w   DF .text	00000016 _ZNSt19_Sp_counted_deleterIP19ImageWithBackgroundNSt12__shared_ptrIS0_LN9__gnu_cxx12_Lock_policyE2EE8_DeleterISaIS0_EEES7_LS4_2EE10_M_disposeEv
00241e18  w   DF .text	00000016 _ZNSt19_Sp_counted_deleterIP5LabelNSt12__shared_ptrIS0_LN9__gnu_cxx12_Lock_policyE2EE8_DeleterISaIS0_EEES7_LS4_2EE10_M_disposeEv
00241e30 g    DF .text	00000110 _ZN12DripParticle4initERK4Vec3S2_iR14ParticleEngine
00498d58 g    DF .text	00000020 _ZN22TextureUVCoordinateSetC1Effffffi11TextureFile
00241f40  w   DF .text	00000028 _ZNSt17_Function_handlerIFvvESt5_BindIFSt7_Mem_fnIM23FurnaceScreenControllerFv12ItemLocationiEEPS3_S4_iEEE9_M_invokeERKSt9_Any_data
00241f68  w   DF .text	00000028 _ZNSt17_Function_handlerIFvvESt5_BindIFSt7_Mem_fnIM23FurnaceScreenControllerFv8TakeTypebEEPS3_S4_bEEE9_M_invokeERKSt9_Any_data
00241f90  w   DF .text	00000034 _ZNK9DataItem2IsE5cloneEv
005dc4c8  w   DO .data.rel.ro	00000018 _ZTV9DataItem2IsE
00241fc4  w   DF .text	00000034 _ZNK9DataItem2IfE5cloneEv
005dc4b0  w   DO .data.rel.ro	00000018 _ZTV9DataItem2IfE
00241ff8  w   DF .text	00000034 _ZNK9DataItem2IaE5cloneEv
005dc498  w   DO .data.rel.ro	00000018 _ZTV9DataItem2IaE
0024202c  w   DF .text	00000034 _ZNK9DataItem2IiE5cloneEv
005dc480  w   DO .data.rel.ro	00000018 _ZTV9DataItem2IiE
00242060  w   DF .text	00000044 _ZNK9DataItem2ISsE5cloneEv
005dc4e0  w   DO .data.rel.ro	00000018 _ZTV9DataItem2ISsE
002420a4  w   DF .text	0000002c _ZN14BiomeInitLayerD0Ev
002420d0  w   DF .text	0000002c _ZN18TextureTessellatorD0Ev
002420fc  w   DF .text	00000030 _ZN17UnderworldFeatureD0Ev
0024212c  w   DF .text	00000030 _ZN15FarlandsFeatureD0Ev
0024215c  w   DF .text	00000074 _ZN19NetherBridgeFeatureD0Ev
005de400 g    DO .data.rel.ro	00000028 _ZTV19NetherBridgeFeature
005e4220 g    DO .data.rel.ro	00000028 _ZTV16StructureFeature
002421d0 g    DF .text	0000002a _ZN12AvoidMobGoal4stopEv
00427058 g    DF .text	000000dc _ZN5Level26unregisterTemporaryPointerER8_TickPtr
002421fc g    DF .text	00000028 _ZN16LookAtPlayerGoal4stopEv
00242228 g    DF .text	0000020c _ZN3Mob6lookAtEP6Entityff
005068e4 g    DF .text	00000012 _ZN15EntityClassTree5isMobERK6Entity
00000000      DF *UND*	00000000 fmodf
00242438  w   DF .text	00000044 _ZN8TempEPtrI6EntityED2Ev
005dc188  w   DO .data.rel.ro	00000014 _ZTV8TempEPtrI6EntityE
00242438  w   DF .text	00000044 _ZN8TempEPtrI6EntityED1Ev
0024247c g    DF .text	0000002a _ZN9SwellGoal4stopEv
002424a8  w   DF .text	00000044 _ZN8TempEPtrI3MobED2Ev
005dc170  w   DO .data.rel.ro	00000014 _ZTV8TempEPtrI3MobE
002424a8  w   DF .text	00000044 _ZN8TempEPtrI3MobED1Ev
002424ec  w   DF .text	00000040 _ZN25InventoryFoilItemRendererD2Ev
0030c770 g    DF .text	00000090 _ZN21InventoryItemRendererD2Ev
005dd060 g    DO .data.rel.ro	00000040 _ZTV25InventoryFoilItemRenderer
005efbb0 g    DO .data.rel.ro	00000014 _ZTV19EntityShaderManager
002424ec  w   DF .text	00000040 _ZN25InventoryFoilItemRendererD1Ev
0024252c  w   DF .text	00000008 _ZThn32_N25InventoryFoilItemRendererD1Ev
00242534  w   DF .text	0000004c _ZN8TempEPtrI6EntityED0Ev
00242580 g    DF .text	0000003c _ZN6Entity17setNameTagVisibleEb
0043b088 g    DF .text	00000008 _ZN17SynchedEntityData4_getEh
002425bc g    DF .text	0000005c _ZN16LookAtPlayerGoalD2Ev
005dd890 g    DO .data.rel.ro	0000002c _ZTV16LookAtPlayerGoal
002425bc g    DF .text	0000005c _ZN16LookAtPlayerGoalD1Ev
00242618 g    DF .text	00000012 _ZN16LookAtPlayerGoalD0Ev
0024262c g    DF .text	0000001c _ZN13LookAtMobGoalD2Ev
005dd8c0 g    DO .data.rel.ro	0000002c _ZTV13LookAtMobGoal
0024262c g    DF .text	0000001c _ZN13LookAtMobGoalD1Ev
00242648 g    DF .text	00000012 _ZN13LookAtMobGoalD0Ev
0024265c g    DF .text	0000001c _ZN12InteractGoalD2Ev
005dd8f0 g    DO .data.rel.ro	0000002c _ZTV12InteractGoal
0024265c g    DF .text	0000001c _ZN12InteractGoalD1Ev
00242678 g    DF .text	00000012 _ZN12InteractGoalD0Ev
0024268c  w   DF .text	00000048 _ZN25InventoryFoilItemRendererD0Ev
002426d4  w   DF .text	00000006 _ZThn32_N25InventoryFoilItemRendererD0Ev
002426dc  w   DF .text	0000004c _ZN8TempEPtrI3MobED0Ev
00242728  w   DF .text	0000005c _ZN9SwellGoalD2Ev
005dfc58 g    DO .data.rel.ro	0000002c _ZTV9SwellGoal
00242728  w   DF .text	0000005c _ZN9SwellGoalD1Ev
00242784  w   DF .text	0000006c _ZN19OwnerHurtTargetGoalD2Ev
005dd458 g    DO .data.rel.ro	00000030 _ZTV19OwnerHurtTargetGoal
00242784  w   DF .text	0000006c _ZN19OwnerHurtTargetGoalD1Ev
002427f0  w   DF .text	00000038 _ZN19EnchantingBookModelD0Ev
00242828  w   DF .text	00000070 _ZN19OwnerHurtTargetGoalD0Ev
00242898  w   DF .text	00000064 _ZN9SwellGoalD0Ev
002428fc  w   DF .text	0000003c _ZN10BlazeModelD0Ev
00242938  w   DF .text	00000054 _ZN14IronGolemModelD0Ev
0024298c g    DF .text	000000d8 _ZN11LiquidBlock8getColorER11BlockSourceRK8BlockPos
0051e2fc g    DF .text	00000048 _ZN11BlockSource8getBiomeERK8BlockPos
00242a64 g    DF .text	00000010 _ZNK22MoveThroughVillageGoal15appendDebugInfoERSs
00000000      DF *UND*	00000000 _ZNSs6appendEPKcj
00242a74  w   DF .text	00000010 _ZNK10TargetGoal15appendDebugInfoERSs
00242a84  w   DF .text	00000010 _ZNK27NearestAttackableTargetGoal15appendDebugInfoERSs
00242a94 g    DF .text	00000010 _ZNK12AvoidMobGoal15appendDebugInfoERSs
00242aa4 g    DF .text	00000010 _ZNK16LookAtPlayerGoal15appendDebugInfoERSs
00242ab4 g    DF .text	00000010 _ZNK13LookAtMobGoal15appendDebugInfoERSs
00242ac4 g    DF .text	00000010 _ZNK16RandomStrollGoal15appendDebugInfoERSs
00242ad4 g    DF .text	00000010 _ZNK9SwellGoal15appendDebugInfoERSs
00242ae4 g    DF .text	000000ec _ZN18ItemInHandRendererD2Ev
005de3a8 g    DO .data.rel.ro	00000040 _ZTV18ItemInHandRenderer
00242ae4 g    DF .text	000000ec _ZN18ItemInHandRendererD1Ev
00242bd0 g    DF .text	00000008 _ZThn40_N18ItemInHandRendererD1Ev
00242bd8 g    DF .text	00000012 _ZN18ItemInHandRendererD0Ev
00242bec g    DF .text	00000008 _ZThn40_N18ItemInHandRendererD0Ev
00242bf4 g    DF .text	0000006e _ZN19OwnerHurtTargetGoal5startEv
00480a40 g    DF .text	0000000a _ZN10TargetGoal5startEv
00242c64  w   DF .text	00000048 _ZN17NetherBridgeStartD2Ev
005eb638 g    DO .data.rel.ro	0000001c _ZTV14StructureStart
00242c64  w   DF .text	00000048 _ZN17NetherBridgeStartD1Ev
00242cac  w   DF .text	00000050 _ZN17NetherBridgeStartD0Ev
00242cfc g    DF .text	00000016 _ZN18MerchantRecipeList9createTagEv
003bb0d8 g    DF .text	00000094 _ZN11CompoundTagC1Ev
00242d14  w   DF .text	00000064 _ZN8BatModelD0Ev
00242d78 g    DF .text	00000068 _ZN19HumanoidMobRendererD2Ev
004172f8 g    DF .text	00000034 _ZN11MobRendererD2Ev
005dcc40 g    DO .data.rel.ro	0000004c _ZTV19HumanoidMobRenderer
00242d78 g    DF .text	00000068 _ZN19HumanoidMobRendererD1Ev
00242de0 g    DF .text	00000012 _ZN19HumanoidMobRendererD0Ev
00242df4  w   DF .text	00000068 _ZN14InteractPacket4readEPN6RakNet9BitStreamE
005463c8 g    DF .text	0000003c _ZN6RakNet9BitStream22IsNetworkOrderInternalEv
00546412 g    DF .text	00000016 _ZN6RakNet9BitStream12ReverseBytesEPhS1_j
00242e5c  w   DF .text	00000080 _ZNK14InteractPacket5writeEPN6RakNet9BitStreamE
00242edc  w   DF .text	00000090 _ZNK19SetEntityDataPacket5writeEPN6RakNet9BitStreamE
0043b060 g    DF .text	00000028 _ZN17SynchedEntityData4packERKSt6vectorISt10unique_ptrI8DataItemSt14default_deleteIS2_EESaIS5_EER11IDataOutput
005dc068  w   DO .data.rel.ro	00000030 _ZTV13RakDataOutput
00242f6c g    DF .text	00000060 _ZN6Entity10setNameTagERKSs
00000000      DF *UND*	00000000 _ZNSs6assignERKSs
00000000      DF *UND*	00000000 memcmp
00242fcc  w   DF .text	000000c0 _ZNK19SetEntityLinkPacket5writeEPN6RakNet9BitStreamE
0024308c  w   DF .text	0000007c _ZN19SetEntityDataPacketD2Ev
005dc260  w   DO .data.rel.ro	00000020 _ZTV19SetEntityDataPacket
0024308c  w   DF .text	0000007c _ZN19SetEntityDataPacketD1Ev
00243108  w   DF .text	00000080 _ZN19SetEntityDataPacketD0Ev
00243188  w   DF .text	00000088 _ZN15AddEntityPacketD2Ev
005dc358  w   DO .data.rel.ro	00000020 _ZTV15AddEntityPacket
00243188  w   DF .text	00000088 _ZN15AddEntityPacketD1Ev
00243210  w   DF .text	0000008c _ZN15AddEntityPacketD0Ev
0024329c  w   DF .text	000000b8 _ZN19SetEntityLinkPacket4readEPN6RakNet9BitStreamE
00243354  w   DF .text	00000054 _ZN19VillagerZombieModelD2Ev
005fa8e8 g    DO .data.rel.ro	0000003c _ZTV13HumanoidModel
00243354  w   DF .text	00000054 _ZN19VillagerZombieModelD1Ev
002433a8  w   DF .text	0000005c _ZN19VillagerZombieModelD0Ev
00243404 g    DF .text	00000040 _ZN16PaintingRenderer14onAppSuspendedEv
00243444 g    DF .text	00000008 _ZThn128_N16PaintingRenderer14onAppSuspendedEv
0024344c  w   DF .text	00000032 _ZNSt13unordered_setI8ChunkPosSt4hashIS0_ESt8equal_toIS0_ESaIS0_EED2Ev
0024344c  w   DF .text	00000032 _ZNSt13unordered_setI8ChunkPosSt4hashIS0_ESt8equal_toIS0_ESaIS0_EED1Ev
00243480  w   DF .text	00000094 _ZN11PlayerModelD2Ev
005dc688 g    DO .data.rel.ro	00000040 _ZTV11PlayerModel
00243480  w   DF .text	00000094 _ZN11PlayerModelD1Ev
00243658  w   DF .text	00000098 _ZN11PlayerModelD0Ev
002436f0  w   DF .text	00000188 _ZNK21SetEntityMotionPacket5writeEPN6RakNet9BitStreamE
00243a10  w   DF .text	0000022c _ZNK16MoveEntityPacket5writeEPN6RakNet9BitStreamE
00243c3c g    DF .text	00000046 _ZN18ItemInHandRenderer14onAppSuspendedEv
00243c84 g    DF .text	00000008 _ZThn40_N18ItemInHandRenderer14onAppSuspendedEv
00243c8c  w   DF .text	000000e8 _ZN19SetEntityDataPacket4readEPN6RakNet9BitStreamE
0045fa4c g    DF .text	00000080 _ZN17SynchedEntityData6unpackER10IDataInput
005dc098  w   DO .data.rel.ro	00000034 _ZTV12RakDataInput
00243d74  w   DF .text	0000006c _ZN19NetherBridgeFeatureD2Ev
00243d74  w   DF .text	0000006c _ZN19NetherBridgeFeatureD1Ev
00244288  w   DF .text	00000044 _ZN6MotiveD2Ev
00000000      DF *UND*	00000000 _ZNSs4_Rep10_M_destroyERKSaIcE
00000000      DO *UND*	00000000 _ZNSs4_Rep20_S_empty_rep_storageE
00244288  w   DF .text	00000044 _ZN6MotiveD1Ev
002442cc  w   DF .text	00000044 _ZN5MusicD2Ev
002442cc  w   DF .text	00000044 _ZN5MusicD1Ev
00244310  w   DF .text	00000054 _ZNSt5arrayISsLj6EED2Ev
00244310  w   DF .text	00000054 _ZNSt5arrayISsLj6EED1Ev
00244364  w   DF .text	00000068 _ZNSt6vectorISsSaISsEED2Ev
00244364  w   DF .text	00000068 _ZNSt6vectorISsSaISsEED1Ev
002443cc  w   DF .text	00000064 _ZN9DataItem2ISsED2Ev
002443cc  w   DF .text	00000064 _ZN9DataItem2ISsED1Ev
002444d8  w   DF .text	00000068 _ZNSt6thread10_Impl_baseD2Ev
005dbeb0  w   DO .data.rel.ro	00000014 _ZTVNSt6thread10_Impl_baseE
002444d8  w   DF .text	00000068 _ZNSt6thread10_Impl_baseD1Ev
002445a8  w   DF .text	0000005c _ZN18ServerSkinInfoDataD2Ev
002a4f3c g    DF .text	00000010 _ZN12SkinInfoDataD2Ev
005dd0a0 g    DO .data.rel.ro	00000028 _ZTV18ServerSkinInfoData
002445a8  w   DF .text	0000005c _ZN18ServerSkinInfoDataD1Ev
00244604  w   DF .text	0000005c _ZN21EnchantingTableEntityD2Ev
005df5c8 g    DO .data.rel.ro	0000004c _ZTV21EnchantingTableEntity
00244604  w   DF .text	0000005c _ZN21EnchantingTableEntityD1Ev
00244660  w   DF .text	0000005c _ZN11BlankButtonD2Ev
005dcd48 g    DO .data.rel.ro	00000090 _ZTV6Button
00244660  w   DF .text	0000005c _ZN11BlankButtonD1Ev
002446bc  w   DF .text	0000005c _ZN5Touch7THeaderD2Ev
002446bc  w   DF .text	0000005c _ZN5Touch7THeaderD1Ev
00244718  w   DF .text	0000005c _ZN6ButtonD2Ev
00244718  w   DF .text	0000005c _ZN6ButtonD1Ev
00244774  w   DF .text	00000078 _ZNSt13unordered_mapISs10EntityTypeSt4hashISsESt8equal_toISsESaISt4pairIKSsS0_EEED2Ev
00244774  w   DF .text	00000078 _ZNSt13unordered_mapISs10EntityTypeSt4hashISsESt8equal_toISsESaISt4pairIKSsS0_EEED1Ev
002447ec  w   DF .text	00000074 _ZN6Social18GameConnectionInfoD2Ev
002447ec  w   DF .text	00000074 _ZN6Social18GameConnectionInfoD1Ev
00244860  w   DF .text	00000068 _ZN9DataItem2ISsED0Ev
002448c8  w   DF .text	000003c8 _ZNK15AddEntityPacket5writeEPN6RakNet9BitStreamE
0045f9ec g    DF .text	00000060 _ZNK17SynchedEntityData7packAllEv
00000000      DF *UND*	00000000 realloc
00245988  w   DF .text	0000006c _ZNSt6thread10_Impl_baseD0Ev
002459f4  w   DF .text	0000006c _ZN19DisabledOptionsPaneD2Ev
005e0400 g    DO .data.rel.ro	0000007c _ZTV19DisabledOptionsPane
002459f4  w   DF .text	0000006c _ZN19DisabledOptionsPaneD1Ev
00245a60 g    DF .text	00000078 _ZN11InBedScreenD2Ev
005deae0 g    DO .data.rel.ro	00000114 _ZTV11InBedScreen
00245a60 g    DF .text	00000078 _ZN11InBedScreenD1Ev
00245ad8 g    DF .text	00000008 _ZThn8_N11InBedScreenD1Ev
00245ae0 g    DF .text	00000012 _ZN11InBedScreenD0Ev
00245af4 g    DF .text	00000008 _ZThn8_N11InBedScreenD0Ev
00245b68  w   DF .text	00000064 _ZN21EnchantingTableEntityD0Ev
00245bcc  w   DF .text	00000060 _ZN18ServerSkinInfoDataD0Ev
00245c2c g    DF .text	00000058 _ZN6Ocelot15canInteractWithER6Player
00245c84  w   DF .text	00000060 _ZN6ButtonD0Ev
00245ce4  w   DF .text	00000060 _ZN11BlankButtonD0Ev
00245d44  w   DF .text	00000064 _ZN11LiquidBlockD2Ev
005de468 g    DO .data.rel.ro	0000016c _ZTV11LiquidBlock
00245d44  w   DF .text	00000064 _ZN11LiquidBlockD1Ev
00245da8  w   DF .text	00000060 _ZN5Touch7THeaderD0Ev
00573460 g    DF .text	0000001a __aeabi_uidivmod
00245e08 g    DF .text	0000016c _ZN24MinecraftUIRenderContext14flushMeshBatchER20ComponentRenderBatch
00000000      DF *UND*	00000000 _ZSt11_Hash_bytesPKvjj
00334d3c g    DF .text	000000a8 _ZNK8BatchKeyeqERKS_
0031de80 g    DF .text	00000022 _ZNK20ComponentRenderBatch15getNumInstancesEv
00437cf0 g    DF .text	00000030 _ZNK3mce4Mesh6renderERKNS_11MaterialPtrERKNS_10TexturePtrEjj
0043802c g    DF .text	00000042 _ZNK3mce4Mesh6renderERKNS_11MaterialPtrERKNS_10TexturePtrES6_jj
002b8de8 g    DF .text	00000006 _ZN11Tessellator20voidBeginAndEndCallsEb
002b8c44 g    DF .text	0000008e _ZN11Tessellator3endEPKcb
00437ab4 g    DF .text	0000000c _ZN3mce4MeshaSEOS0_
002460d4  w   DF .text	00000074 _ZN19DisabledOptionsPaneD0Ev
00246258 g    DF .text	00000066 _ZN22GazeGestureVoiceMapper21clearInputDeviceQueueEv
0049a928 g    DF .text	00000090 _ZN16GGVDeviceManager11getGGDeviceEi
00320300 g    DF .text	0000003c _ZN8GGDevice11clearEventsEv
002462c0  w   DF .text	00000188 _ZN20DataBindingComponentD2Ev
005dc408  w   DO .data.rel.ro	00000014 _ZTV20DataBindingComponent
002462c0  w   DF .text	00000188 _ZN20DataBindingComponentD1Ev
00246448  w   DF .text	0000018c _ZN20DataBindingComponentD0Ev
002465d4 g    DF .text	00000064 _ZNK3Tag5printER11PrintStream
00246638  w   DF .text	0000006c _ZN11LiquidBlockD0Ev
002466a4 g    DF .text	00000058 _ZNK16OcelotAttackGoal15appendDebugInfoERSs
005034a8 g    DF .text	0000010c _ZN17AttributeInstanceD1Ev
002468a8 g    DF .text	000000c8 _ZN11DeathScreenD2Ev
005df848 g    DO .data.rel.ro	00000114 _ZTV11DeathScreen
002468a8 g    DF .text	000000c8 _ZN11DeathScreenD1Ev
00246970 g    DF .text	00000008 _ZThn8_N11DeathScreenD1Ev
00246978 g    DF .text	00000012 _ZN11DeathScreenD0Ev
0024698c g    DF .text	00000008 _ZThn8_N11DeathScreenD0Ev
00246994 g    DF .text	00000084 _ZN5Touch7TButtonD2Ev
005dcdd8 g    DO .data.rel.ro	00000090 _ZTVN5Touch7TButtonE
00246994 g    DF .text	00000084 _ZN5Touch7TButtonD1Ev
00246a18 g    DF .text	00000012 _ZN5Touch7TButtonD0Ev
00246a2c  w   DF .text	0000001c _ZN5Touch12HeaderButtonD2Ev
005dcef8 g    DO .data.rel.ro	00000090 _ZTVN5Touch12HeaderButtonE
00246a2c  w   DF .text	0000001c _ZN5Touch12HeaderButtonD1Ev
00246a48  w   DF .text	00000020 _ZN5Touch12HeaderButtonD0Ev
00246a68  w   DF .text	00000098 _ZN13GridComponentD2Ev
005dc0f0  w   DO .data.rel.ro	00000014 _ZTV13GridComponent
00246a68  w   DF .text	00000098 _ZN13GridComponentD1Ev
00246b00 g    DF .text	00000074 _ZN11SkinsButtonD2Ev
005dc618 g    DO .data.rel.ro	00000070 _ZTV11SkinsButton
00246b00 g    DF .text	00000074 _ZN11SkinsButtonD1Ev
00246b74 g    DF .text	00000012 _ZN11SkinsButtonD0Ev
00246b88  w   DF .text	000000a0 _ZN13GridComponentD0Ev
00246c28 g    DF .text	0000006c _ZN6Button6setMsgERKSs
002dd5e0 g    DF .text	00000084 _ZN4I18n3getERKSs
00000000      DF *UND*	00000000 _ZNSs4swapERSs
00246c94 g    DF .text	00000028 _ZN5Touch12HeaderButton6setMsgERKSs
002473d4 g    DF .text	000000bc _ZN16SkullBlockEntity4loadER11CompoundTag
003ec9d8 g    DF .text	0000001a _ZNK11CompoundTag7getByteERKSs
00247490 g    DF .text	000001e4 _ZN5Touch15StartMenuScreenD2Ev
005debf8 g    DO .data.rel.ro	00000114 _ZTVN5Touch15StartMenuScreenE
00247490 g    DF .text	000001e4 _ZN5Touch15StartMenuScreenD1Ev
00247674 g    DF .text	00000008 _ZThn8_N5Touch15StartMenuScreenD1Ev
0024767c g    DF .text	00000012 _ZN5Touch15StartMenuScreenD0Ev
00247690 g    DF .text	00000008 _ZThn8_N5Touch15StartMenuScreenD0Ev
00247698 g    DF .text	00000080 _ZN3Mob16playAmbientSoundEv
00247718 g    DF .text	00000104 _ZN22GazeGestureVoiceMapper10setMappingER15InputEventQueueRK14BindingFactoryRK14ButtonRegistryRK12InputMapping
00372218 g    DF .text	00000074 _ZNK14ButtonRegistry11getButtonIdERKSs
00247a20 g    DF .text	00000148 _ZN11InBedScreen6renderEiif
0045e8a4 g    DF .text	000001d8 _ZN24ControllerButtonRenderer23renderControllerButtonsEiiNS_10ButtonIconERKSs
00360880 g    DF .text	0000011e _ZN6Screen6renderEiif
00247b68 g    DF .text	000001a0 _ZN17TrialUpsellScreenD2Ev
00427548 g    DF .text	000000d0 _ZN5Level14removeListenerER13LevelListener
005dfc88 g    DO .data.rel.ro	0000016c _ZTV17TrialUpsellScreen
00247b68 g    DF .text	000001a0 _ZN17TrialUpsellScreenD1Ev
00247d08 g    DF .text	00000008 _ZThn8_N17TrialUpsellScreenD1Ev
00247d10 g    DF .text	00000008 _ZThn160_N17TrialUpsellScreenD1Ev
00247d18 g    DF .text	00000012 _ZN17TrialUpsellScreenD0Ev
00247d2c g    DF .text	00000008 _ZThn8_N17TrialUpsellScreenD0Ev
00247d34 g    DF .text	00000008 _ZThn160_N17TrialUpsellScreenD0Ev
00247d3c  w   DF .text	000000f4 _ZN16SavedDataStorageD2Ev
005dc218  w   DO .data.rel.ro	00000010 _ZTV16SavedDataStorage
00247d3c  w   DF .text	000000f4 _ZN16SavedDataStorageD1Ev
00247e30  w   DF .text	000000fc _ZN16SavedDataStorageD0Ev
00247f2c g    DF .text	0000020c _ZNK8FloatTag8toStringEv
00000000      DF *UND*	00000000 _ZNSt8ios_baseC2Ev
00000000      DF *UND*	00000000 _ZNSt9basic_iosIcSt11char_traitsIcEE4initEPSt15basic_streambufIcS1_E
00000000      DF *UND*	00000000 _ZNSt6localeC1Ev
00000000      DF *UND*	00000000 _ZNSo9_M_insertIdEERSoT_
00000000      DF *UND*	00000000 _ZNKSt15basic_stringbufIcSt11char_traitsIcESaIcEE3strEv
00000000      DF *UND*	00000000 _ZNSt6localeD1Ev
00000000      DF *UND*	00000000 _ZNSt8ios_baseD2Ev
00000000      DO *UND*	00000000 _ZTVSt9basic_iosIcSt11char_traitsIcEE
00000000      DO *UND*	00000000 _ZTTSt18basic_stringstreamIcSt11char_traitsIcESaIcEE
00000000      DO *UND*	00000000 _ZTVSt18basic_stringstreamIcSt11char_traitsIcESaIcEE
00000000      DO *UND*	00000000 _ZTVSt15basic_streambufIcSt11char_traitsIcEE
00000000      DO *UND*	00000000 _ZTVSt15basic_stringbufIcSt11char_traitsIcESaIcEE
00248138 g    DF .text	000000c4 _ZN21EnchantingTableEntity4loadER11CompoundTag
003ed3d0 g    DF .text	00000014 _ZNK11CompoundTag8containsERKSs
003ed224 g    DF .text	00000028 _ZNK11CompoundTag9getStringERKSs
002481fc g    DF .text	000001d0 _ZNK7Sapling20buildDescriptionNameERK12ItemInstance
00323174 g    DF .text	00000006 _ZNK12ItemInstance11getAuxValueEv
00000000      DF *UND*	00000000 _ZNSs6appendERKSs
00000000      DF *UND*	00000000 __cxa_guard_acquire
00000000      DF *UND*	00000000 __cxa_guard_release
00000000      DF *UND*	00000000 __aeabi_atexit
002483cc g    DF .text	0000019c _ZN18MakeInfiniteScreen6renderEiif
002fb4f8 g    DF .text	000000a8 _ZN4Font10drawShadowERKSsffRK5Color
00372a90 g    DF .text	00000110 _ZNK6Screen17renderProgressBarEf
00248568  w   DF .text	00000108 _ZN10BottleItemD2Ev
005fa5f8 g    DO .data.rel.ro	000000c8 _ZTV4Item
00248568  w   DF .text	00000108 _ZN10BottleItemD1Ev
00248670  w   DF .text	00000108 _ZN12MinecartItemD2Ev
00248670  w   DF .text	00000108 _ZN12MinecartItemD1Ev
00248778  w   DF .text	00000108 _ZN17FlintAndSteelItemD2Ev
00248778  w   DF .text	00000108 _ZN17FlintAndSteelItemD1Ev
00248880 g    DF .text	000001f0 _ZN25InventoryFoilItemRenderer6updateER15MinecraftClientRSt10shared_ptrI9UIControlE
003b8d94 g    DF .text	00000042 _ZN9UIControl14getPropertyBagEv
004a6b90 g    DF .text	0000000c _ZNK4Json5Value6isNullEv
003781ac g    DF .text	00000006 _ZN21CustomRenderComponent18getInvalidCustomIdEv
004a6c18 g    DF .text	00000010 _ZNK4Json5Value8isObjectEv
004a6b68 g    DF .text	00000006 _ZNK4Json5ValueixERKSs
004a6bac g    DF .text	0000000a _ZNK4Json5Value5isIntEv
004a6430 g    DF .text	00000044 _ZNK4Json5Value5asIntEi
00322f58 g    DF .text	00000016 _ZNK12ItemInstance6isFoilEv
00248a70  w   DF .text	00000108 _ZN17HangingEntityItemD2Ev
00248a70  w   DF .text	00000108 _ZN17HangingEntityItemD1Ev
00248b78 g    DF .text	000000bc _ZNK9SandBlock20buildDescriptionNameERK12ItemInstance
00248c38 g    DF .text	00000254 _ZN17TrialUpsellScreen6renderEiif
00248e90  w   DF .text	00000110 _ZN12MinecartItemD0Ev
00248fa0  w   DF .text	00000110 _ZN17HangingEntityItemD0Ev
002490b0  w   DF .text	00000110 _ZN17FlintAndSteelItemD0Ev
002491c0  w   DF .text	00000110 _ZN10BottleItemD0Ev
002492d0 g    DF .text	00000098 _ZN18FurnaceBlockEntityD2Ev
00303458 g    DF .text	00000010 _ZN9ContainerD2Ev
005de828 g    DO .data.rel.ro	000000a4 _ZTV18FurnaceBlockEntity
002492d0 g    DF .text	00000098 _ZN18FurnaceBlockEntityD1Ev
00249368 g    DF .text	00000008 _ZThn92_N18FurnaceBlockEntityD1Ev
00249370 g    DF .text	00000012 _ZN18FurnaceBlockEntityD0Ev
00249384 g    DF .text	00000008 _ZThn92_N18FurnaceBlockEntityD0Ev
0024938c g    DF .text	000000d0 _ZNK3Tag6equalsERKS_
0024945c  w   DF .text	00000004 _ZNK6EndTag6equalsERK3Tag
00249460 g    DF .text	00000024 _ZNK8FloatTag6equalsERK3Tag
00249484 g    DF .text	0000017c _ZN11BlockEntity4saveER11CompoundTag
0040695c g    DF .text	0000002c _ZN11CompoundTag9putStringERKSsS1_
00405ba4 g    DF .text	0000002c _ZN11CompoundTag6putIntERKSsi
006450b0 g    DO .bss	00000018 _ZN11BlockEntity10classIdMapE
00249600 g    DF .text	000000cc _ZN16SkullBlockEntity4saveER11CompoundTag
004059ac g    DF .text	0000002c _ZN11CompoundTag7putByteERKSsc
002496cc g    DF .text	00000078 _ZN21EnchantingTableEntity4saveER11CompoundTag
00249744 g    DF .text	00000098 _ZN18ServerSkinInfoData10updateSkinEbRKSs
00000000      DF *UND*	00000000 strcmp
00000000      DF *UND*	00000000 strncmp
00000000      DF *UND*	00000000 strtol
00249a68  w   DF .text	000001f8 _ZN9MobEffectD2Ev
005f5e18 g    DO .data.rel.ro	00000024 _ZTV9MobEffect
00249a68  w   DF .text	000001f8 _ZN9MobEffectD1Ev
00249c60  w   DF .text	00000012 _ZN9MobEffectD0Ev
00249c74  w   DF .text	0000001c _ZN21AttackDamageMobEffectD2Ev
005df7e0 g    DO .data.rel.ro	00000024 _ZTV21AttackDamageMobEffect
00249c74  w   DF .text	0000001c _ZN21AttackDamageMobEffectD1Ev
00249c90  w   DF .text	00000020 _ZN21AttackDamageMobEffectD0Ev
00249cb0 g    DF .text	0000015c _ZN16LookAtPlayerGoal5startEv
00428d04 g    DF .text	00000006 _ZN5Level9getRandomEv
0064305c  w   DO .data	00000008 _ZZN6Random13genrand_int32EvE5mag01
00249e0c  w   DF .text	00000164 _ZNK10OakFeature5placeER11BlockSourceRK8BlockPosR6Random
0037ead8 g    DF .text	00000378 _ZNK11TreeFeature5placeER11BlockSourceRK8BlockPosR6Randomi
00249f70 g    DF .text	000001b0 _ZN3Mob16resolveDeathLootEi
0024a120 g    DF .text	00000148 _ZN13LightGemBlock16getResourceCountER6Randomii
0024a268 g    DF .text	00000228 _ZN3Mob9knockbackEP6Entityiff
006468d4 g    DO .bss	00000014 _ZN16SharedAttributes20KNOCKBACK_RESISTANCEE
0024b468 g    DF .text	00000280 _ZN18FurnaceBlockEntity4saveER11CompoundTag
00405b78 g    DF .text	0000002c _ZN11CompoundTag8putShortERKSss
0032080c g    DF .text	00000074 _ZN7ListTagC1Ev
004058c8 g    DF .text	00000030 _ZN11CompoundTag3putERKSsSt10unique_ptrI3TagSt14default_deleteIS3_EE
00324454 g    DF .text	00000188 _ZN12ItemInstance4saveEv
0033be60 g    DF .text	0000003a _ZN7ListTag3addESt10unique_ptrI3TagSt14default_deleteIS1_EE
0024b6e8 g    DF .text	00000994 _ZN20InGamePlayHoloScreen15_renderLSRPlaneEv
0037a55c g    DF .text	00000062 _ZN3mce25WorldConstantsHolographic14getMatrixPatchER6Matrix
0037a4ec g    DF .text	0000006e _ZN3mce25WorldConstantsHolographic14setMatrixPatchERK6Matrix
0053285c g    DF .text	0000001e _ZN11MatrixStack12pushIdentityEv
002ca764 g    DF .text	00000006 _ZNK15MinecraftClient12getHoloInputEv
004ad488 g    DF .text	00000034 _ZN5Block25getTextureUVCoordinateSetERKSsi
002d1a14 g    DF .text	0000003a _ZN11Tessellator5beginEN3mce13PrimitiveModeEi
002d28f4 g    DF .text	0000001a _ZN11Tessellator8vertexUVERK4Vec3ff
002b8bbc g    DF .text	00000088 _ZN11Tessellator12beginIndicesEi
002b89d8 g    DF .text	00000020 _ZN11Tessellator4quadEjjjj
006aed00 g    DO .bss	00000040 _ZN6Matrix8IDENTITYE
006aed50 g    DO .bss	00000010 _ZN11MatrixStack5WorldE
003819c4 g    DF .text	0000000c _ZN3mce19RenderMaterialGroup11getMaterialERKSs
002d28e8 g    DF .text	0000000c _ZN11Tessellator6vertexERK4Vec3
00649830 g    DO .bss	0000003c _ZN3mce19RenderMaterialGroup10switchableE
002b8984 g    DF .text	00000054 _ZN11Tessellator8triangleEjjj
00527e10 g    DF .text	0000000c _ZN11MatrixStack3RefD1Ev
0024c07c g    DF .text	000002e0 _ZN18FurnaceBlockEntity4loadER11CompoundTag
003ed2dc g    DF .text	00000078 _ZNK11CompoundTag7getListERKSs
003208a4 g    DF .text	0000000a _ZNK7ListTag4sizeEv
003208b0 g    DF .text	00000018 _ZNK7ListTag3getEi
003248f8 g    DF .text	0000003a _ZN12ItemInstance7fromTagERK11CompoundTag
003ecba4 g    DF .text	0000001c _ZNK11CompoundTag8getShortERKSs
0024c35c g    DF .text	00000204 _ZN22GazeGestureVoiceMapper4tickER15InputEventQueue
0049a9b8 g    DF .text	00000010 _ZN16GGVDeviceManager14getVoiceDeviceEv
003202cc g    DF .text	00000034 _ZN8GGDevice14getNextGGEventEv
004ca95c g    DF .text	0000003e _ZN15InputEventQueue13enqueueButtonEs11ButtonState
004caa18 g    DF .text	00000044 _ZN15InputEventQueue13enqueueVectorEsfff
004b6874 g    DF .text	00000032 _ZN11VoiceDevice17getNextVoiceEventEv
004caa5c g    DF .text	00000072 _ZN15InputEventQueue28enqueueButtonPressAndReleaseEs
004b69cc g    DF .text	0000003c _ZN11VoiceDevice11clearEventsEv
0024da30 g    DF .text	000000bc _ZN5Touch15StartMenuScreen14_buttonClickedER6Button
0046da64 g    DF .text	000000a0 _ZN13ScreenChooser18pushLanguageScreenEv
00476c68 g    DF .text	00000140 _ZN13ScreenChooser19pushLocalPlayScreenEbb
00447f68 g    DF .text	00000058 _ZN13ScreenChooser20pushRemotePlayScreenEv
00447438 g    DF .text	0000007c _ZN13ScreenChooser17pushOptionsScreenEbbRKSs
00251e48  w   DF .text	000000a6 _ZN6Matrix9translateERK4Vec3
00251ef0 g    DF .text	000000e0 _ZN11PlayerModel6renderER6Entityffffff
0049b418 g    DF .text	00000234 _ZN13HumanoidModel6renderER6Entityffffff
00531adc g    DF .text	0000001e _ZN11MatrixStack4pushEv
00251fd0  w   DF .text	000001b4 _ZN6Matrix6rotateEfRK4Vec3
00000000      DF *UND*	00000000 cosf
00000000      DF *UND*	00000000 sinf
00252184  w   DF .text	0000009e _ZN6Matrix5scaleERK4Vec3
00252228 g    DF .text	00000284 _ZN11DeathScreen6renderEiif
0042e498 g    DF .text	00000038 _ZN14ScreenRenderer12fillGradientEiiiiRK5ColorS2_
002524b0  w   DF .text	0000012c _ZN6Random13genrand_int32Ev
002525dc g    DF .text	0000004c _ZN6Ocelot16_getAmbientSoundEv
00252628 g    DF .text	000001b8 _ZNK8OreBlock17getExperienceDropER6Random
002527e0 g    DF .text	0000006e _ZN3Mob13dropDeathLootEi
00252850 g    DF .text	000002ec _ZN3Mob13getVoicePitchEv
00252b40 g    DF .text	00000240 _ZN3Mob11dropAllGearEi
00252d80 g    DF .text	0000027c _ZN10HeavyBlock11animateTickER11BlockSourceRK8BlockPosR6Random
00426538 g    DF .text	00000056 _ZN5Level11addParticleE12ParticleTypeRK4Vec3S3_i
00253000 g    DF .text	0000030c _ZN25HugeExplosionSeedParticle10normalTickEv
00325210 g    DF .text	00000218 _ZN8Particle4moveERK4Vec3
00648100 g    DO .bss	000009d0 _ZN8Particle12sharedRandomE
00253310 g    DF .text	000000d2 _ZN19NetherBridgeFeature14isFeatureChunkEP11BiomeSourceR6RandomRK8ChunkPos
00000000      DF *UND*	00000000 pthread_mutex_lock
00000000      DF *UND*	00000000 pthread_mutex_unlock
00000000      DF *UND*	00000000 _ZSt20__throw_system_errori
002533e8 g    DF .text	00000300 _ZN6Entity15pushOutOfBlocksERK4Vec3
006ac688 g    DO .bss	00000100 _ZN5Block6mSolidE
002536e8 g    DF .text	00000088 _ZN8OreBlock16getResourceCountER6Randomii
00253770 g    DF .text	00000490 _ZN6Entity15checkFallDamageEfb
0051f6cc g    DF .text	0000001a _ZN11BlockSource15getBlockAndDataEiii
0051ec74 g    DF .text	0000001a _ZN11BlockSource10getBlockIDEiii
006ac04c g    DO .bss	00000004 _ZN5Block6mFenceE
00253c00 g    DF .text	00000318 _ZNK12MelonFeature5placeER11BlockSourceRK8BlockPosR6Random
006ac008 g    DO .bss	00000004 _ZN5Block6mMelonE
006ac17c g    DO .bss	00000004 _ZN5Block6mGrassE
00253f18 g    DF .text	00000168 _ZNK11ClayFeature5placeER11BlockSourceRK8BlockPosR6Random
006ac178 g    DO .bss	00000004 _ZN5Block5mDirtE
006ac054 g    DO .bss	00000004 _ZN5Block5mClayE
00254080 g    DF .text	00000300 _ZN6Entity19doWaterSplashEffectEv
00254380 g    DF .text	0000071c _ZN11LiquidBlock11animateTickER11BlockSourceRK8BlockPosR6Random
002b95d8 g    DF .text	0000001e _ZN4AABBC1Ev
00520418 g    DF .text	00000016 _ZN11BlockSource18isTopSolidBlockingEiii
003803b4 g    DF .text	00000004 _ZNK8Material15getBlocksMotionEv
004263f8 g    DF .text	00000046 _ZN5Level9playSoundERK4Vec3RKSsff
00254aa0 g    DF .text	00000014 _ZN11SkinsButton13isCurrentSkinER14SkinRepository
00378e30 g    DF .text	00000020 _ZN14SkinRepository15getSelectedSkinEv
00510334 g    DF .text	00000008 _ZNK4SkineqERKS_
00254ab4 g    DF .text	00000030 _ZN11SkinsButton16isSelectedButtonER15MinecraftClient
002cc078 g    DF .text	00000012 _ZN15MinecraftClient13useControllerEv
002cb40c g    DF .text	00000006 _ZNK15MinecraftClient17getSkinRepositoryEv
00254ae4 g    DF .text	00000130 _ZN11SkinsButton11getSkinNameER15MinecraftClient
00510254 g    DF .text	0000000c _ZNK4Skin12isCustomSkinEv
0050fec4 g    DF .text	0000000a _ZNK4Skin6isSlimEv
00510260 g    DF .text	00000004 _ZNK4Skin11getSkinPackEv
003d7850 g    DF .text	00000004 _ZNK8SkinPack7getNameEv
00254c14 g    DF .text	00000250 _ZN11SkinsButton17renderPlayerModelEP15MinecraftClientf
002c2a94 g    DF .text	00000004 _ZN12SkinInfoData6isSlimEv
003311b4 g    DF .text	00000010 _ZN22EntityRenderDispatcher11getInstanceEv
00331370 g    DF .text	00000008 _ZN22EntityRenderDispatcher11getRendererE16EntityRendererId
00379bf0 g    DF .text	00000024 _ZN14PlayerRenderer9renderGuiER12SkinInfoDatafb
006aed60 g    DO .bss	00000010 _ZN11MatrixStack10ProjectionE
006aed40 g    DO .bss	00000010 _ZN11MatrixStack4ViewE
00254e64 g    DF .text	00000028 _ZN11SkinsButton18getTextWidthOffsetER15MinecraftClient
00254e8c g    DF .text	00000340 _ZN11SkinsButton18renderInternalAreaEP15MinecraftClient
003761b8 g    DF .text	00000010 _ZN3Gui11getGuiScaleEv
0049a8c0 g    DF .text	0000002c _ZN3mce17EnableScissorTestC1Eiiii
004b0c48 g    DF .text	0000004c _Z8getTimeSv
00000000      DF *UND*	00000000 fmod
00510318 g    DF .text	0000001a _ZNK4Skin13premiumLockedEv
0049a8ec g    DF .text	00000014 _ZN3mce17EnableScissorTestD1Ev
006aa9b0 g    DO .bss	0000000c _ZN14ScreenRenderer12touchGui2TexE
002551cc g    DF .text	00000062 _ZN11SkinsButton10drawBorderEiiiiiRK5Color
00255230 g    DF .text	00000084 _ZN11SkinsButton6renderEP15MinecraftClientii
006aee74 g    DO .bss	00000010 _ZN5Color4GREYE
002552b4 g    DF .text	00000004 _ZN7SeasonsC2ER9Dimension
002552b4 g    DF .text	00000004 _ZN7SeasonsC1ER9Dimension
002552b8 g    DF .text	00000002 _ZN7SeasonsD2Ev
002552b8 g    DF .text	00000002 _ZN7SeasonsD1Ev
002552bc g    DF .text	000001c0 _ZN7Seasons4tickEv
0043ddf8 g    DF .text	0000001a _ZNK7Weather12getRainLevelEf
00497e34 g    DF .text	00000006 _ZN5Biome8getBiomeEi
0043dea4 g    DF .text	0000001e _ZNK7Weather9isRainingEv
005a8e90 g    DO .rodata	00000004 _ZN5Biome19RAIN_TEMP_THRESHOLDE
0025547c g    DF .text	0000016c _ZN7Seasons11postProcessER10LevelChunkR11BlockSourceRK8ChunkPos
004a8080 g    DF .text	0000000a _ZNK10LevelChunk19getTerrainSaveTicksEv
004a41e0 g    DF .text	00000014 _ZN8BlockPosC1ERK8ChunkPosi
00372c58 g    DF .text	0000001a _ZN13ChunkBlockPosC1ERK8BlockPos
004ac564 g    DF .text	0000009c _ZN10LevelChunk18getTopRainBlockPosERK13ChunkBlockPos
004a8860 g    DF .text	00000016 _ZNK10LevelChunk8getBiomeERK13ChunkBlockPos
0043e0d8 g    DF .text	00000248 _ZN7Weather15canPlaceTopSnowER11BlockSourceRK8BlockPosbbPi
00497df0 g    DF .text	00000016 _ZNK5Biome25getSnowAccumulationLayersEv
0043e470 g    DF .text	0000018c _ZN7Weather21rebuildTopSnowToDepthER11BlockSourceRK8BlockPosi
004a808c g    DF .text	0000000a _ZN10LevelChunk23restoreTerrainSaveTicksEi
002555e8 g    DF .text	0000000a _ZNK5Token7getTextERKSs
002555f4 g    DF .text	00000010 _ZNK5Token14compatibleWithENS_4TypeE
00255604 g    DF .text	0000001c _ZNK5Token8getValueEi
00255620 g    DF .text	00000022 _ZNK5Token7getBoolEb
00255644 g    DF .text	00000234 _ZN5Token12_parseRandomEv
00000000      DF *UND*	00000000 _ZNSs12_M_leak_hardEv
00000000      DF *UND*	00000000 _ZNKSs4findEcj
00000000      DF *UND*	00000000 _ZNSsC1ERKSsjj
00255878 g    DF .text	00000040 _ZN5TokenC1ERKSs
004b0d80 g    DF .text	00000028 _Z9getTimeMsv
00000000      DF *UND*	00000000 _ZSt20__throw_out_of_rangePKc
00255878 g    DF .text	00000040 _ZN5TokenC2ERKSs
00000000      DF *UND*	00000000 sscanf
002558b8 g    DF .text	00000010 _ZN18PerlinSimplexNoiseD2Ev
002558b8 g    DF .text	00000010 _ZN18PerlinSimplexNoiseD1Ev
002558c8 g    DF .text	00000074 _ZNK18PerlinSimplexNoise8getValueEff
002cf4e8 g    DF .text	00000290 _ZNK12SimplexNoise9_getValueERK4Vec2
0025593c g    DF .text	0000008c _ZNK18PerlinSimplexNoise8getValueERK4Vec3
002cf778 g    DF .text	00000454 _ZNK12SimplexNoise9_getValueERK4Vec3
002559c8 g    DF .text	000000a4 _ZNK18PerlinSimplexNoise9getRegionEPfRK4Vec3iiiS3_
002cfc68 g    DF .text	000000de _ZNK12SimplexNoise4_addEPfRK4Vec3iiiS3_f
00255a6c g    DF .text	0000003c _ZNK18PerlinSimplexNoise9getRegionEPfRK4Vec2iiS3_f
00255aa8 g    DF .text	00000020 _ZN13InventoryMenuC2EP9Container
003bd55c g    DF .text	00000024 _ZN17BaseContainerMenuC2E13ContainerType
00255aa8 g    DF .text	00000020 _ZN13InventoryMenuC1EP9Container
00255ac8 g    DF .text	0000005c _ZN21PackedScrollContainerC2Ebb
0031ffe8 g    DF .text	00000038 _ZN19GuiElementContainerC2Ebbiiii
00255ac8 g    DF .text	0000005c _ZN21PackedScrollContainerC1Ebb
00255b24 g    DF .text	00000068 _ZN21PackedScrollContainer12scrollViewToERK10GuiElement
0036a924 g    DF .text	00000032 _ZN13ScrollingPane34calculateAndSetCurrentMouseScrollTEv
00369c94 g    DF .text	00000042 _ZN13ScrollingPane10scrollUpByEf
00369cd8 g    DF .text	00000042 _ZN13ScrollingPane12scrollDownByEf
00255b8c g    DF .text	00000004 _ZN21PackedScrollContainer18setSelectedBoxSizeEi
00255b90 g    DF .text	00000008 _ZN21PackedScrollContainer18setScrollBarOffsetEfff
00255b98 g    DF .text	00000004 _ZN21PackedScrollContainer22addFlagToScrollingPaneEi
00255b9c g    DF .text	0000000a _ZN21PackedScrollContainer16handleMouseInputEf
0036c350 g    DF .text	00000006 _ZN13ScrollingPane16handleMouseInputEf
00255ba8 g    DF .text	00000006 _ZN21PackedScrollContainer20setWindowResizedFlagEb
00255bb0 g    DF .text	00000004 _ZNK16SkullBlockEntity12getSkullTypeEv
00255bb4 g    DF .text	00000004 _ZN16SkullBlockEntity12setSkullTypeENS_9SkullTypeE
00255bb8 g    DF .text	00000004 _ZN16SkullBlockEntity12setSkullTypeEi
00255bbc g    DF .text	00000004 _ZNK16SkullBlockEntity11getRotationEv
00255bc0 g    DF .text	00000004 _ZN16SkullBlockEntity11setRotationEi
00255bc4 g    DF .text	0000002c _ZN20BaseCircuitComponentC2Ev
00255bc4 g    DF .text	0000002c _ZN20BaseCircuitComponentC1Ev
00255bf0 g    DF .text	00000026 _ZN20BaseCircuitComponent14hasDirectPowerEv
00255c18 g    DF .text	00000040 _ZN20BaseCircuitComponent14calculateValueER13CircuitSystem
00255c58  w   DF .text	00000082 _ZNK11BatchHasherclERK8BatchKey
00255cdc g    DF .text	00000038 _ZN25InventoryFoilItemRendererC2Ev
00326c90 g    DF .text	0000003c _ZN21InventoryItemRendererC2Ev
003dd260 g    DF .text	0000011c _ZN19EntityShaderManagerC2Ev
00498d78 g    DF .text	00000016 _ZN22TextureUVCoordinateSetC1Ev
00255cdc g    DF .text	00000038 _ZN25InventoryFoilItemRendererC1Ev
00255d14 g    DF .text	00000088 _ZNK13PurchaseCache13signPurchasesERKSt6vectorI12PurchaseInfoSaIS1_EE
005468c8 g    DF .text	00000014 _ZN5CSHA1C1Ev
0054781c g    DF .text	0000007a _ZN5CSHA16UpdateEPKhm
00547910 g    DF .text	000000d8 _ZN5CSHA15FinalEv
005479e8 g    DF .text	000000d4 _ZNK5CSHA112ReportHash_aEPcNS_11REPORT_TYPEE
005468dc g    DF .text	0000000c _ZN5CSHA1D1Ev
00255d9c g    DF .text	00000264 _ZN13PurchaseCache4saveEv
00000000      DF *UND*	00000000 _ZNSt13basic_filebufIcSt11char_traitsIcEEC1Ev
00000000      DF *UND*	00000000 _ZNSt13basic_filebufIcSt11char_traitsIcEE4openEPKcSt13_Ios_Openmode
00000000      DF *UND*	00000000 _ZNSt9basic_iosIcSt11char_traitsIcEE5clearESt12_Ios_Iostate
00000000      DF *UND*	00000000 _ZSt16__ostream_insertIcSt11char_traitsIcEERSt13basic_ostreamIT_T0_ES6_PKS3_i
00000000      DF *UND*	00000000 _ZNSo3putEc
00000000      DF *UND*	00000000 _ZNSo5flushEv
00000000      DF *UND*	00000000 _ZNKSt5ctypeIcE13_M_widen_initEv
00000000      DF *UND*	00000000 _ZNSt13basic_filebufIcSt11char_traitsIcEE5closeEv
00000000      DF *UND*	00000000 _ZNSt12__basic_fileIcED1Ev
00000000      DF *UND*	00000000 _ZSt16__throw_bad_castv
00000000      DO *UND*	00000000 _ZTTSt14basic_ofstreamIcSt11char_traitsIcEE
00000000      DO *UND*	00000000 _ZTVSt14basic_ofstreamIcSt11char_traitsIcEE
00000000      DO *UND*	00000000 _ZTVSt13basic_filebufIcSt11char_traitsIcEE
00256000 g    DF .text	00000028 _ZN18ServerSkinInfoDataC2Eb
002c2a80 g    DF .text	00000014 _ZN12SkinInfoDataC2Eb
00256000 g    DF .text	00000028 _ZN18ServerSkinInfoDataC1Eb
00256028 g    DF .text	00000028 _ZN9ThrownEggC2ER11BlockSource
0042a9c8 g    DF .text	00000060 _ZN9ThrowableC2ER11BlockSource
0042afb8 g    DF .text	00000104 _ZN9Throwable5shootEv
005dd0c8 g    DO .data.rel.ro	000001f4 _ZTV9ThrownEgg
00256028 g    DF .text	00000028 _ZN9ThrownEggC1ER11BlockSource
00256050 g    DF .text	00000028 _ZN9ThrownEggC2ER3Mob
0042aa28 g    DF .text	0000016c _ZN9ThrowableC2ER3Mob
00256050 g    DF .text	00000028 _ZN9ThrownEggC1ER3Mob
00256078 g    DF .text	00000028 _ZN9ThrownEggC2ER11BlockSourceRK4Vec3
0042ab94 g    DF .text	00000074 _ZN9ThrowableC2ER11BlockSourceRK4Vec3
00256078 g    DF .text	00000028 _ZN9ThrownEggC1ER11BlockSourceRK4Vec3
002560a0 g    DF .text	00000024 _ZN10BottleItemC2ERKSsi
004a0c74 g    DF .text	00000080 _ZN4ItemC2ERKSss
004803f0 g    DF .text	00000004 _ZN4Item15setMaxStackSizeEh
005dd2f8 g    DO .data.rel.ro	000000c8 _ZTV10BottleItem
002560a0 g    DF .text	00000024 _ZN10BottleItemC1ERKSsi
002560c4 g    DF .text	00000010 _ZN18BackgroundRendererC2Ev
005dd3c0 g    DO .data.rel.ro	0000002c _ZTV18BackgroundRenderer
002560c4 g    DF .text	00000010 _ZN18BackgroundRendererC1Ev
002560d4 g    DF .text	0000005c _ZN24MinecraftUIRenderContext18PersistentMeshItemC2ESt6vectorIN3mce10TexturePtrESaIS3_EERKSsj
0043a9c4 g    DF .text	00000026 _ZN3mce11MaterialPtrC1ERNS_19RenderMaterialGroupERKSs
00437820 g    DF .text	0000002a _ZN3mce4MeshC1Ev
0064986c g    DO .bss	0000003c _ZN3mce19RenderMaterialGroup6commonE
002560d4 g    DF .text	0000005c _ZN24MinecraftUIRenderContext18PersistentMeshItemC1ESt6vectorIN3mce10TexturePtrESaIS3_EERKSsj
00256130 g    DF .text	000000e4 _ZN24MinecraftUIRenderContextC2ER15MinecraftClient
002ca030 g    DF .text	00000004 _ZNK15MinecraftClient11getTexturesEv
00000000      DF *UND*	00000000 _ZNKSt8__detail20_Prime_rehash_policy11_M_next_bktEj
00000000      DF *UND*	00000000 _ZSt17__throw_bad_allocv
005dd3f0 g    DO .data.rel.ro	00000064 _ZTV24MinecraftUIRenderContext
00256130 g    DF .text	000000e4 _ZN24MinecraftUIRenderContextC1ER15MinecraftClient
00256214 g    DF .text	000002e0 _ZN24MinecraftUIRenderContext11_renderTextEv
002e5d6c g    DF .text	00000174 _ZN4Font12drawWordWrapERKSsfffRK5Colorbb
005258bc g    DF .text	0000001a _ZNK13RectangleArea7centerXEv
005258d8 g    DF .text	0000001a _ZNK13RectangleArea7centerYEv
002fb0e4 g    DF .text	00000014 _ZN4Font4drawERKSsffRK5Color
002564f4 g    DF .text	00000004 _ZN24MinecraftUIRenderContext14flushTextBatchEv
002564f8 g    DF .text	00000150 _ZN24MinecraftUIRenderContext13_renderImagesEv
002d1a50 g    DF .text	00000008 _ZN11Tessellator5beginEi
0031200c g    DF .text	00000004 _ZNK3mce7Texture14getDescriptionEv
002d21ac g    DF .text	00000024 _ZN11Tessellator8vertexUVEfffff
002b8d24 g    DF .text	00000060 _ZN11Tessellator4drawERKN3mce11MaterialPtrERKNS0_10TexturePtrE
00256648 g    DF .text	00000004 _ZN24MinecraftUIRenderContext15flushImageBatchEv
0025664c g    DF .text	0000005c _ZN19OwnerHurtTargetGoalC2EP4Wolf
004a5a94 g    DF .text	0000003c _ZN10TargetGoalC2ER13PathfinderMobbbf
003ba250 g    DF .text	00000004 _ZN4Goal23setRequiredControlFlagsEi
0025664c g    DF .text	0000005c _ZN19OwnerHurtTargetGoalC1EP4Wolf
002566a8 g    DF .text	0000000c _ZN6Ocelot10getCatTypeEv
002566b4 g    DF .text	0000006c _ZN6Ocelot21addAdditionalSaveDataER11CompoundTag
004a06e8 g    DF .text	000000cc _ZN13TamableAnimal21addAdditionalSaveDataER11CompoundTag
00256720 g    DF .text	0000003c _ZN6Ocelot10setCatTypeE7CatType
0025675c g    DF .text	00000042 _ZN6Ocelot20postProcessOffspringER6AnimalS1_
004a0694 g    DF .text	00000016 _ZNK13TamableAnimal10getOwnerIdEv
002567a0 g    DF .text	0000006c _ZN6Ocelot22readAdditionalSaveDataERK11CompoundTag
0049484c g    DF .text	0000014c _ZN13TamableAnimal22readAdditionalSaveDataERK11CompoundTag
0025680c g    DF .text	00000038 _ZN10MobFactory11_categoryIDE10EntityType
00256844 g    DF .text	000000c2 _ZN10MobFactoryC2ER5Level
00256844 g    DF .text	000000c2 _ZN10MobFactoryC1ER5Level
00256908 g    DF .text	00000004 _ZN10MobFactory15setSpawnEnemiesEb
0025690c g    DF .text	00000004 _ZN10MobFactory15getSpawnEnemiesEv
00256910 g    DF .text	00000094 _ZNK10MobFactory12popCapAllowsER6PlayerRK14MobSpawnerDatab
005062f4 g    DF .text	00000072 _ZN15EntityClassTree14getMobCategoryE10EntityType
0064561c g    DO .bss	00000018 _ZN10MobFactory18SPAWN_RING_OFFSETSE
002569a8 g    DF .text	00000148 _ZN10MobFactory6addMobESt10unique_ptrI3MobSt14default_deleteIS1_EEbb
00511b04 g    DF .text	00000006 _ZN7Monster10setNightlyEv
00427ab0 g    DF .text	0000005c _ZN5Level20broadcastEntityEventEP6Entity11EntityEvent
003ba120 g    DF .text	00000044 _ZN9AgableMob6setAgeEi
00256af0 g    DF .text	000000b8 _ZN10MobFactory17isSpawnPositionOkE10EntityTypeR11BlockSourceRK8BlockPos
006ac168 g    DO .bss	00000004 _ZN5Block8mBedrockE
006ac028 g    DO .bss	00000004 _ZN5Block17mInvisibleBedrockE
00256ba8 g    DF .text	000003d8 _Z18EntityTypeToString10EntityType
00506714 g    DF .text	00000012 _ZN15EntityClassTree8isOfTypeE10EntityTypeS0_
00256f80 g    DF .text	00000078 _ZNK16AvoidMobTypeGoal15appendDebugInfoERSs
00256ff8 g    DF .text	00000078 _ZNK12InteractGoal15appendDebugInfoERSs
00257070 g    DF .text	000000e0 _ZN10MobFactory12GetMobNameIDE10EntityType
00000000      DF *UND*	00000000 _ZNSs6insertEjPKcj
00257150 g    DF .text	0000043c _ZN3mce11MathUtility21interpolateTransformsERN3glm6detail7tmat4x4IfEERKS4_S7_f
0025758c g    DF .text	00000040 _ZN6Config13setScreenSizeEiif
002575cc g    DF .text	00000004 _ZNK6Config8getWidthEv
002575d0 g    DF .text	00000004 _ZNK6Config9getHeightEv
002575d4 g    DF .text	00000004 _ZNK6Config11getGuiScaleEv
002575d8 g    DF .text	00000004 _ZNK6Config14getInvGuiScaleEv
002575dc g    DF .text	00000004 _ZNK6Config11getGuiWidthEv
002575e0 g    DF .text	00000004 _ZNK6Config12getGuiHeightEv
002575e4 g    DF .text	0000000e _ZNK6Config12getDpadScaleEv
002575f4 g    DF .text	0000000c _ZN6Config12setDpadScaleER9PixelCalc
00257600 g    DF .text	00000004 _ZNK6Config18getMinecraftClientEv
00257604 g    DF .text	00000004 _ZN6Config18setMinecraftClientEP15MinecraftClient
00257608 g    DF .text	00000004 _ZNK6Config10getOptionsEv
0025760c g    DF .text	00000004 _ZN6Config10setOptionsER7Options
00257610 g    DF .text	00000058 _Z12createConfigP15MinecraftClient
004245fc g    DF .text	0000000c _ZN9PixelCalcC1Ef
002cc148 g    DF .text	00000006 _ZN15MinecraftClient12getDpadScaleEv
002ca320 g    DF .text	00000006 _ZN15MinecraftClient10getOptionsEv
00257668 g    DF .text	00000040 _ZN12WaterTextureC2ERK22TextureUVCoordinateSeti
0037bd10 g    DF .text	0000006c _ZN14TickingTextureC2ERK22TextureUVCoordinateSeti
00257668 g    DF .text	00000040 _ZN12WaterTextureC1ERK22TextureUVCoordinateSeti
002576a8 g    DF .text	000000b4 _ZN12WaterTexture12_renderWaterEi
0025775c g    DF .text	00000190 _ZN12WaterTexture4tickEv
00643054  w   DO .data	00000004 _ZZN3Mth10fastRandomEvE1y
00643058  w   DO .data	00000004 _ZZN3Mth10fastRandomEvE1x
00643050  w   DO .data	00000004 _ZZN3Mth10fastRandomEvE1z
0064304c  w   DO .data	00000004 _ZZN3Mth10fastRandomEvE1w
002578ec g    DF .text	0000002c _ZN17FlintAndSteelItemC2ERKSsi
0048047c g    DF .text	00000004 _ZN4Item12setMaxDamageEi
005de048 g    DO .data.rel.ro	000000c8 _ZTV17FlintAndSteelItem
002578ec g    DF .text	0000002c _ZN17FlintAndSteelItemC1ERKSsi
00257918 g    DF .text	00000024 _ZN11TntRendererC2ER12TextureGroupR16BlockTessellator
0049d140 g    DF .text	00000238 _ZN14EntityRendererC2ER12TextureGroupb
00257918 g    DF .text	00000024 _ZN11TntRendererC1ER12TextureGroupR16BlockTessellator
0025793c g    DF .text	00000078 _ZN15WoodButtonBlockC2ERKSsi
003809c0 g    DF .text	00000050 _ZN11ButtonBlockC2ERKSsiSsb
005de138 g    DO .data.rel.ro	00000170 _ZTV15WoodButtonBlock
0025793c g    DF .text	00000078 _ZN15WoodButtonBlockC1ERKSsi
002579b4 g    DF .text	0000000a _ZN18MinecraftTelemetry4tickEv
002e40d8 g    DF .text	00000004 _ZN6Social9Telemetry16TelemetryManager4tickEv
002579c0 g    DF .text	0000000a _ZN18MinecraftTelemetry10sendEventsEv
002e40a0 g    DF .text	00000036 _ZN6Social9Telemetry16TelemetryManager10sendEventsEv
002579cc g    DF .text	00000004 _ZNK18MinecraftTelemetry19getTelemetryManagerEv
002579d0 g    DF .text	00000020 _ZN17GridItemComponentC2ERSt10shared_ptrI9UIControlE
00320028 g    DF .text	00000038 _ZN11UIComponentC2ERSt10shared_ptrI9UIControlE
002579d0 g    DF .text	00000020 _ZN17GridItemComponentC1ERSt10shared_ptrI9UIControlE
002579f0 g    DF .text	00000004 _ZNK17GridItemComponent15getGridPositionEv
002579f4 g    DF .text	0000000a _ZN17GridItemComponent15setGridPositionERKN3glm6detail5tvec2IiEE
00257a00 g    DF .text	0000000e _ZN3mce22StencilFaceDescriptionC2Ev
00257a00 g    DF .text	0000000e _ZN3mce22StencilFaceDescriptionC1Ev
00257a10 g    DF .text	00000028 _ZNK3mce22StencilFaceDescriptioneqERKS0_
00257a38 g    DF .text	000002e4 _ZN19EnchantingBookModelC2Ev
002bcc20 g    DF .text	00000324 _ZN5ModelC2Ev
00510fec g    DF .text	00000060 _ZN9ModelPartC1Eiiii
005114ec g    DF .text	00000078 _ZN9ModelPartaSEOS_
00536858 g    DF .text	0000004e _ZN9ModelPart6addBoxERK4Vec3S2_f
002e4308 g    DF .text	00000030 _ZN5Model13registerPartsER9ModelPart
00257a38 g    DF .text	000002e4 _ZN19EnchantingBookModelC1Ev
00257d1c g    DF .text	00000036 _ZN19EnchantingBookModel6renderEffffff
00257d54 g    DF .text	0000001c _ZN19EnchantingBookModel6renderER6Entityffffff
00257d70 g    DF .text	0000006e _ZN7Frustum14normalizePlaneEPA16_fi
00257de0 g    DF .text	0000002a _ZN17ScreenViewAdapter22getScreenPosFromClientERK4Vec2
00257e0c g    DF .text	0000001a _ZN4Util8getPointEfff
00257e28 g    DF .text	00000028 _ZN4Util9getBezierEffff
00257e50 g    DF .text	0000027c _ZN18ItemInHandRenderer14_initMaterialsER15MinecraftClient
0043a990 g    DF .text	00000004 _ZN3mce11MaterialPtraSEOS0_
0032e114 g    DF .text	00000004 _ZN3mce10TexturePtraSEOS0_
002580cc g    DF .text	000000c4 _ZN18ItemInHandRenderer4tickEv
0050cd18 g    DF .text	00000012 _ZNK6Player15getSelectedItemEv
00324208 g    DF .text	00000026 _ZNK12ItemInstance7matchesEPKS_
00322710 g    DF .text	00000014 _ZN12ItemInstanceC1Ev
00258190 g    DF .text	00000086 _ZN18ItemInHandRenderer13_renderObjectER10RenderCallb
00437bc0 g    DF .text	00000130 _ZNK3mce4Mesh6renderERKNS_11MaterialPtrEjj
00258218 g    DF .text	00000002 _ZN18ItemInHandRenderer10renderFoilER6EntityP10RenderCallf
0025821c g    DF .text	00000006 _ZN18ItemInHandRenderer10itemPlacedEv
00258224 g    DF .text	00000006 _ZN18ItemInHandRenderer8itemUsedEv
0025822c g    DF .text	0000019c _ZN18ItemInHandRenderer9renderTexEfRK22TextureUVCoordinateSetRKN3mce10TexturePtrE
003738b8 g    DF .text	00000004 _ZN3mce13RenderContext23clearDepthStencilBufferEv
0042e6fc g    DF .text	00000014 _ZNK14ScreenRenderer11getMaterialENS_14ScreenMaterialE
002583c8 g    DF .text	0000011c _ZN18ItemInHandRenderer10renderFireEf
004ae38c g    DF .text	00000004 _ZN5Block13getTextureUVsEv
0042e654 g    DF .text	000000a8 _ZN14ScreenRenderer7blitRawERKN3mce10TexturePtrEfffffffff
002584e4 g    DF .text	00000060 _ZN18ItemInHandRenderer11_getFrameIDEP3MobR12ItemInstance
0032311c g    DF .text	0000000c _ZNK12ItemInstance15isStackedByDataEv
00258544 g    DF .text	00000164 _ZN18ItemInHandRenderer12setPlayerBobEP11LocalPlayerfR6Matrix
00505818 g    DF .text	00000006 _ZNK11LocalPlayer6getBobEv
00505820 g    DF .text	00000006 _ZNK11LocalPlayer9getBobOldEv
002586a8 g    DF .text	00000004 _ZN19NetherBridgeFeature16getBridgeEnemiesEv
002586ac g    DF .text	0000003a _ZN19NetherBridgeFeature20clearCachedBuildingsEv
002586e8 g    DF .text	00000030 _ZN17NetherBridgeStartC2Ev
005dc1b8  w   DO .data.rel.ro	0000001c _ZTV17NetherBridgeStart
002586e8 g    DF .text	00000030 _ZN17NetherBridgeStartC1Ev
00258718 g    DF .text	00000010 _ZN3TagC2ERKSs
00258718 g    DF .text	00000010 _ZN3TagC1ERKSs
00258728  w   DF .text	00000078 _ZNK6EndTag4copyEv
005dc1d8  w   DO .data.rel.ro	0000003c _ZTV6EndTag
002587a0 g    DF .text	0000003a _ZN3Tag13writeNamedTagERKSsRKS_R11IDataOutput
002587dc  w   DF .text	00000130 _ZNK21BlockEntityDataPacket5writeEPN6RakNet9BitStreamE
0025890c g    DF .text	000000f0 _ZN3Tag10getTagNameEc
002589fc g    DF .text	00000200 _ZNK3Tag5printERKSsR11PrintStream
00000000      DF *UND*	00000000 _ZNSs7reserveEj
00258bfc g    DF .text	0000007e _ZNK3mce13BlendStateOGL14bindBlendStateERNS_13RenderContextEb
00000000      DF *UND*	00000000 glDisable
00000000      DF *UND*	00000000 glBlendFunc
002cf05c g    DF .text	0000000a _ZNK3mce14BlendStateBase14bindBlendStateERNS_13RenderContextE
00000000      DF *UND*	00000000 glEnable
00000000      DF *UND*	00000000 glColorMask
00258c7c g    DF .text	00000084 _ZN3mce13BlendStateOGL16createBlendStateERNS_13RenderContextERKNS_21BlendStateDescriptionE
002cf054 g    DF .text	00000006 _ZN3mce14BlendStateBase16createBlendStateERNS_13RenderContextERKNS_21BlendStateDescriptionE
00258d00 g    DF .text	00000148 _ZN10GuiMessageC2ERKSsS1_ib
00000000      DF *UND*	00000000 _ZNSs6appendEjc
00258d00 g    DF .text	00000148 _ZN10GuiMessageC1ERKSsS1_ib
00258e48 g    DF .text	0000000e _ZNK10GuiMessage9isCommandEv
00258e58 g    DF .text	00000004 _ZNK10GuiMessage9getStringEv
00258e5c g    DF .text	00000004 _ZNK10GuiMessage7getUserEv
00258e60 g    DF .text	00000004 _ZNK10GuiMessage10getMessageEv
00258e64 g    DF .text	00000004 _ZNK10GuiMessage14isForceVisibleEv
00258e68 g    DF .text	00000004 _ZNK10GuiMessage8getTicksEv
00258e6c g    DF .text	00000004 _ZNK10GuiMessage11getMaxTicksEv
00258e70 g    DF .text	00000008 _ZN10GuiMessage13incrementTickEv
00258e78 g    DF .text	00000006 _ZNK19HumanoidMobRenderer8getModelEv
00258e80 g    DF .text	00000088 _ZN16SavedDataStorageC2EP12LevelStorage
00258e80 g    DF .text	00000088 _ZN16SavedDataStorageC1EP12LevelStorage
00258f08 g    DF .text	000000f0 _ZN16SavedDataStorage5_saveEP9SavedData
00406f84 g    DF .text	00000030 _ZN11CompoundTag11putCompoundERKSsSt10unique_ptrIS_St14default_deleteIS_EE
00496928 g    DF .text	000000c8 _ZN12LevelStorage8saveDataERKSsRK11CompoundTag
00258ff8 g    DF .text	0000002a _ZN16SavedDataStorage4saveEv
00259024 g    DF .text	00000004 _ZN3mce9SwapChain15createSwapChainERNS_12RenderDeviceERKNS_20SwapChainDescriptionE
0042b728 g    DF .text	00000004 _ZN3mce12SwapChainOGL15createSwapChainERNS_12RenderDeviceERKNS_20SwapChainDescriptionE
00259028 g    DF .text	00000004 _ZN3mce9SwapChain13resizeBuffersERNS_12RenderDeviceEjj
0042b72c g    DF .text	0000000e _ZN3mce12SwapChainOGL13resizeBuffersERNS_12RenderDeviceEjj
0025902c g    DF .text	00000004 _ZN3mce9SwapChain16releaseSwapChainEv
0042b73c g    DF .text	00000002 _ZN3mce12SwapChainOGL16releaseSwapChainEv
00259030 g    DF .text	00000004 _ZN3mce9SwapChain7presentEv
0042b740 g    DF .text	00000004 _ZN3mce12SwapChainOGL7presentEv
00259034 g    DF .text	00000168 _ZN16BlockTessellatorC2ER11TessellatorP11BlockSource
006acef8 g    DO .bss	0000000c _ZN8BlockPos4ZEROE
00259034 g    DF .text	00000168 _ZN16BlockTessellatorC1ER11TessellatorP11BlockSource
0025919c g    DF .text	00000004 _ZN16BlockTessellator9setRegionER11BlockSource
002591a0 g    DF .text	00000004 _ZNK16BlockTessellator9getRegionEv
002591a4 g    DF .text	0000000a _ZN16BlockTessellator14setForceOpaqueEb
002591b0 g    DF .text	00000004 _ZN16BlockTessellator14setRenderLayerEi
002591b4 g    DF .text	00000004 _ZNK16BlockTessellator14getRenderLayerEv
002591b8 g    DF .text	00000084 _ZN16BlockTessellator14_getBlockColorERK8BlockPosR5Block
0025923c g    DF .text	00000480 _ZN16BlockTessellator15tessellateTorchER5BlockRK4Vec3ff
006ac06c g    DO .bss	00000004 _ZN5Block17mLitRedStoneTorchE
006ac070 g    DO .bss	00000004 _ZN5Block19mUnlitRedStoneTorchE
002596bc g    DF .text	0000027c _ZN16BlockTessellator22tessellateCrossTextureERK22TextureUVCoordinateSetRK4Vec3bR5Blockf
006ac110 g    DO .bss	00000004 _ZN5Block10mTallgrassE
00259938 g    DF .text	0000003c _ZN16BlockTessellator22tessellateCrossTextureER5BlockhRK4Vec3bf
00259974 g    DF .text	00000060 _ZN16BlockTessellator26tessellateCrossPolyTextureERK22TextureUVCoordinateSetRK4Vec3bR5Block
004013ac g    DF .text	000005b4 _ZN23BlockTextureTessellator6renderER11TessellatorRK4Vec3RK22TextureUVCoordinateSetbifS4_bb
002599d4 g    DF .text	00000208 _ZN16BlockTessellator21tessellateStemTextureER5Blockhffff
00259bdc g    DF .text	0000025a _ZN16BlockTessellator24tessellateStemDirTextureER9StemBlockhifRK4Vec3
003b784c g    DF .text	00000004 _ZN9StemBlock19getConnectedTextureEv
00259e38 g    DF .text	000000a4 _ZN16BlockTessellator10_findDepthERK8BlockPosf
00259edc g    DF .text	00000060 _ZN16BlockTessellator23_randomizeFaceDirectionER5BlockaRK8BlockPos
004ad084 g    DF .text	0000000a _ZNK5Block18isTextureIsotropicEa
00259f3c g    DF .text	00000042 _ZN16BlockTessellator9canRenderE10BlockShape
00259f80 g    DF .text	00000204 _ZN16BlockTessellator20tessellateRowTextureER5Blockhfff
0025a184 g    DF .text	00000040 _ZN16BlockTessellator15clearBlockCacheEv
0025a1c4 g    DF .text	0000000e _ZN16BlockTessellator10resetCacheERK8BlockPosR11BlockSource
003b7cf0 g    DF .text	00000080 _ZN21BlockTessallatorCache5resetER11BlockSourceRK8BlockPos
0025a1d4 g    DF .text	00000006 _ZN16BlockTessellator14getTessellatorEv
0025a1dc g    DF .text	00000024 _ZNK16BlockTessellator11_getTextureER5BlockRK8BlockPosa
0025a200 g    DF .text	00000012 _ZNK16BlockTessellator7getDataERK8BlockPos
0025a214 g    DF .text	00000004 _ZN16BlockTessellator5blendEiiii
0025a218 g    DF .text	00000004 _ZN16BlockTessellator13isTranslucentERK5Block
0025a21c g    DF .text	00000004 _ZN16BlockTessellator13isSolidRenderERK5Block
0025a220 g    DF .text	00000054 _ZNK16BlockTessellator10_occlusionERK8BlockPos
006ac788 g    DO .bss	00000100 _ZN5Block14mLightEmissionE
006ac288 g    DO .bss	00000400 _ZN5Block13mTranslucencyE
0025a274 g    DF .text	00000034 _ZN16BlockTessellator7guiTex1Ej
002d1824 g    DF .text	00000014 _ZN11Tessellator4tex1Eff
0025a2a8 g    DF .text	0000001c _ZN16BlockTessellator16getLightEmissionER5Block
004ae90c g    DF .text	00000014 _ZN5Block16getLightEmissionE7BlockID
0025a2c4 g    DF .text	00000014 _ZN16BlockTessellator13getLightColorERK8BlockPos
003b7e18 g    DF .text	000000a8 _ZN21BlockTessallatorCache13getLightColorERK8BlockPos
0025a2d8 g    DF .text	00000044 _ZN16BlockTessellator22_getLightColorForWaterERK8BlockPosj
003b7dcc g    DF .text	0000004c _ZN21BlockTessallatorCache8getBlockERK8BlockPos
0025a31c g    DF .text	0000003c _ZN16BlockTessellator4tex1Ej
0025a358 g    DF .text	00000168 _ZN16BlockTessellator22tessellateTorchInWorldER5BlockRK8BlockPosh
002d1884 g    DF .text	00000060 _ZN11Tessellator5colorERK5Color
0025a4c0 g    DF .text	000013e0 _ZN16BlockTessellator21tessellateFireInWorldER5Block8BlockPos
00518604 g    DF .text	00000022 _ZN9FireBlock7canBurnER11BlockSourceRK8BlockPos
0025b8a0 g    DF .text	00000476 _ZN16BlockTessellator23tessellateLadderInWorldER5BlockRK8BlockPosh
0025bd18 g    DF .text	00000070 _ZN16BlockTessellator20tessellateRowInWorldER5BlockRK8BlockPosh
0025bd88 g    DF .text	00000344 _ZN16BlockTessellator14renderFaceDownER5BlockRK4Vec3RK22TextureUVCoordinateSet
002d1a08 g    DF .text	0000000c _ZN11Tessellator6normalERK4Vec3
0068a4c4 g    DO .bss	0000000c _ZN4Vec310NEG_UNIT_YE
0025c0cc g    DF .text	00000344 _ZN16BlockTessellator12renderFaceUpER5BlockRK4Vec3RK22TextureUVCoordinateSet
0068a4d0 g    DO .bss	0000000c _ZN4Vec36UNIT_YE
0025c410 g    DF .text	00000360 _ZN16BlockTessellator11renderNorthER5BlockRK4Vec3RK22TextureUVCoordinateSet
0068a4ac g    DO .bss	0000000c _ZN4Vec310NEG_UNIT_ZE
0025c770 g    DF .text	00000360 _ZN16BlockTessellator11renderSouthER5BlockRK4Vec3RK22TextureUVCoordinateSet
0068a4b8 g    DO .bss	0000000c _ZN4Vec36UNIT_ZE
0025cad0 g    DF .text	00000360 _ZN16BlockTessellator10renderWestER5BlockRK4Vec3RK22TextureUVCoordinateSet
0068a4dc g    DO .bss	0000000c _ZN4Vec310NEG_UNIT_XE
0025ce30 g    DF .text	00000360 _ZN16BlockTessellator10renderEastER5BlockRK4Vec3RK22TextureUVCoordinateSet
0068a4e8 g    DO .bss	0000000c _ZN4Vec36UNIT_XE
0025d190 g    DF .text	000001f4 _ZN16BlockTessellator21tessellateRailInWorldER13BaseRailBlockRK8BlockPos
0050adb8 g    DF .text	00000006 _ZN13BaseRailBlock13isUsesDataBitEv
006aedd4 g    DO .bss	00000010 _ZN5Color8SHADE_UPE
0025d384 g    DF .text	000011b8 _ZN16BlockTessellator25tessellateTripwireInWorldER5BlockRK8BlockPos
002d18e4 g    DF .text	00000018 _ZN11Tessellator5colorEffff
0042fd24 g    DF .text	00000098 _ZN13TripWireBlock15shouldConnectToER11BlockSourceRK8BlockPosii
0025e53c g    DF .text	00000144 _ZN16BlockTessellator17_preparePolyCrossERK8BlockPosR5Block
006ac104 g    DO .bss	00000004 _ZN5Block13mYellowFlowerE
006ac100 g    DO .bss	00000004 _ZN5Block10mRedFlowerE
0025e680 g    DF .text	0000003a _ZN16BlockTessellator22tessellateCrossInWorldER5BlockRK8BlockPoshb
0025e6bc g    DF .text	0000003e _ZN16BlockTessellator26tessellateCrossPolyInWorldER5BlockRK8BlockPoshb
0025e6fc g    DF .text	00000268 _ZN16BlockTessellator28tessellateDoublePlantInWorldER16DoublePlantBlockRK8BlockPoshbb
0037af50 g    DF .text	00000006 _ZN16DoublePlantBlock7getTypeEi
0037b16c g    DF .text	00000006 _ZN16DoublePlantBlock5isTopEi
0037b4d0 g    DF .text	00000030 _ZN16DoublePlantBlock14getStemTextureEbi
0037b780 g    DF .text	00000004 _ZN16DoublePlantBlock15getSunFlowerUVsEv
0025e964 g    DF .text	00000128 _ZN16BlockTessellator21tessellateStemInWorldER9StemBlockRK8BlockPos
003b775c g    DF .text	000000f0 _ZN9StemBlock13getConnectDirER11BlockSourceRK8BlockPos
0025ea8c g    DF .text	0000030c _ZN16BlockTessellator24tessellateLilypadInWorldER5BlockRK8BlockPos
0025ed98 g    DF .text	000009f8 _ZN16BlockTessellator21tessellateVineInWorldER5BlockRK8BlockPosh
0068a558 g    DO .bss	00000004 _ZN9VineBlock9VINE_WESTE
0068a55c g    DO .bss	00000004 _ZN9VineBlock9VINE_EASTE
0068a560 g    DO .bss	00000004 _ZN9VineBlock10VINE_NORTHE
0068a564 g    DO .bss	00000004 _ZN9VineBlock10VINE_SOUTHE
0025f790 g    DF .text	00000f3c _ZN16BlockTessellator21tessellateDustInWorldER5BlockRK8BlockPosh
00499640 g    DF .text	00000008 _ZNK17RedStoneWireBlock14getTexCrossUVsEv
00499630 g    DF .text	00000008 _ZNK17RedStoneWireBlock13getTexLineUVsEv
00499638 g    DF .text	00000008 _ZNK17RedStoneWireBlock20getTexLineOverlayUVsEv
0049951c g    DF .text	00000114 _ZN17RedStoneWireBlock15shouldConnectToER11BlockSourceRK8BlockPosi
006ac0c0 g    DO .bss	00000004 _ZN5Block13mRedStoneDustE
002606cc g    DF .text	000005c8 _ZN16BlockTessellator22tessellateCocoaInWorldER10CocoaBlockRK8BlockPosh
003c3ba4 g    DF .text	00000006 _ZN16DirectionalBlock12getDirectionEh
002c64f4 g    DF .text	00000014 _ZN10CocoaBlock6getAgeEi
002c64cc g    DF .text	00000028 _ZN10CocoaBlock16getTextureForAgeEi
00260c94 g    DF .text	00000008 _ZN3Mob11healEffectsEi
00260c9c g    DF .text	00000008 _ZN3Mob6setYyaEf
00260ca4 g    DF .text	00000006 _ZN3Mob11getYHeadRotEv
00260cac g    DF .text	0000000a _ZN3Mob11setYHeadRotEf
00260cb8 g    DF .text	00000006 _ZN3Mob10setJumpingEb
00260cc0 g    DF .text	000000d0 _ZN3Mob12checkDespawnEPS_
00260d90 g    DF .text	0000001e _ZN3Mob12checkDespawnEv
00425f24 g    DF .text	00000018 _ZN5Level16getNearestPlayerER6Entityf
00260db0 g    DF .text	000000a8 _ZN3Mob15newServerAiStepEv
0050c170 g    DF .text	000000dc _ZN12GoalSelector4tickEv
00260e58 g    DF .text	00000028 _ZN3Mob10reallyDropESt10unique_ptrI10ItemEntitySt14default_deleteIS1_EE
00260e80 g    DF .text	0000006a _ZN3Mob9saveArmorEv
00260eec g    DF .text	00000060 _ZN3Mob9loadArmorEPK7ListTag
003245dc g    DF .text	00000308 _ZN12ItemInstance4loadERK11CompoundTag
00260f4c g    DF .text	00000006 _ZN3Mob13getAttributesEv
00260f54 g    DF .text	00000006 _ZN3Mob13getNavigationEv
00260f5c g    DF .text	00000016 _ZN16RandomStrollGoal16canContinueToUseEv
00260f74 g    DF .text	00000026 _ZN16RandomStrollGoal5startEv
00260f9c g    DF .text	00000016 _ZN16OcelotAttackGoal4stopEv
00260fb4 g    DF .text	00000006 _ZN3Mob14getLookControlEv
00260fbc g    DF .text	000000f8 _ZN16LookAtPlayerGoal4tickEv
002c03a4 g    DF .text	0000001a _ZN11LookControl9setLookAtERK4Vec3ff
002610b4 g    DF .text	00000006 _ZN3Mob14getMoveControlEv
002610bc g    DF .text	00000090 _ZN6Ocelot16_serverAiMobStepEv
005088d4 g    DF .text	00000004 _ZNK11MoveControl9hasWantedEv
005088d8 g    DF .text	00000004 _ZNK11MoveControl8getSpeedEv
0026114c g    DF .text	00000006 _ZN3Mob14getJumpControlEv
00261154 g    DF .text	00000006 _ZN3Mob10getSensingEv
0026115c g    DF .text	00000006 _ZN3Mob23getLastHurtMobTimestampEv
00261164 g    DF .text	0000002e _ZN3Mob11updateMobIdER14EntityUniqueID
00261194 g    DF .text	00000008 _ZN3Mob16getLastHurtByMobEv
0026119c g    DF .text	00000008 _ZN3Mob14getLastHurtMobEv
002611a4 g    DF .text	0000002c _ZN3Mob15resetAttributesEv
00496e54 g    DF .text	00000004 _ZN16BaseAttributeMap5beginEv
00496e5c g    DF .text	00000004 _ZN16BaseAttributeMap3endEv
00512654 g    DF .text	0000000c _ZN17AttributeInstance19resetToDefaultValueEi
002611d0 g    DF .text	00000024 _ZN3Mob8postInitEv
0051270c g    DF .text	00000008 _ZN17AttributeInstance15resetToMaxValueEv
002611f4 g    DF .text	0000002c _ZN3Mob20removeEffectNoUpdateEi
006aed70 g    DO .bss	00000010 _ZN17MobEffectInstance9NO_EFFECTE
00261220 g    DF .text	00000044 _ZNK3Mob20getActiveEffectCountEv
0052444c g    DF .text	0000000c _ZNK17MobEffectInstanceneERKS_
00261264 g    DF .text	00000050 _ZN3Mob12removeEffectEi
002612b4 g    DF .text	00000074 _ZN3Mob21removeEffectParticlesEv
00261328 g    DF .text	00000022 _ZN3Mob16removeAllEffectsEv
0026134c g    DF .text	0000016c _ZN3MobD2Ev
0050bfe8 g    DF .text	00000016 _ZN12GoalSelector12InternalGoalD1Ev
005dc8e8 g    DO .data.rel.ro	00000358 _ZTV3Mob
0026134c g    DF .text	0000016c _ZN3MobD1Ev
002614b8 g    DF .text	00000012 _ZN3MobD0Ev
002614cc g    DF .text	00000050 _ZNK3Mob9getEffectERK9MobEffect
0026151c g    DF .text	0000000e _ZNK3Mob9hasEffectERK9MobEffect
0026152c g    DF .text	000000e0 _ZN3Mob14jumpFromGroundEv
00523fd8 g    DF .text	00000004 _ZNK17MobEffectInstance12getAmplifierEv
006aa960 g    DO .bss	00000004 _ZN9MobEffect4JUMPE
0026160c g    DF .text	00000054 _ZN3Mob23getCurrentSwingDurationEv
006aa974 g    DO .bss	00000004 _ZN9MobEffect9DIG_SPEEDE
006aa970 g    DO .bss	00000004 _ZN9MobEffect12DIG_SLOWDOWNE
00261660 g    DF .text	00000058 _ZN3Mob16updateAttackAnimEv
002616b8 g    DF .text	00000036 _ZN3Mob5swingEv
002616f0 g    DF .text	00000088 _ZN3Mob25getDamageAfterMagicAbsorbERK18EntityDamageSourcei
006aa954 g    DO .bss	00000004 _ZN9MobEffect17DAMAGE_RESISTANCEE
00261778 g    DF .text	00000034 _ZN3Mob13hasAnyEffectsEv
002617ac g    DF .text	0000042c _ZN3Mob21addAdditionalSaveDataER11CompoundTag
004059d8 g    DF .text	00000004 _ZN11CompoundTag10putBooleanERKSsb
00406610 g    DF .text	00000034 _ZN11CompoundTag8putInt64ERKSsx
002c3b44 g    DF .text	00000070 _ZN16SharedAttributes14saveAttributesEP16BaseAttributeMap
00406644 g    DF .text	0000002c _ZN11CompoundTag8putFloatERKSsf
00524594 g    DF .text	000001d4 _ZNK17MobEffectInstance4saveEv
00261bd8 g    DF .text	00000006 _ZN3Mob13getAllEffectsEv
00261be0 g    DF .text	00000052 _ZNK3Mob16hasAttributeBuffE17AttributeBuffType
00512df8 g    DF .text	00000004 _ZNK17AttributeInstance8getBuffsEv
00439718 g    DF .text	00000004 _ZNK13AttributeBuff7getTypeEv
00261c34 g    DF .text	00000028 _ZNK3Mob9getHealthEv
00261c5c g    DF .text	0000002a _ZNK3Mob10isImmobileEv
00261c88 g    DF .text	000002d4 _ZN3Mob11hurtEffectsERK18EntityDamageSourcei
00506c04 g    DF .text	00000016 _ZN15EntityClassTree8isPlayerERK6Entity
004292b0 g    DF .text	00000004 _ZNK5Level13getDifficultyEv
0036ad60 g    DF .text	0000015c _ZN3Mth6randomEv
00000000      DF *UND*	00000000 atan2f
005a84b0 g    DO .rodata	00000004 _ZN3Mth6RADDEGE
00261f60 g    DF .text	00000154 _ZN3Mob17handleEntityEventE11EntityEvent
0051264c g    DF .text	00000008 _ZN17AttributeInstance15resetToMinValueEv
002620b4 g    DF .text	00000028 _ZNK3Mob12getMaxHealthEv
00512648 g    DF .text	00000004 _ZNK17AttributeInstance11getMaxValueEv
002620dc g    DF .text	00000030 _ZN3Mob22serializationSetHealthEi
00512d18 g    DF .text	00000008 _ZN17AttributeInstance21serializationSetValueEfi
0026210c g    DF .text	00000006 _ZN3Mob16setCanPickUpLootEb
00262114 g    DF .text	00000006 _ZNK3Mob16canPickickUpLootEv
0026211c g    DF .text	0000002a _ZN3Mob14tickAttributesEv
0052bd44 g    DF .text	000000c8 _ZN17AttributeInstance4tickEv
00262148 g    DF .text	00000008 _ZN3Mob13setPersistentEv
00262150 g    DF .text	000000fe _ZN3Mob4hurtERK18EntityDamageSourcei
002c0640 g    DF .text	0000018c _ZN12EnchantUtils18getDamageReductionERK18EntityDamageSourceRK3Mob
002c08f0 g    DF .text	000000d0 _ZN12EnchantUtils17doPostHurtEffectsER3MobS1_
00262250 g    DF .text	00000008 _ZN3Mob6getYyaEv
00262258 g    DF .text	0000000c _ZN3Mob19incrementArrowCountEi
00262264 g    DF .text	00000006 _ZN3Mob13setSurfaceMobEb
0026226c g    DF .text	0000006c _ZN12AvoidMobGoalC2ER13PathfinderMobfff
003ba1dc g    DF .text	00000014 _ZN4GoalC2Ev
005dd830 g    DO .data.rel.ro	00000030 _ZTV12AvoidMobGoal
0026226c g    DF .text	0000006c _ZN12AvoidMobGoalC1ER13PathfinderMobfff
002622d8 g    DF .text	0000002c _ZN16AvoidMobTypeGoalC2ER13PathfinderMob10EntityTypefff
005dd860 g    DO .data.rel.ro	00000030 _ZTV16AvoidMobTypeGoal
002622d8 g    DF .text	0000002c _ZN16AvoidMobTypeGoalC1ER13PathfinderMob10EntityTypefff
00262304 g    DF .text	00000028 _ZN11SwimEnchantC2EiiRKSsii
005089d8 g    DF .text	00000038 _ZN7EnchantC2EiiRKSsii
00262304 g    DF .text	00000028 _ZN11SwimEnchantC1EiiRKSsii
0026232c g    DF .text	00000036 _ZN23FurnaceScreenController27_getItemInstanceFromFurnaceEi
00262364 g    DF .text	00000058 _ZN23FurnaceScreenController16_loadFromFurnaceEv
0042bda4 g    DF .text	00000062 _ZN20MinecraftScreenModel27resetIngredientItemInstanceEi
00448a70 g    DF .text	000000a0 _ZN20MinecraftScreenModel15setItemInstanceEi12ItemLocationR12ItemInstance
002623bc g    DF .text	000002e8 _ZN23FurnaceScreenControllerC2ESt10shared_ptrI20MinecraftScreenModelERK8BlockPos
002c4f50 g    DF .text	00000430 _ZN25MinecraftScreenControllerC2ESt10shared_ptrI20MinecraftScreenModelE
002a5010 g    DF .text	00000016 _ZN25MinecraftScreenController21setAssociatedBlockPosERK8BlockPos
0042c088 g    DF .text	00000036 _ZN20MinecraftScreenModel17createFurnaceMenuERK8BlockPos
0042b97c g    DF .text	00000014 _ZN20MinecraftScreenModel11getButtonIdERKSs
002623bc g    DF .text	000002e8 _ZN23FurnaceScreenControllerC1ESt10shared_ptrI20MinecraftScreenModelERK8BlockPos
002626a4 g    DF .text	00000106 _ZN23FurnaceScreenController14_updateFurnaceEv
0042bd9c g    DF .text	00000008 _ZN20MinecraftScreenModel25getIngredientItemInstanceEi
0050aee4 g    DF .text	0000001e _ZN11FurnaceMenu23updatePlayerSlotChangedEiRK12ItemInstance
003248e4 g    DF .text	0000000e _ZNK12ItemInstanceneERKS_
002627ac g    DF .text	00000394 _ZN23FurnaceScreenController22_handleFurnaceOutPlaceE8TakeTypeb
00448db8 g    DF .text	000000d6 _ZN20MinecraftScreenModel25autoPlaceNewInventoryItemE15ScreenItemStack
0042b8d8 g    DF .text	00000014 _ZNK15ScreenItemStack7isEmptyEv
0051de78 g    DF .text	0000000e _ZN11FurnaceMenu17getLastFuelSourceEv
0042c0c0 g    DF .text	000002a0 _ZN20MinecraftScreenModel26grantExperienceFromFurnaceE12ItemInstanceiRKS0_
002c57c8 g    DF .text	0000000a _ZNK25MinecraftScreenController16_selectionActiveEv
0032317c g    DF .text	00000058 _ZN12ItemInstance11isStackableEPKS_S1_
003230e0 g    DF .text	00000010 _ZNK12ItemInstance15getMaxStackSizeEv
005dc518  w   DO .data.rel.ro	0000001c _ZTVSt19_Sp_counted_deleterIP12ItemInstanceNSt12__shared_ptrIS0_LN9__gnu_cxx12_Lock_policyE2EE8_DeleterISaIS0_EEES7_LS4_2EE
00262b40 g    DF .text	00000010 _ZN23FurnaceScreenController24_getItemIndexFromFurnaceE12ItemLocationi
00262b50 g    DF .text	00000078 _ZN23FurnaceScreenController15_tryCoalesceOutEv
00262bc8 g    DF .text	00000088 _ZN23FurnaceScreenController25_handleFurnaceOutCoalesceEv
00000000      DF *UND*	00000000 _ZSt25__throw_bad_function_callv
00262c50 g    DF .text	0000001c _ZN25HugeExplosionSeedParticleC2ER11BlockSource12ParticleType
0032512c g    DF .text	0000007c _ZN8ParticleC2ER11BlockSource12ParticleType
005de8d0 g    DO .data.rel.ro	00000024 _ZTV25HugeExplosionSeedParticle
00262c50 g    DF .text	0000001c _ZN25HugeExplosionSeedParticleC1ER11BlockSource12ParticleType
00262c6c g    DF .text	000000a0 _ZN9SlabBlockC2ERKSsiS1_bRK8Material
004ad5d0 g    DF .text	000000f8 _ZN5BlockC2ERKSsiS1_RK8Material
004ad1cc g    DF .text	00000048 _ZN5Block8setSolidEb
00262c6c g    DF .text	000000a0 _ZN9SlabBlockC1ERKSsiS1_bRK8Material
00262d0c g    DF .text	0000000a _ZN9SlabBlock12isBottomSlabEi
00262d18 g    DF .text	00000058 _ZN9SlabBlock14getVisualShapeEhR4AABBb
00262d70 g    DF .text	00000012 _ZNK9SlabBlock12isBottomSlabER11BlockSourceRK8BlockPos
00262d84 g    DF .text	00000004 _ZN9SlabBlock19isObstructingChestsER11BlockSourceRK8BlockPos
00262d88 g    DF .text	00000160 _ZNK9SlabBlock16shouldRenderFaceER11BlockSourceRK8BlockPosaRK4AABB
005a8a48 g    DO .rodata	00000018 _ZN6Facing6STEP_YE
005a8a30 g    DO .rodata	00000018 _ZN6Facing6STEP_ZE
005a8a60 g    DO .rodata	00000018 _ZN6Facing6STEP_XE
00262ee8 g    DF .text	00000024 _ZN12CreativeModeC2ER12PacketSenderR5LevelR11SoundPlayerR9Vibration
002be310 g    DF .text	00000068 _ZN8GameModeC2ER12PacketSenderR5LevelR11SoundPlayerR9Vibration
00262ee8 g    DF .text	00000024 _ZN12CreativeModeC1ER12PacketSenderR5LevelR11SoundPlayerR9Vibration
00262f0c g    DF .text	0000001a _ZN5MusicC2ENS_2IdERKSsii
00262f0c g    DF .text	0000001a _ZN5MusicC1ENS_2IdERKSsii
00262f28 g    DF .text	00000064 _ZN12MusicManagerC2ER11SoundPlayer
00262f28 g    DF .text	00000064 _ZN12MusicManagerC1ER11SoundPlayer
00262f8c g    DF .text	0000001e _ZN12MusicManager12startPlayingER5Music
00262fac g    DF .text	0000007c _ZN12MusicManager6updateER5Music
0036b1a4 g    DF .text	00000160 _ZN3Mth7nextIntER6Randomii
00263028 g    DF .text	0000001e _ZN12MusicManager11stopPlayingEv
00263048 g    DF .text	0000000a _ZN8Fireball10getInertiaEv
00263054 g    DF .text	000000da _ZN8Fireball9_setPowerERK4Vec3
00263130 g    DF .text	00000018 _ZN8Fireball5_initEv
00263148 g    DF .text	000003b0 _ZN8Fireball22readAdditionalSaveDataERK11CompoundTag
003ec9bc g    DF .text	0000001a _ZNK11CompoundTag8containsERKSsi
003208c8 g    DF .text	0000001c _ZNK7ListTag8getFloatEi
003ed1bc g    DF .text	00000022 _ZNK11CompoundTag8getInt64ERKSs
002634f8 g    DF .text	0000002e _ZNK8Fireball9_getPowerEv
0043bdc4 g    DF .text	00000016 _ZNK17SynchedEntityData8getFloatEh
00263528 g    DF .text	0000031c _ZN8Fireball21addAdditionalSaveDataER11CompoundTag
0033bf00 g    DF .text	00000064 _ZN17ListTagFloatAdderclEf
00263844 g    DF .text	00000138 _ZN8Fireball17_defineEntityDataEv
0043b4e8 g    DF .text	00000016 _ZNK17SynchedEntityData5_findEh
0045fc00 g    DF .text	00000050 _ZN17SynchedEntityData16_resizeToContainEh
0026397c g    DF .text	00000084 _ZN5Touch15StartMenuScreenC2ER15MinecraftClient
00372510 g    DF .text	00000128 _ZN6ScreenC2ER15MinecraftClient
0026397c g    DF .text	00000084 _ZN5Touch15StartMenuScreenC1ER15MinecraftClient
00263a00 g    DF .text	000001c0 _ZN5Touch15StartMenuScreen18chooseRandomSplashEv
00400d94 g    DF .text	000001a4 _ZN18SplashTextRenderer13_loadSplashesERKSs
00645108 g    DO .bss	0000000c _ZN5Touch15StartMenuScreen9mSplashesE
00643048 g    DO .data	00000004 _ZN5Touch15StartMenuScreen14mCurrentSplashE
00263bc0 g    DF .text	00000010 _ZN5Touch15StartMenuScreen14_updateLicenseEv
00263bd0 g    DF .text	00000004 _ZN5Touch15StartMenuScreen4tickEv
00263bd4 g    DF .text	0000004e _ZN5Touch15StartMenuScreen16setupPlayButtonsEb
00263c24 g    DF .text	0000014c _ZN5Touch15StartMenuScreen14setupPositionsEv
002ed8dc g    DF .text	0000003c _ZN12TextureGroup14getTextureDataERKSs
00263d70 g    DF .text	0000001c _ZNK6Social11UserManager18getCurrentGamertagEv
00263d8c g    DF .text	0000001c _ZNK6Social11UserManager14getCurrentXUIDEv
00263da8 g    DF .text	0000001c _ZNK6Social11UserManager10getSandboxEv
00263dc4 g    DF .text	00000002 _ZN6Social11UserManager9onSignOutEv
00263dc8 g    DF .text	00000014 _ZN6Social11UserManager12silentSigninESt8functionIFvNS_12SignInResultEEE
00263ddc g    DF .text	00000002 _ZN6Social11UserManager18onSuccessfulSigninEv
00263de0 g    DF .text	00000014 _ZN6Social11UserManager6signInESt8functionIFvNS_12SignInResultEEE
00263df4 g    DF .text	00000024 _ZNK6Social11UserManager14getCurrentUserEv
00263e18 g    DF .text	00000024 _ZNK6Social11UserManager13getXblContextEv
00263e3c g    DF .text	00000002 _ZN6Social11UserManager18updateRichPresenceESs
00263e40 g    DF .text	00000004 _ZNK6Social11UserManager14checkPrivilegeEi
00263e44 g    DF .text	00000004 _ZNK6Social11UserManager10isSignedInEv
00263e48 g    DF .text	00000004 _ZN10GuiElement10setVisibleEb
00263e4c g    DF .text	00000028 _ZN10GuiElement15clearBackgroundEv
00263e74 g    DF .text	00000020 _ZN10GuiElement13setBackgroundERK5Color
00263e94 g    DF .text	000000b0 _ZN10GuiElement13setBackgroundEP15MinecraftClientRKSsRK12IntRectangleii
0036d4d4 g    DF .text	0000002e _ZN16NinePatchFactoryC1EP12TextureGroupRKSs
0036d504 g    DF .text	0000005c _ZN16NinePatchFactory17createSymmetricalERK12IntRectangleiiff
00263f44 g    DF .text	00000006 _ZN10GuiElement22setActiveAndVisibilityEbb
00263f4c g    DF .text	00000006 _ZN10GuiElement22setActiveAndVisibilityEb
00263f54 g    DF .text	00000046 _ZN11DeathScreen4tickEv
00263fa0 g    DF .text	00000478 _ZN5Touch15StartMenuScreen6renderEiif
0042deec g    DF .text	000000c0 _ZN14ScreenRenderer4blitERKN3mce10TexturePtrERK12IntRectangle
0042dec0 g    DF .text	0000002a _ZN14ScreenRenderer10drawStringEP4FontRKSsiiRK5Color
002fb21c g    DF .text	000002dc _ZN4Font15drawTransformedERKSsffRK5Colorffbf
006aee24 g    DO .bss	00000010 _ZN5Color6YELLOWE
00264418 g    DF .text	00000006 _ZN10GuiElement10isSelectedEv
00264420 g    DF .text	0000001c _ZN10GuiElement11setSelectedEb
0026443c g    DF .text	0000008a _ZN6Button6renderEP15MinecraftClientii
002644c8 g    DF .text	000001b8 _ZN21PackedScrollContainer6renderEP15MinecraftClientii
0036a168 g    DF .text	00000004 _ZN13ScrollingPane16getContentOffsetEv
0036acd4 g    DF .text	00000008 _ZN13ScrollingPane19updateScrollBoxSizeEf
0038c85c g    DF .text	000003e4 _ZN13ScrollingPane6renderEiifP15MinecraftClient
00264680 g    DF .text	000002e4 _ZN21PackedScrollContainer14setupPositionsEv
002ca4f0 g    DF .text	00000006 _ZNK15MinecraftClient8getInputEv
003148a4 g    DF .text	00000006 _ZNK21MinecraftInputHandler19getCurrentInputModeEv
00369f74 g    DF .text	00000006 _ZNK13ScrollingPane10getScrollTEv
0039657c g    DF .text	000003a0 _ZN13ScrollingPaneC1EiRK12IntRectangleS2_iifS2_
0036a16c g    DF .text	00000006 _ZN13ScrollingPane20getVerticleScrollBarEv
0036accc g    DF .text	00000004 _ZN9ScrollBar18setRenderColorTypeENS_15RenderColorTypeE
0036a88c g    DF .text	00000098 _ZN13ScrollingPane10setScrollTEf
00369f7c g    DF .text	00000008 _ZN13ScrollingPane7addFlagEi
0036acc4 g    DF .text	00000008 _ZN9ScrollBar22setMarginsPixelOffsetsEfff
00264964 g    DF .text	0000002c _ZN21PackedScrollContainer20scrollViewToSelectedEv
00264990 g    DF .text	0000032c _ZN8BatModelC2Ev
0052fb20 g    DF .text	00000028 _ZN9ModelPart8addChildEPS_
00511258 g    DF .text	00000006 _ZN9ModelPart7texOffsEii
00264990 g    DF .text	0000032c _ZN8BatModelC1Ev
00264cbc g    DF .text	00000128 _ZN10BlazeModelC2Ev
00264cbc g    DF .text	00000128 _ZN10BlazeModelC1Ev
00264de4 g    DF .text	00000004 _ZN10BlazeModel12modelVersionEv
00264de8 g    DF .text	00000164 _ZN14WorkbenchBlockC2ERKSsi
004ad214 g    DF .text	000000dc _ZN5BlockC2ERKSsiRK8Material
004ad750 g    DF .text	00000014 _ZN5Block14getTextureItemERKSs
00264de8 g    DF .text	00000164 _ZN14WorkbenchBlockC1ERKSsi
00264f4c g    DF .text	0000002c _ZN11InBedScreenC2ER15MinecraftClient
00264f4c g    DF .text	0000002c _ZN11InBedScreenC1ER15MinecraftClient
00264f78 g    DF .text	00000058 _ZN16LookAtPlayerGoalC2ER3Mobff
00264f78 g    DF .text	00000058 _ZN16LookAtPlayerGoalC1ER3Mobff
00264fd0 g    DF .text	0000002c _ZN13LookAtMobGoalC2ER3Mobf10EntityType
00264fd0 g    DF .text	0000002c _ZN13LookAtMobGoalC1ER3Mobf10EntityType
00264ffc g    DF .text	00000024 _ZN13LookAtMobGoalC2ER3Mobf10EntityTypef
00264ffc g    DF .text	00000024 _ZN13LookAtMobGoalC1ER3Mobf10EntityTypef
00265020 g    DF .text	00000024 _ZN12InteractGoalC2ER3Mobf10EntityType
00265020 g    DF .text	00000024 _ZN12InteractGoalC1ER3Mobf10EntityType
00265044 g    DF .text	0000002c _ZN12InteractGoalC2ER3Mobf10EntityTypef
00265044 g    DF .text	0000002c _ZN12InteractGoalC1ER3Mobf10EntityTypef
00265070 g    DF .text	00000010 _ZN8ItemPackC2Ev
00265070 g    DF .text	00000010 _ZN8ItemPackC1Ev
00265080 g    DF .text	00000032 _ZN8ItemPackC2EOS_
00265080 g    DF .text	00000032 _ZN8ItemPackC1EOS_
002650b4 g    DF .text	00000054 _ZN8ItemPack6removeEii
00000000      DF *UND*	00000000 _ZSt28_Rb_tree_rebalance_for_erasePSt18_Rb_tree_node_baseRS_
00265108 g    DF .text	00000002 _ZNK8ItemPack5printEv
0026510c g    DF .text	0000008a _ZNK8ItemPack18getMaxMultipliesOfERKS_
00000000      DF *UND*	00000000 _ZSt18_Rb_tree_incrementPKSt18_Rb_tree_node_base
00265198 g    DF .text	00000038 _ZN8ItemPack20getIdForItemInstanceEPK12ItemInstance
00330edc g    DF .text	0000000e _ZN6Recipe13isAnyAuxValueEPK12ItemInstance
00323104 g    DF .text	00000016 _ZNK12ItemInstance16isDamageableItemEv
002651d0 g    DF .text	0000000c _ZN8ItemPack26getIdForItemInstanceAnyAuxEPK12ItemInstance
002651dc g    DF .text	00000024 _ZN8ItemPack20getItemInstanceForIdEi
00265200 g    DF .text	00000034 _ZNK8ItemPack8getCountEi
00265234 g    DF .text	00000028 _ZN13LightGemBlockC2ERKSsiS1_RK8Material
004ad91c g    DF .text	00000006 _ZN5Block20setAllFacesIsotropicEv
00265234 g    DF .text	00000028 _ZN13LightGemBlockC1ERKSsiS1_RK8Material
0026525c g    DF .text	00000034 _ZN13RedstoneBlockC2ERKSsiS1_
0026525c g    DF .text	00000034 _ZN13RedstoneBlockC1ERKSsiS1_
00265290 g    DF .text	00000042 _ZNK6Social9Telemetry14TelemetryEvent21propertiesAsJsonValueEv
004a5f10 g    DF .text	00000066 _ZN4Json5ValueC1ENS_9ValueTypeE
004cb8d4 g    DF .text	00000006 _ZN4Json5ValueixERKSs
004caca4 g    DF .text	000000ee _ZN4Json5ValueC1ERKS0_
004cad94 g    DF .text	00000020 _ZN4Json5ValueaSERKS0_
004c27d8 g    DF .text	00000062 _ZN4Json5ValueD1Ev
002652d4 g    DF .text	00000042 _ZNK6Social9Telemetry14TelemetryEvent23measurementsAsJsonValueEv
00265318 g    DF .text	00000200 _ZNK6Social9Telemetry14TelemetryEventeqERKS1_
004a6158 g    DF .text	00000004 _ZNK4Json5Value4typeEv
004a62f0 g    DF .text	000000c8 _ZNK4Json5ValueeqERKS0_
00265518 g    DF .text	0000015e _ZN6Social9Telemetry14TelemetryEvent18updateMeasurementsERKS1_
004a5f8c g    DF .text	00000018 _ZN4Json5ValueC1Ei
004a6550 g    DF .text	00000058 _ZNK4Json5Value8asDoubleEd
004a5fcc g    DF .text	00000014 _ZN4Json5ValueC1Ed
00265678 g    DF .text	0000000a _ZN6Social9Telemetry14TelemetryEvent15hasMeasurementsEv
00265684 g    DF .text	00000084 _ZN20FallingBlockRendererC2ER12TextureGroupR16BlockTessellator
00265684 g    DF .text	00000084 _ZN20FallingBlockRendererC1ER12TextureGroupR16BlockTessellator
00265708 g    DF .text	00000014 _ZN3mce15AlignmentHelper16getAlignedOffsetEjj
0026571c g    DF .text	00000030 _ZN20InGamePlayHoloScreenC2ER15MinecraftClient
00329eec g    DF .text	0000011c _ZN16InGamePlayScreenC2ER15MinecraftClient
0032d95c g    DF .text	00000018 _ZN3mce10TexturePtrC1Ev
0026571c g    DF .text	00000030 _ZN20InGamePlayHoloScreenC1ER15MinecraftClient
0026574c g    DF .text	000000f8 _ZN20InGamePlayHoloScreen19_setCorrectViewProjEv
0033f4a0 g    DF .text	000001f8 _ZN19HolographicPlatform12getTransformER6MatrixNS_15MinecraftSpacesES2_
0037a398 g    DF .text	00000154 _ZN3mce25WorldConstantsHolographic20setViewProjOverridesER6MatrixS2_S2_S2_
00265844 g    DF .text	0000002c _ZN20InGamePlayHoloScreen35_setupHolographicStabilizationPlaneEv
00265870 g    DF .text	00000070 _ZN20InGamePlayHoloScreen33_drawHolographicGraphicalElementsEv
002ca848 g    DF .text	00000008 _ZN15MinecraftClient9getScreenEv
002ca024 g    DF .text	00000004 _ZNK15MinecraftClient20getHolosceneRendererEv
004b94b4 g    DF .text	000003b0 _ZN17HolosceneRenderer17renderFrame_LevelE6Matrix
002658e0 g    DF .text	00000002 _ZN20InGamePlayHoloScreen28_drawDebugStabilizationPlaneEv
002658e4 g    DF .text	00000002 _ZN20InGamePlayHoloScreen21_drawStereoscopicQuadEv
002658e8 g    DF .text	00000028 _ZN12MinecartItemC2ERKSsi12MinecartType
005df390 g    DO .data.rel.ro	000000c8 _ZTV12MinecartItem
002658e8 g    DF .text	00000028 _ZN12MinecartItemC1ERKSsi12MinecartType
00265910 g    DF .text	00000030 _ZN14InvisibleBlockC2ERKSsiS1_RK8Material
00265910 g    DF .text	00000030 _ZN14InvisibleBlockC1ERKSsiS1_RK8Material
00265940 g    DF .text	00000050 _ZN14PathNavigationC2ER3MobP5Levelf
005dd2c0 g    DO .data.rel.ro	00000034 _ZTV14PathNavigation
00265940 g    DF .text	00000050 _ZN14PathNavigationC1ER3MobP5Levelf
00265990 g    DF .text	00000006 _ZN14PathNavigation13setAvoidWaterEb
00265998 g    DF .text	00000006 _ZNK14PathNavigation13getAvoidWaterEv
002659a0 g    DF .text	00000006 _ZN14PathNavigation15setCanOpenDoorsEb
002659a8 g    DF .text	00000006 _ZNK14PathNavigation12canPassDoorsEv
002659b0 g    DF .text	00000006 _ZN14PathNavigation15setCanPassDoorsEb
002659b8 g    DF .text	00000006 _ZNK14PathNavigation12canOpenDoorsEv
002659c0 g    DF .text	00000004 _ZN14PathNavigation11setAvoidSunEb
002659c4 g    DF .text	00000004 _ZN14PathNavigation8setSpeedEf
002659c8 g    DF .text	00000006 _ZN14PathNavigation11setCanFloatEb
002659d0 g    DF .text	00000004 _ZN14PathNavigation7getPathEv
002659d4 g    DF .text	00000020 _ZNK14PathNavigation11_isInLiquidEv
002659f4 g    DF .text	0000001a _ZNK14PathNavigation14_canUpdatePathEv
00265a10 g    DF .text	000000c4 _ZN14PathNavigation10createPathERK4Vec3
0042631c g    DF .text	00000068 _ZN5Level8findPathER6Entityiiifbbbb
00265ad4 g    DF .text	0000005c _ZN14PathNavigation10createPathER3Mob
004262c4 g    DF .text	00000058 _ZN5Level8findPathER6EntityS1_fbbbb
00265b30 g    DF .text	000000a4 _ZN18TextureTessellatorC2ER11Tessellator
0050886c g    DF .text	00000010 _ZN13MemoryTrackerC2ERKSsPS_
006aee64 g    DO .bss	00000010 _ZN5Color5BLACKE
00265b30 g    DF .text	000000a4 _ZN18TextureTessellatorC1ER11Tessellator
00265bd4 g    DF .text	00000190 _ZN18ItemInHandRendererC2ER15MinecraftClientR16BlockTessellator
004a8f6c g    DF .text	00000024 _ZN19AppPlatformListenerC2Ev
0043a8d4 g    DF .text	00000014 _ZN3mce11MaterialPtrC1Ev
0032eadc g    DF .text	00000026 _ZN3mce10TexturePtrC1ER12TextureGroupRKSs
00265bd4 g    DF .text	00000190 _ZN18ItemInHandRendererC1ER15MinecraftClientR16BlockTessellator
00265d64 g    DF .text	00000104 _ZN18TextureTessellator12_addLightingERK11TextureDataRK4Vec3PKhiib
00265e68 g    DF .text	00000012 _ZN18TextureTessellator3endEv
00265e7c g    DF .text	0000003c _ZN19EntityBlockRenderer6renderEP5Blockif
004bb970 g    DF .text	00000038 _ZN27BlockEntityRenderDispatcher11getInstanceEv
00498df0 g    DF .text	00000046 _ZN27BlockEntityRenderDispatcher6renderER11BlockEntityRK4Vec3fRKN3mce11MaterialPtrERKNS5_10TexturePtrEi
0068a894 g    DO .bss	0000000c _ZN3mce11MaterialPtr4NONEE
00648098 g    DO .bss	0000000c _ZN3mce10TexturePtr4NONEE
00265eb8 g    DF .text	0000001c _ZN12GuiComponentC2Ev
0042de40 g    DF .text	00000002 _ZN14ScreenRendererC2Ev
00265eb8 g    DF .text	0000001c _ZN12GuiComponentC1Ev
00265ed4 g    DF .text	00000060 _ZN10GuiElementC2Ebbiiii
00265ed4 g    DF .text	00000060 _ZN10GuiElementC1Ebbiiii
00265f34 g    DF .text	00000024 _ZN22GazeGestureVoiceMapperC2Ev
003b83dc g    DF .text	00000018 _ZN17InputDeviceMapperC2Ev
00265f34 g    DF .text	00000024 _ZN22GazeGestureVoiceMapperC1Ev
00265f58 g    DF .text	00000014 _ZNK6Entity11hasUniqueIDEv
00265f6c g    DF .text	0000069c _ZN6Entity4loadERK11CompoundTag
003ed1e0 g    DF .text	0000001e _ZNK11CompoundTag8getFloatERKSs
003ec9f4 g    DF .text	0000000e _ZNK11CompoundTag10getBooleanERKSs
003ecbc0 g    DF .text	0000001a _ZNK11CompoundTag6getIntERKSs
00266608 g    DF .text	00000032 _ZNK6Entity11getUniqueIDEv
00429538 g    DF .text	00000014 _ZN5Level14getNewUniqueIDEv
0026663c g    DF .text	00000036 _ZN3Mob16setLastHurtByMobEPS_
00266674 g    DF .text	00000088 _ZN3Mob19setLastHurtByPlayerEP6Player
00427bf0 g    DF .text	00000004 _ZN5Level12getLevelDataEv
005279b4 g    DF .text	00000004 _ZNK9LevelData11getGameTypeEv
002666fc g    DF .text	0000002a _ZN3Mob14setLastHurtMobEP6Entity
00266728 g    DF .text	0000002c _ZN3Mob9setTargetEPS_
00266754 g    DF .text	000000b4 _ZN19OwnerHurtTargetGoal6canUseEv
004a5bdc g    DF .text	00000072 _ZN10TargetGoal10_canAttackEP3Mobb
0046b8d4 g    DF .text	0000005c _ZN5Level24registerTemporaryPointerER8_TickPtr
00266808 g    DF .text	0000006a _ZN9SwellGoal5startEv
00266878 g    DF .text	00000220 _ZN16LookAtPlayerGoal6canUseEv
00266a98 g    DF .text	0000000a _ZN6Entity11setUniqueIDE14EntityUniqueID
00266aa4 g    DF .text	00000034 _ZNK6Entity10isInCloudsEv
00266ad8 g    DF .text	00000022 _ZN6EntityeqERS_
00266afc g    DF .text	00000074 _Z30_rotationWrapWithInterpolationRfS_
00266b70 g    DF .text	00000026 _ZN6Entity6setRotERK4Vec2
00266b98 g    DF .text	00000042 _ZN6Entity6setPosERK9EntityPos
00266bdc g    DF .text	00000018 _ZN6Entity6lerpToERK4Vec3RK4Vec2i
00266bf4 g    DF .text	00000050 _ZNK6Entity15_sendLinkPacketERK10EntityLink
00428ce4 g    DF .text	00000006 _ZNK5Level15getPacketSenderEv
003be184 g    DF .text	00000024 _ZN6PacketC2Ev
005dc338  w   DO .data.rel.ro	00000020 _ZTV19SetEntityLinkPacket
00266c44 g    DF .text	00000006 _ZNK6Entity7getRideEv
00266c4c g    DF .text	00000038 _ZNK6Entity10_findRiderERS_
00266c84 g    DF .text	00000066 _ZN6Entity11removeRiderERS_
00000000      DF *UND*	00000000 memmove
00266cec g    DF .text	00000066 _ZN6Entity15removeAllRidersEv
00266d54 g    DF .text	00000058 _ZN6Entity6moveToERK4Vec3RK4Vec2
00266dac g    DF .text	00000008 _ZN3Mob10teleportToERK4Vec3
00266db4 g    DF .text	000000b4 _ZN8Fireball10lerpMotionERK4Vec3
00266e68 g    DF .text	00000042 _ZN6Entity10distanceToERKS_
00266eac g    DF .text	00000042 _ZN6Entity10distanceToERK4Vec3
00266ef0 g    DF .text	00000036 _ZN6Entity13distanceToSqrERK4Vec3
00266f28 g    DF .text	00000060 _ZN22MoveThroughVillageGoal16canContinueToUseEv
00522cf4 g    DF .text	00000026 _ZNK8DoorInfo11getPositionEv
00266f88 g    DF .text	000000e8 _ZN16OcelotAttackGoal4tickEv
002c01b8 g    DF .text	00000062 _ZN11LookControl9setLookAtEP6Entityff
00267070 g    DF .text	000000c8 _ZN22MoveThroughVillageGoal4stopEv
00000000      DF *UND*	00000000 _ZNSt8__detail15_List_node_base7_M_hookEPS0_
00522b18 g    DF .text	00000008 _ZNK8DoorInfo10getIndoorXEv
00522b20 g    DF .text	00000004 _ZNK8DoorInfo10getIndoorYEv
00522b24 g    DF .text	00000008 _ZNK8DoorInfo10getIndoorZEv
00267138 g    DF .text	00000036 _ZN6Entity13distanceToSqrERKS_
00267170 g    DF .text	00000040 _ZN9SwellGoal6canUseEv
0031a18c g    DF .text	0000000c _ZN7Creeper11getSwellDirEv
002671b0 g    DF .text	00000088 _ZN12AvoidMobGoal4tickEv
00267238 g    DF .text	000000dc _ZN16LookAtPlayerGoal16canContinueToUseEv
00267314 g    DF .text	00000198 _ZN6Ocelot18interactWithPlayerER6Player
0049c5b8 g    DF .text	00000006 _ZN9TemptGoal9isRunningEv
0043b090 g    DF .text	000000c2 _ZN6Animal18interactWithPlayerER6Player
004a07dc g    DF .text	00000036 _ZNK13TamableAnimal15_sendTameEventsEP6Player
002674ac g    DF .text	00000050 _ZN16OcelotAttackGoal16canContinueToUseEv
002674fc g    DF .text	000001e8 _ZN6Ocelot15getInteractTextER6Player
002676e4 g    DF .text	00000052 _ZN6Entity27distanceSqrToBlockPosCenterERK8BlockPos
00267738 g    DF .text	00000006 _ZNK6Entity9getRegionEv
00267740 g    DF .text	00000224 _ZNK10MobFactory16_getRingPositionER6Playerffii
0051e3e8 g    DF .text	00000062 _ZN11BlockSource26findNextTopSolidBlockUnderER8BlockPos
00267968 g    DF .text	0000007c _ZNK3Mob6canSeeERK6Entity
0051f6e8 g    DF .text	00000566 _ZN11BlockSource4clipERK4Vec3S2_bbi
002679e4 g    DF .text	00000092 _ZN12AvoidMobGoal24findNearestEntityToAvoidEv
0053b420 g    DF .text	000000be _ZN11BlockSource25getNearestEntityNotOfTypeEP6EntityRK4Vec3f10EntityType
00267a78 g    DF .text	0000004c _ZN16AvoidMobTypeGoal24findNearestEntityToAvoidEv
0053b37c g    DF .text	000000a2 _ZN11BlockSource22getNearestEntityOfTypeEP6EntityRK4Vec3f10EntityType
00267ac4 g    DF .text	00000038 _ZN16BrewingStandMenu22_getBrewingStandEntityEv
006abfe8 g    DO .bss	00000004 _ZN5Block13mBrewingStandE
00267afc g    DF .text	00000016 _ZN16BrewingStandMenu7getSlotEi
00267b14 g    DF .text	00000018 _ZN16BrewingStandMenu7setSlotEiR12ItemInstance
00267b2c g    DF .text	00000020 _ZN16BrewingStandMenu10removeSlotEii
00267b4c g    DF .text	0000004a _ZN16BrewingStandMenu16broadcastChangesEv
003e3cb8 g    DF .text	00000110 _ZN17BaseContainerMenu16broadcastChangesEv
003bd584 g    DF .text	00000004 _ZNK17BaseContainerMenu11getListenerEv
00313e00 g    DF .text	00000004 _ZNK23BrewingStandBlockEntity11getBrewTimeEv
00267b98 g    DF .text	00000028 _ZN16BrewingStandMenu11setListenerEP18IContainerListener
003ad494 g    DF .text	0000009c _ZN17BaseContainerMenu11setListenerEP18IContainerListener
00267bc0 g    DF .text	000000d8 _ZNK14PathNavigation12_getSurfaceYEv
00520354 g    DF .text	00000016 _ZN11BlockSource11getMaterialEiii
00267c98 g    DF .text	00000028 _ZNK14PathNavigation14_getTempMobPosEv
00267cc0 g    DF .text	00000086 _ZN27NearestAttackableTargetGoal6canUseEv
004a5ad0 g    DF .text	00000028 _ZNK10TargetGoal17getFollowDistanceEv
0042605c g    DF .text	00000018 _ZN5Level26getNearestAttackablePlayerER6Entityf
00267d48 g    DF .text	0000018c _ZN3Mob23_doSprintParticleEffectEv
004ad8a4 g    DF .text	00000004 _ZN5Block13getBlockShapeEv
00267ed8 g    DF .text	00000028 _ZN3Mob21_updateSprintingStateEv
00267f00 g    DF .text	00000118 _ZNK14PathNavigation13_canWalkAboveEiiiiiiRK4Vec3ff
00268018 g    DF .text	000000b8 _ZN3Mob8onLadderEb
006abffc g    DO .bss	00000004 _ZN5Block5mVineE
002680d0 g    DF .text	00000124 _ZNK14PathNavigation10_canWalkOnEiiiiiiRK4Vec3ff
0052033c g    DF .text	00000016 _ZN11BlockSource8getBlockEiii
002681f4 g    DF .text	0000022c _ZNK14PathNavigation16_canMoveDirectlyERK4Vec3S2_iii
00268420 g    DF .text	0000003e _ZN3Mob8canSpawnEb
00268460 g    DF .text	00000158 _ZN3Mob12pushEntitiesEv
00539e64 g    DF .text	000001d4 _ZN11BlockSource11getEntitiesEP6EntityRK4AABB
00506728 g    DF .text	00000014 _ZN15EntityClassTree12isItemEntityERK6Entity
002685b8 g    DF .text	00000250 _ZN13LookAtMobGoal6canUseEv
00268808 g    DF .text	000000a8 _ZN10BottleItem5useOnEP12ItemInstanceP6Playeriiiafff
003227ec g    DF .text	00000018 _ZN12ItemInstanceC1EPK4Item
006ac160 g    DO .bss	00000004 _ZN5Block11mStillWaterE
006acf4c g    DO .bss	00000004 _ZN4Item7mPotionE
002688b0 g    DF .text	000000c8 _ZN9ThrownEgg5onHitERK9HitResult
0042b0bc g    DF .text	000000be _ZN9Throwable12throwableHitERK9HitResultii
0052ddb0 g    DF .text	000002b4 _ZN7ChickenC1ER11BlockSource
006ad03c g    DO .bss	00000004 _ZN4Item4mEggE
00268978 g    DF .text	00000104 _ZN6Entity17checkInsideBlocksEf
002bb728 g    DF .text	0000009c _ZNK4AABB11flooredCopyEff
00268a80 g    DF .text	0000056c _ZN3Mob6travelEff
002c0544 g    DF .text	00000058 _ZN12EnchantUtils19getBestEnchantLevelEiRK3Mob
006aef3c g    DO .bss	0000000c _ZN7Enchant9mEnchantsE
003bcbf8 g    DF .text	0000000c _ZNK9Abilities8isFlyingEv
004acd50 g    DF .text	00000004 _ZN5Block11getFrictionEv
00268ff0 g    DF .text	000002f8 _ZN3Mob4dropEPK12ItemInstanceb
00460040 g    DF .text	00000104 _ZN10ItemEntityC1ER11BlockSourceRK4Vec3RK12ItemInstancei
002692e8 g    DF .text	0000004e _ZN6Entity15spawnAtLocationERK12ItemInstancef
00269338 g    DF .text	000001fc _ZN17FlintAndSteelItem5useOnEP12ItemInstanceP6Playeriiiafff
0051c0cc g    DF .text	00000026 _ZN11BlockSource8setBlockEiii7BlockIDi
003c5268 g    DF .text	00000004 _ZNK9Dimension5getIdEv
002e876c g    DF .text	000000dc _ZN11PortalBlock14trySpawnPortalER11BlockSourceRK8BlockPos
002c31bc g    DF .text	00000034 _ZN20TelemetryEventPacketC1EPK6Player11DimensionId
006ac0d4 g    DO .bss	00000004 _ZN5Block9mObsidianE
00269538 g    DF .text	000000c4 _ZN18ItemInHandRenderer18renderScreenEffectER6Playerf
002695fc g    DF .text	00000126 _ZN12MinecartItem5useOnEP12ItemInstanceP6Playeriiiafff
0050ac88 g    DF .text	00000050 _ZN13BaseRailBlock6isRailEi
0050c868 g    DF .text	00000010 _ZNK6Player7useItemER12ItemInstance
0050f360 g    DF .text	00000036 _ZN8Minecart14createMinecartER11BlockSourceRK4Vec312MinecartType
00269724 g    DF .text	0000004c _ZN6Entity11_tryPlaceAtERK4Vec3
00269770 g    DF .text	000000fc _ZN10MobFactory20_updateBaseTypeCountER6Player
004a41f4 g    DF .text	00000042 _ZN8BlockPosC1Efff
0043c188 g    DF .text	00000014 _ZN8ChunkPosC1ERK8BlockPos
005183b4 g    DF .text	00000040 _ZN11BlockSource8getChunkERK8ChunkPos
004a80cc g    DF .text	0000000a _ZNK10LevelChunk11getEntitiesEv
0026986c g    DF .text	000000cc _ZN3Mob3dieERK18EntityDamageSource
002c3274 g    DF .text	00000058 _ZN20TelemetryEventPacketC1EPK6PlayerPK6EntityPK3Mob17EntityDamageCause
003bd370 g    DF .text	0000007c _ZN13ExperienceOrb9spawnOrbsER11BlockSourceRK4Vec3iP6Player
00269938 g    DF .text	00000008 _ZNK6Entity12getDimensionEv
00269940 g    DF .text	0000000c _ZNK6Entity13isRegionValidEv
0026994c g    DF .text	00000008 _ZN6Entity11resetRegionEv
00269954 g    DF .text	0000000a _ZNK6Entity12shouldRenderEv
00269960 g    DF .text	00000120 _ZNK6Entity9saveLinksEv
00269a80 g    DF .text	00000004 _ZNK6Entity13getEntityDataEv
00269a84 g    DF .text	00000004 _ZN6Entity13getEntityDataEv
00269a88 g    DF .text	0000018c _ZN3Mob17_sendDirtyMobDataEv
00496d6c g    DF .text	0000007e _ZN16BaseAttributeMap18getDirtyAttributesEv
00340028 g    DF .text	000000e8 _ZN22UpdateAttributesPacketC1ERK3MobRKSt6vectorI23AttributeInstanceHandleSaIS4_EE
00496dec g    DF .text	00000064 _ZN16BaseAttributeMap20clearDirtyAttributesEv
0045facc g    DF .text	00000078 _ZN17SynchedEntityData9packDirtyEv
005e6800 g    DO .data.rel.ro	00000020 _ZTV22UpdateAttributesPacket
00269c14 g    DF .text	00000018 _ZNK6Entity13getStatusFlagEi
00269c2c g    DF .text	00000006 _ZNK3Mob11isSprintingEv
00269c34 g    DF .text	00000006 _ZNK3Mob10isSneakingEv
00269c3c g    DF .text	00000012 _ZNK6Entity8isOnFireEv
00269c50 g    DF .text	00000006 _ZN6Entity11isInvisibleEv
00269c58 g    DF .text	00000090 _ZN6Entity13setStatusFlagEib
00269ce8 g    DF .text	00000134 _ZN3Mob12setSprintingEb
00530a20 g    DF .text	00000006 _ZN17AttributeInstance14removeModifierESt10shared_ptrI17AttributeModifierE
00530b6c g    DF .text	00000006 _ZN17AttributeInstance11addModifierESt10shared_ptrI17AttributeModifierE
006467d8 g    DO .bss	00000008 _ZN15SharedModifiers15SPRINTING_BOOSTE
00269e1c g    DF .text	00000008 _ZN3Mob11setSneakingEb
00269e24 g    DF .text	0000004c _ZN3Mob12setInvisibleEb
00269e70 g    DF .text	0000011c _ZN3Mob24updateInvisibilityStatusEv
005249ac g    DF .text	00000138 _ZN17MobEffectInstance13getColorValueERKSt6vectorIS_SaIS_EE
00524ae4 g    DF .text	00000022 _ZN17MobEffectInstance20areAllEffectsAmbientERKSt6vectorIS_SaIS_EE
006aa948 g    DO .bss	00000004 _ZN9MobEffect12INVISIBILITYE
00269f90 g    DF .text	0000020c _ZN3Mob11tickEffectsEv
00524b14 g    DF .text	0000001c _ZN17MobEffectInstance4tickEP3Mob
0043ba18 g    DF .text	00000018 _ZNK17SynchedEntityData6getIntEh
0026a1a0 g    DF .text	0000002a _ZN6Entity10normalTickEv
0026a1d0 g    DF .text	00000638 _ZN8Fireball10normalTickEv
0051854c g    DF .text	00000012 _ZN11BlockSource11hasChunksAtERK8BlockPosi
002b989c g    DF .text	0000009e _ZN4AABB6expandERK4Vec3
002baffc g    DF .text	0000072c _ZNK4AABB4clipERK4Vec3S2_
0032a678 g    DF .text	00000026 _ZN9HitResultC1ER6Entity
0026a808 g    DF .text	0000048c _ZN3Mob10normalTickEv
003c8088 g    DF .text	0000017c _ZN20MovementInterpolator4tickER6Entity
0031e340 g    DF .text	0000023c _ZN11BodyControl10clientTickEv
0026ac98 g    DF .text	000004bc _ZN13LightningBolt10normalTickEv
0043df78 g    DF .text	00000004 _ZN7Weather15setSkyFlashTimeEi
0051c0f4 g    DF .text	0000001a _ZN11BlockSource8setBlockERK8BlockPos7BlockIDi
0026b158 g    DF .text	00000004 _ZNK6Entity11isDebuggingEv
0026b160 g    DF .text	000002c0 _ZN6Entity20getRandomPointInAABBER6Random
0026b420 g    DF .text	000002a4 _ZN6Entity8baseTickEv
0052036c g    DF .text	000000aa _ZN11BlockSource17containsFireBlockERK4AABB
0026b6c8 g    DF .text	00000014 _ZNK6Entity6isRideEv
0026b6dc g    DF .text	00000560 _ZN6Entity13saveWithoutIdER11CompoundTag
00000000      DF *UND*	00000000 _ZNKSs7compareEPKc
0026bc3c g    DF .text	00000014 _ZNK6Entity7isRiderERS_
0026bc50 g    DF .text	00000020 _ZNK6Entity11canAddRiderERS_
0026bc70 g    DF .text	0000000c _ZNK6Entity8isRidingEv
0026bc7c g    DF .text	00000048 _ZN6Entity11startRidingERS_
0026bcc4 g    DF .text	00000060 _ZN6Entity16updateWaterStateEv
00425c98 g    DF .text	000001d4 _ZN5Level19checkAndHandleWaterERK4AABB12MaterialTypeP6Entity
0026bd24 g    DF .text	00000110 _ZN3Mob14updateWalkAnimEv
0026be34 g    DF .text	000000ce _ZN19HumanoidMobRenderer12prepareArmorER3Mob9ArmorSlotf
00433a3c g    DF .text	00000006 _ZN11MobRenderer8setArmorER5Model
0026bf04 g    DF .text	00000006 _ZNK6Entity12getAirSupplyEv
0026bf0c g    DF .text	00000018 _ZNK6Entity12getEyeHeightEv
0026bf24 g    DF .text	00000028 _ZN6Entity9getEyePosEv
0026bf4c g    DF .text	00000006 _ZNK6Entity9isRemovedEv
0026bf54 g    DF .text	0000000e _ZN3Mob10isPickableEv
0026bf64 g    DF .text	00000020 _ZNK3Mob10isPushableEv
0026bf84 g    DF .text	0000001e _ZN3Mob7isAliveEv
0026bfa8 g    DF .text	000003d0 _ZN3Mob8updateAiEv
0026c378 g    DF .text	00000060 _ZNK6Entity13positionRiderERS_
0026c3d8 g    DF .text	0000031c _ZN3Mob6aiStepEv
0042954c g    DF .text	00000006 _ZNK5Level14getCurrentTickEv
003c4fa8 g    DF .text	0000000c _ZNK9Dimension5isDayEv
003c50d4 g    DF .text	00000006 _ZNK9Dimension12getSkyDarkenEv
0053ad50 g    DF .text	000001d2 _ZN11BlockSource11getEntitiesE10EntityTypeRK4AABBP6Entity
006acec8 g    DO .bss	00000001 _ZN10Brightness3MAXE
0026c6f4 g    DF .text	0000008c _ZN6Entity4saveER11CompoundTag
0026c780 g    DF .text	00000006 _ZNK6Entity8isGlobalEv
0026c788 g    DF .text	00000006 _ZN6Entity9setGlobalEb
0026c790 g    DF .text	0000001a _ZNK6Entity9isInWorldEv
0026c7ac g    DF .text	00000092 _ZN6Entity17_updateOwnerChunkEv
004a7f8c g    DF .text	0000008e _ZN10LevelChunk12removeEntityER6Entity
004cc6d8 g    DF .text	00000048 _ZN10LevelChunk9addEntityESt10unique_ptrI6EntitySt14default_deleteIS1_EE
0026c840 g    DF .text	00000092 _ZN6Entity6setPosERK4Vec3
0026c8d4 g    DF .text	0000003e _ZN6Entity20enableAutoSendPosRotEb
0026c914 g    DF .text	0000000c _ZNK6Entity17isAutoSendEnabledEv
0026c920 g    DF .text	0000003c _ZNK6Entity27isControlledByLocalInstanceEv
0026c95c g    DF .text	0000012c _ZN6Entity24sendMotionPacketIfNeededEv
002b8e80 g    DF .text	00000048 _ZN20MoveEntityPacketDataC1ER6Entity
002b8ec8 g    DF .text	0000011c _ZNK20MoveEntityPacketData13distantEnoughERKS_RK4Vec3f
0026ca88 g    DF .text	00000012 _ZN6Entity9setRegionER11BlockSource
005182e8 g    DF .text	00000006 _ZNK11BlockSource14getDimensionIdEv
0026ca9c g    DF .text	00000042 _ZNK6Entity23getInterpolatedPositionEf
0026cae0 g    DF .text	0000003c _ZN6Entity9getCenterEf
002bb858 g    DF .text	00000032 _ZNK4AABB9getBoundsEv
0026cb1c g    DF .text	0000002a _ZN6Entity13getBrightnessEf
0051ab84 g    DF .text	0000002a _ZN11BlockSource13getBrightnessERK8BlockPos
0026cb48 g    DF .text	00000042 _ZNK6Entity24getInterpolatedPosition2Ef
0026cb8c g    DF .text	0000004e _ZNK6Entity11getRotationEv
0026cbdc g    DF .text	0000001a _ZNK6Entity12buildForwardEv
003d6fb0 g    DF .text	00000012 _ZN4Vec321directionFromRotationERK4Vec2
0026cbf8 g    DF .text	00000070 _ZNK6Entity23getInterpolatedRotationEf
0026cc68 g    DF .text	000000cc _ZNK6Entity13getViewVectorEf
0026cd34 g    DF .text	00000088 _ZN3Mob4pickEffb
0026cdbc g    DF .text	000000f4 _ZN8Fireball4hurtERK18EntityDamageSourcei
0026ceb0 g    DF .text	00000140 _ZN6Entity9_exitRideERKS_f
0026cff0 g    DF .text	000000c0 _ZN6Entity10stopRidingEb
005dc378  w   DO .data.rel.ro	00000020 _ZTV14InteractPacket
0026d0b0 g    DF .text	0000009c _ZNK6Entity14getViewVector2Ef
0026d14c g    DF .text	00000006 _ZNK6Entity20getPortalEntranceDirEv
0026d154 g    DF .text	00000198 _ZN7SaplingC2ERKSsiS1_
003821d4 g    DF .text	0000006c _ZN9BushBlockC2ERKSsiS1_RK8Material
00485660 g    DF .text	00000006 _ZN5Block14setVisualShapeERK4Vec3S2_
005df668 g    DO .data.rel.ro	00000174 _ZTV7Sapling
0026d154 g    DF .text	00000198 _ZN7SaplingC1ERKSsiS1_
0026d2ec g    DF .text	0000004c _ZN7Sapling9isSaplingER11BlockSourceRK8BlockPosi
0051f094 g    DF .text	00000016 _ZN11BlockSource7getDataEiii
0026d338 g    DF .text	00000114 _ZN7Sapling19generateRedwoodTreeERiS0_RbRK8BlockPosR11BlockSource
003198f4 g    DF .text	00000030 _ZN19MegaPineTreeFeatureC1Ebb
0026d44c g    DF .text	0000011c _ZN7Sapling18generateJungleTreeERiS0_RbRK8BlockPosR11BlockSource
00522298 g    DF .text	00000028 _ZN21MegaJungleTreeFeatureC1Ebiiii
0026d568 g    DF .text	00000112 _ZN7Sapling16generateRoofTreeERiS0_RbRK8BlockPosR11BlockSource
003704f4 g    DF .text	00000028 _ZN15RoofTreeFeatureC1Eb
0026d67c g    DF .text	00000340 _ZN7Sapling8growTreeER11BlockSourceRK8BlockPosR6Random
00366b0c g    DF .text	00000028 _ZN11TreeFeatureC2Ebiib
0051c51c g    DF .text	00000026 _ZN11BlockSource16setBlockNoUpdateEiii7BlockID
0051c544 g    DF .text	00000026 _ZN11BlockSource23setBlockAndDataNoUpdateEiii9FullBlock
003bab94 g    DF .text	00000054 _ZN16FancyTreeFeatureC1Ev
002b8834 g    DF .text	00000028 _ZN13SpruceFeatureC1Eb
00325100 g    DF .text	0000002c _ZN12BirchFeatureC1Ebb
00366b0c g    DF .text	00000028 _ZN11TreeFeatureC1Ebiib
00378f40 g    DF .text	00000024 _ZN18SavannaTreeFeatureC1Eb
005dc3f0  w   DO .data.rel.ro	00000014 _ZTV10OakFeature
0026d9bc g    DF .text	00000046 _ZN7Sapling11AdvanceTreeER11BlockSourceRK8BlockPosR6Random
0051c2ac g    DF .text	0000001a _ZN11BlockSource15setBlockAndDataERK8BlockPos7BlockIDhi
0026da04 g    DF .text	00000094 _ZN7Sapling4tickER11BlockSourceRK8BlockPosR6Random
003596f8 g    DF .text	0000000c _ZN9BushBlock4tickER11BlockSourceRK8BlockPosR6Random
0051a734 g    DF .text	000001f4 _ZN11BlockSource16getRawBrightnessERK8BlockPosb
0026da98 g    DF .text	000001a4 _ZN7Sapling12onFertilizedER11BlockSourceRK8BlockPosP6Player
0050c290 g    DF .text	00000010 _ZNK6Player10IsCreativeEv
0026dc40 g    DF .text	00000018 _ZN3mce29ConstantBufferMetaDataManagerC2Ev
0026dc40 g    DF .text	00000018 _ZN3mce29ConstantBufferMetaDataManagerC1Ev
0026dc58 g    DF .text	0000019c _ZNK3mce29ConstantBufferMetaDataManager19findUniformMetaDataERKSs
0026ddf4 g    DF .text	0000013c _ZN3mce29ConstantBufferMetaDataManager18findConstantBufferERKSs
0026df30 g    DF .text	00000168 _ZNK3mce22ConstantBufferMetaData24getUniformMetaDataByNameERKSs
0026e098 g    DF .text	0000000a _ZN3mce14WorldConstantsC2Ev
0026e098 g    DF .text	0000000a _ZN3mce14WorldConstantsC1Ev
0026e0a4 g    DF .text	00000028 _ZN20DataBindingComponentC2ERSt10shared_ptrI9UIControlE
0026e0a4 g    DF .text	00000028 _ZN20DataBindingComponentC1ERSt10shared_ptrI9UIControlE
0026e0cc g    DF .text	00000400 _ZN20DataBindingComponent19_bindConcreteFieldsERKSsRKSt10shared_ptrI9UIControlER10VisualTree
003b8cd8 g    DF .text	00000006 _ZNK9UIControl10getVisibleEv
003b8ce0 g    DF .text	00000006 _ZN9UIControl10setVisibleEb
003dd248 g    DF .text	00000004 _ZN10VisualTree8setDirtyEN2UI9DirtyFlagE
002c7c30 g    DF .text	00000004 _ZNK14InputComponent25getDefaultFocusPrecedenceEv
002c7c34 g    DF .text	00000004 _ZN14InputComponent25setDefaultFocusPrecedenceEi
003269fc g    DF .text	00000004 _ZNK15SpriteComponent12getClipRatioEv
00326a00 g    DF .text	00000004 _ZN15SpriteComponent12setClipRatioEf
004a6ba0 g    DF .text	0000000a _ZNK4Json5Value6isBoolEv
004a661c g    DF .text	0000007a _ZNK4Json5Value6asBoolEb
003b8ce8 g    DF .text	00000006 _ZNK9UIControl10getEnabledEv
003b8cf0 g    DF .text	00000006 _ZN9UIControl10setEnabledEb
004a6be4 g    DF .text	00000018 _ZNK4Json5Value9isNumericEv
004a65a8 g    DF .text	00000074 _ZNK4Json5Value7asFloatEf
0064565c  w   DO .bss	00000004 _ZGVZ7type_idI14InputComponentE8typeid_tvE2id
00645644  w   DO .bss	00000002 _ZZ7type_idI14InputComponentE8typeid_tvE2id
00645658  w   DO .bss	00000004 _ZGVZ7type_idI15SpriteComponentE8typeid_tvE2id
00645640  w   DO .bss	00000002 _ZZ7type_idI15SpriteComponentE8typeid_tvE2id
006473a8 g    DO .bss	00000002 _ZN8typeid_t5countE
0026e4cc g    DF .text	000000d8 _ZN9RandomPos12snapToGroundER8BlockPosRK13PathfinderMobi
0026e5a4 g    DF .text	00000334 _ZN9RandomPos17generateRandomPosER4Vec3R13PathfinderMobiiPS0_
002ce360 g    DF .text	0000001c _ZNK13PathfinderMob14hasRestrictionEv
002ce340 g    DF .text	00000018 _ZNK13PathfinderMob17getRestrictCenterEv
002ce37c g    DF .text	00000068 _ZNK13PathfinderMob19isWithinRestrictionERK8BlockPos
002ce358 g    DF .text	00000008 _ZNK13PathfinderMob17getRestrictRadiusEv
0026e8d8 g    DF .text	00000010 _ZN9RandomPos6getPosER4Vec3R13PathfinderMobii
0026e8e8 g    DF .text	00000194 _ZN16RandomStrollGoal6canUseEv
002ce318 g    DF .text	00000006 _ZN13PathfinderMob15getNoActionTimeEv
0026ea7c g    DF .text	0000005e _ZN9RandomPos13getPosTowardsER4Vec3R13PathfinderMobiiRKS0_
0026eadc g    DF .text	0000005e _ZN9RandomPos11getPosAvoidER4Vec3R13PathfinderMobiiRKS0_
0026eb3c g    DF .text	00000080 _ZN21AttackDamageMobEffectC2EiRKSsS1_bii
00430b08 g    DF .text	0000005c _ZN9MobEffectC2EiSsRKSsbii
0026eb3c g    DF .text	00000080 _ZN21AttackDamageMobEffectC1EiRKSsS1_bii
0026ebbc g    DF .text	0000001c _ZN11EntityBlockC2ERKSsiRK8Material
0026ebbc g    DF .text	0000001c _ZN11EntityBlockC1ERKSsiRK8Material
0026ebd8 g    DF .text	00000024 _ZN11EntityBlockC2ERKSsiS1_RK8Material
0026ebd8 g    DF .text	00000024 _ZN11EntityBlockC1ERKSsiS1_RK8Material
0026ebfc g    DF .text	00000040 _ZN13DebugRendererC2Ev
006acf10 g    DO .bss	0000000c _ZN8BlockPos3MAXE
006450e0 g    DO .bss	0000000c _ZN13DebugRenderer14sDebugBlockPosE
006450f0 g    DO .bss	00000004 _ZN13DebugRenderer9sInstanceE
006450ec g    DO .bss	00000004 _ZN13DebugRenderer12sDebugEntityE
0026ebfc g    DF .text	00000040 _ZN13DebugRendererC1Ev
0026ec3c g    DF .text	00000002 _ZN13DebugRendererD2Ev
0026ec3c g    DF .text	00000002 _ZN13DebugRendererD1Ev
0026ec40 g    DF .text	00000310 _ZN19VillagerZombieModelC2Effb
004a0f98 g    DF .text	00000320 _ZN13HumanoidModelC2Effii
005df808 g    DO .data.rel.ro	0000003c _ZTV19VillagerZombieModel
0026ec40 g    DF .text	00000310 _ZN19VillagerZombieModelC1Effb
0026ef50 g    DF .text	00000012 _ZN19VillagerZombieModelC2Ev
0026ef50 g    DF .text	00000012 _ZN19VillagerZombieModelC1Ev
0026ef64 g    DF .text	00000008 _ZN11BlockEntity10setChangedEv
0026ef6c g    DF .text	0000002c _ZN16BrewingStandMenu7setDataEii
00313e04 g    DF .text	00000004 _ZN23BrewingStandBlockEntity11setBrewTimeEi
0026ef98 g    DF .text	00000072 _ZN11BlockEntity13distanceToSqrERK4Vec3
0026f00c g    DF .text	0000000a _ZN11BlockEntity6isTypeE15BlockEntityType
0026f018 g    DF .text	00000004 _ZN11BlockEntity6isTypeERS_15BlockEntityType
0026f01c g    DF .text	0000002c _ZNK11BlockEntity9isInWorldEv
006acf1c g    DO .bss	0000000c _ZN8BlockPos3MINE
0026f048 g    DF .text	00000008 _ZN11BlockEntity11stopDestroyEv
0026f050 g    DF .text	00000004 _ZNK11BlockEntity7getAABBEv
0026f054 g    DF .text	00000030 _ZN11BlockEntity5setBBE4AABB
0026f084 g    DF .text	00000004 _ZNK11BlockEntity11getPositionEv
0026f088 g    DF .text	00000004 _ZNK11BlockEntity7getDataEv
0026f08c g    DF .text	00000004 _ZN11BlockEntity7setDataEi
0026f090 g    DF .text	00000004 _ZNK11BlockEntity7getTypeEv
0026f094 g    DF .text	00000004 _ZNK11BlockEntity12getRunningIdEv
0026f098 g    DF .text	00000040 _ZN16BrewingStandMenuC2ER6PlayerRK8BlockPos
0026f098 g    DF .text	00000040 _ZN16BrewingStandMenuC1ER6PlayerRK8BlockPos
0026f0d8 g    DF .text	00000004 _ZN11BlockEntity12setRunningIdEi
0026f0dc g    DF .text	00000006 _ZNK11BlockEntity16isClientSideOnlyEv
0026f0e4 g    DF .text	00000006 _ZN11BlockEntity17setClientSideOnlyEb
0026f0ec g    DF .text	00000004 _ZNK11BlockEntity13getRendererIdEv
0026f0f0 g    DF .text	00000004 _ZN11BlockEntity13setRendererIdE21BlockEntityRendererId
0026f0f4 g    DF .text	0000005c _ZN11BlockEntity10_resetAABBEv
0026f150 g    DF .text	000000b8 _ZN11BlockEntityC2E15BlockEntityTypeRK8BlockPosRKSs
006450ac g    DO .bss	00000004 _ZN11BlockEntity10_runningIdE
0026f150 g    DF .text	000000b8 _ZN11BlockEntityC1E15BlockEntityTypeRK8BlockPosRKSs
0026f208 g    DF .text	00000080 _ZN16SkullBlockEntityC2ERK8BlockPos
0026f208 g    DF .text	00000080 _ZN16SkullBlockEntityC1ERK8BlockPos
0026f288 g    DF .text	000000a4 _ZN21EnchantingTableEntityC2ERK8BlockPos
0026f288 g    DF .text	000000a4 _ZN21EnchantingTableEntityC1ERK8BlockPos
0026f32c g    DF .text	0000014c _ZN11BlockEntity18_destructionWobbleERfS0_S0_
005a84b8 g    DO .rodata	00000004 _ZN3Mth3TAUE
0026f478 g    DF .text	00000012 _ZN9WhitelistC2Eb
0026f478 g    DF .text	00000012 _ZN9WhitelistC1Eb
0026f48c g    DF .text	00000006 _ZN9Whitelist8activateEv
0026f494 g    DF .text	00000006 _ZN9Whitelist10deactivateEv
0026f49c g    DF .text	00000004 _ZNK9Whitelist8isActiveEv
0026f4a0 g    DF .text	0000004e _ZNK9Whitelist6inListERKN3mce4UUIDE
0026f4f0 g    DF .text	0000000c _ZNK9Whitelist9isAllowedERKN3mce4UUIDE
0026f4fc g    DF .text	00000034 _ZNK9Whitelist11UuidCompareclERKN3mce4UUIDES4_
0026f530 g    DF .text	000000c0 _ZN9Whitelist3addERKN3mce4UUIDE
00000000      DF *UND*	00000000 _ZSt18_Rb_tree_decrementPSt18_Rb_tree_node_base
00000000      DF *UND*	00000000 _ZSt29_Rb_tree_insert_and_rebalancebPSt18_Rb_tree_node_baseS0_RS_
0026f5f0 g    DF .text	00000048 _ZN11DeathScreenC2ER15MinecraftClient
0026f5f0 g    DF .text	00000048 _ZN11DeathScreenC1ER15MinecraftClient
0026f638 g    DF .text	000000d0 _ZN11LiquidBlockC2ERKSsiRK8Material
0050ae64 g    DF .text	00000038 _ZN23TextureAtlasTextureItemC1Ev
00482d4c g    DF .text	00000010 _ZN5Block10setTickingEb
0026f638 g    DF .text	000000d0 _ZN11LiquidBlockC1ERKSsiRK8Material
0026f708 g    DF .text	00000310 _ZN11LiquidBlock13trySpreadFireER11BlockSourceRK8BlockPosR6Random
00518408 g    DF .text	00000028 _ZN11BlockSource12getTickQueueERK8BlockPos
0049de38 g    DF .text	00000004 _ZNK17BlockTickingQueue14isInstatickingEv
0038039c g    DF .text	00000004 _ZNK8Material11isFlammableEv
0026fa18 g    DF .text	00000028 _ZN11LiquidBlock17getHeightFromDataEi
0026fa40 g    DF .text	000000fc _ZN16BlockTessellator14getWaterHeightERK8BlockPosRK8Material
00380488 g    DF .text	00000004 _ZNK8Material7isSolidEv
0026fb3c g    DF .text	00000140 _ZNK6Entity13isUnderLiquidE12MaterialType
0026fc7c g    DF .text	000001bc _ZN12DripParticle10normalTickEv
0026fe38 g    DF .text	00000034 _ZNK11LiquidBlock12getTickDelayER11BlockSource
005182f0 g    DF .text	00000004 _ZNK11BlockSource17getDimensionConstEv
003c5ea0 g    DF .text	00000004 _ZNK9Dimension11isUltraWarmEv
0026fe6c g    DF .text	0000004c _ZN11LiquidBlock13getBrightnessER11BlockSourceRK8BlockPos
0026feb8 g    DF .text	000003d4 _ZN11LiquidBlock16emitFizzParticleER11BlockSourceRK8BlockPos
005204b0 g    DF .text	00000004 _ZNK11BlockSource15getPublicSourceEv
004264a4 g    DF .text	00000058 _ZN5Level23broadcastDimensionEventER11BlockSource10LevelEventRK4Vec3iP6Player
00270290 g    DF .text	00000028 _ZN11LiquidBlock8getDepthER11BlockSourceRK8BlockPos
002702b8 g    DF .text	0000002e _ZN11LiquidBlock16getRenderedDepthER11BlockSourceRK8BlockPos
002702e8 g    DF .text	000000c0 _ZN11LiquidBlock8solidifyER11BlockSourceRK8BlockPosS4_
006ac174 g    DO .bss	00000004 _ZN5Block12mCobblestoneE
002703a8 g    DF .text	00000004 _ZN11LiquidBlock15neighborChangedER11BlockSourceRK8BlockPosS4_
002703ac g    DF .text	0000009e _ZN11LiquidBlock7onPlaceER11BlockSourceRK8BlockPos
0027044c g    DF .text	000003bc _ZN11LiquidBlock8_getFlowER11BlockSourceRK8BlockPos
00270808 g    DF .text	0000004c _ZN11LiquidBlock18handleEntityInsideER11BlockSourceRK8BlockPosP6EntityR4Vec3
00270854 g    DF .text	000000c4 _ZN11LiquidBlock13getSlopeAngleER11BlockSourceRK8BlockPosRK8Material
006ac164 g    DO .bss	00000004 _ZN5Block13mFlowingWaterE
006ac15c g    DO .bss	00000004 _ZN5Block12mFlowingLavaE
00270918 g    DF .text	0000003c _ZN27NearestAttackableTargetGoalC2ER13PathfinderMob10EntityTypefibb
005dd980 g    DO .data.rel.ro	00000030 _ZTV27NearestAttackableTargetGoal
00270918 g    DF .text	0000003c _ZN27NearestAttackableTargetGoalC1ER13PathfinderMob10EntityTypefibb
00270954 g    DF .text	00000034 _ZN8OreBlockC2ERKSsiS1_
00270954 g    DF .text	00000034 _ZN8OreBlockC1ERKSsiS1_
00270988 g    DF .text	00000038 _ZN16RandomStrollGoalC2ER13PathfinderMobfii
00270988 g    DF .text	00000038 _ZN16RandomStrollGoalC1ER13PathfinderMobfii
002709c0 g    DF .text	000000e0 _ZN18NetherReactorBlockC2ERKSsiS1_RK8Material
005dfae8 g    DO .data.rel.ro	0000016c _ZTV18NetherReactorBlock
002709c0 g    DF .text	000000e0 _ZN18NetherReactorBlockC1ERKSsiS1_RK8Material
00270aa0 g    DF .text	00000108 _ZN18NetherReactorBlock9_dropItemER11BlockSourceRK8BlockPosP4Item
003228f8 g    DF .text	00000016 _ZN12ItemInstanceC1EPK4Itemi
00270ba8 g    DF .text	00000060 _ZN18NetherReactorBlock14spawnResourcesER11BlockSourceRK8BlockPosifi
006ad178 g    DO .bss	00000004 _ZN4Item10mIronIngotE
00270c08 g    DF .text	0000006c _ZN15StoneBeachBiomeC2Ei
004c5614 g    DF .text	000004e8 _ZN5BiomeC2EiNS_9BiomeTypeESt10unique_ptrI14BiomeDecoratorSt14default_deleteIS2_EE
00270c08 g    DF .text	0000006c _ZN15StoneBeachBiomeC1Ei
00270c74 g    DF .text	00000016 _ZNK13BlockOccluder8occludesEa
00270c8c g    DF .text	000006bc _ZN16BlockTessellator43tessellateBlockInWorldWithAmbienceOcclusionER5Block8BlockPosRK5ColorRK13BlockOccluder
0049c198 g    DF .text	0000008c _ZN26AmbientOcclusionCalculatorC1ERK8BlockPosR5BlockR21BlockTessallatorCache
004ac2e4 g    DF .text	00000024 _ZN26AmbientOcclusionCalculator13isTranslucentERK8BlockPos
0049c24c g    DF .text	00000004 _ZN26AmbientOcclusionCalculator10setSeasonsEb
0049c224 g    DF .text	00000012 _ZN26AmbientOcclusionCalculator12setBaseColorERK5Color
0049c238 g    DF .text	00000004 _ZN26AmbientOcclusionCalculator15setOutputColorsEP5Color
0049c23c g    DF .text	00000004 _ZN26AmbientOcclusionCalculator30setOutputLightTexturePositionsEPj
0049c240 g    DF .text	00000004 _ZN26AmbientOcclusionCalculator22setLightColorPositionsEP8BlockPos
0049c244 g    DF .text	00000004 _ZN26AmbientOcclusionCalculator18setCornerPositionsEP8BlockPos
0049c248 g    DF .text	00000004 _ZN26AmbientOcclusionCalculator12setTintSidesEb
0049c250 g    DF .text	00000004 _ZN26AmbientOcclusionCalculator12setTouchEdgeEb
004ae5f8 g    DF .text	00000314 _ZN26AmbientOcclusionCalculator9calculateEab
00271348 g    DF .text	0000041a _ZN16BlockTessellator26tessellateBlockInWorldFlatER5BlockRK8BlockPosRK5ColorRK13BlockOccluder
00271764 g    DF .text	00000024 _ZN13BlockOccluder12_setOccludedEab
00271788 g    DF .text	00000050 _ZN13BlockOccluder14_istransparentERK8BlockPos
004ae390 g    DF .text	0000000c _ZNK5Block11hasPropertyE13BlockProperty
002717d8 g    DF .text	000000fc _ZN13BlockOccluder15isDeepLeafBlockERK8BlockPos
004adc64 g    DF .text	00000004 _ZN5Block14getRenderLayerEv
006ac13c g    DO .bss	00000004 _ZN5Block7mLeavesE
002718d4 g    DF .text	00000108 _ZN13BlockOccluder17_shouldRenderFaceERK8BlockPosaRK4AABB
004ad090 g    DF .text	00000010 _ZNK5Block7isSolidEv
006abf24 g    DO .bss	00000004 _ZN5Block11mWoolCarpetE
002719dc g    DF .text	0000002e _ZN13BlockOccluder14_shouldOccludeEaRK4AABBRK8BlockPos
004a4d24 g    DF .text	00000054 _ZNK8BlockPos8relativeEai
00271a0c g    DF .text	000000aa _ZN13BlockOccluder18_shouldOccludeSlabEaRK4AABBRK8BlockPos
003b7ee8 g    DF .text	00000042 _ZN21BlockTessallatorCache7getDataERK8BlockPos
00271ab8 g    DF .text	00000174 _ZN13BlockOccluder20_shouldOccludeLeavesEaRK4AABBRK8BlockPos
00271c2c g    DF .text	00000120 _ZN13BlockOccluder21_shouldOccludeTopSnowEaRK4AABBRK8BlockPos
00271d4c g    DF .text	00000088 _ZN13BlockOccluder19_shouldOccludeGlassEaRK4AABBRK8BlockPos
00271dd4 g    DF .text	00000078 _ZN13BlockOccluder23_shouldOccludeThinFenceEaRK4AABBRK8BlockPos
00271e4c g    DF .text	00000032 _ZN13BlockOccluder19_shouldOccludeFenceEaRK4AABBRK8BlockPos
00271e80 g    DF .text	00000036 _ZN13BlockOccluder20_shouldOccludeCarpetEaRK4AABBRK8BlockPos
00271eb8 g    DF .text	0000011c _ZN13BlockOccluder20_shouldOccludeLiquidEaRK4AABBRK8BlockPos
00271fd4 g    DF .text	00000074 _ZN13BlockOccluder20_shouldOccludePortalEaRK4AABBRK8BlockPos
00272048 g    DF .text	00000134 _ZN13BlockOccluder17_updateRenderFaceERK5BlockRK8BlockPosRK4AABBa
006ac134 g    DO .bss	00000004 _ZN5Block6mGlassE
0027217c g    DF .text	0000004c _ZN13BlockOccluderC2ER21BlockTessallatorCacheRK5BlockRK8BlockPosRK4AABBRKSt16initializer_listIaEb
0027217c g    DF .text	0000004c _ZN13BlockOccluderC1ER21BlockTessallatorCacheRK5BlockRK8BlockPosRK4AABBRKSt16initializer_listIaEb
002721c8 g    DF .text	00000108 _ZN16BlockTessellator22tessellateBlockInWorldER5BlockRK8BlockPos
005dbad4 g    DO .data.rel.ro.local	00000008 _ZN13BlockOccluder9ALL_FACESE
002722d0 g    DF .text	000001b8 _ZN16BlockTessellator20tessellateAnvilPieceER10AnvilBlockRK8BlockPos9AnvilPartffffbbiPii
0031d810 g    DF .text	00000006 _ZN10AnvilBlock7setPartE9AnvilPart
00272488 g    DF .text	00000190 _ZN16BlockTessellator22tessellateAnvilInWorldER10AnvilBlockRK8BlockPosib
002d1924 g    DF .text	0000001c _ZN11Tessellator5colorEi
00272618 g    DF .text	0000003c _ZN16BlockTessellator22tessellateAnvilInWorldER10AnvilBlockRK8BlockPosi
00272654 g    DF .text	00000020 _ZN16BlockTessellator22tessellateAnvilInWorldER10AnvilBlockRK8BlockPos
00272674 g    DF .text	000001b0 _ZN16BlockTessellator26tessellateFlowerPotInWorldER14FlowerPotBlockRK8BlockPos
00313ea0 g    DF .text	00000004 _ZN20FlowerPotBlockEntity12getPlantItemEv
00313ea4 g    DF .text	00000004 _ZN20FlowerPotBlockEntity11getItemDataEv
002b8a3c g    DF .text	00000032 _ZN11Tessellator9addOffsetEfff
00272824 g    DF .text	00000394 _ZN16BlockTessellator29tessellateBrewingStandInWorldER17BrewingStandBlockRK8BlockPos
004344d0 g    DF .text	00000006 _ZNK17BrewingStandBlock14getBaseTextureEv
00272bb8 g    DF .text	00000234 _ZN16BlockTessellator22tessellateFenceInWorldER10FenceBlockRK8BlockPos
003c0f5c g    DF .text	000000ac _ZN10FenceBlock10connectsToER11BlockSourceRK8BlockPosS4_
00272dec g    DF .text	00000740 _ZN16BlockTessellator26tessellateFenceGateInWorldER14FenceGateBlockRK8BlockPosh
0031dfe8 g    DF .text	00000006 _ZN14FenceGateBlock6isOpenEi
0031e104 g    DF .text	00000006 _ZN14FenceGateBlock12getDirectionEi
0031e228 g    DF .text	00000006 _ZN14FenceGateBlock8isInWallEi
002b8a80 g    DF .text	00000032 _ZN11Tessellator9addOffsetERK4Vec3
0027352c g    DF .text	00000116 _ZN16BlockTessellator31tessellateAirPortalFrameInWorldER19EndPortalFrameBlockRK8BlockPosh
0037232c g    DF .text	00000006 _ZN19EndPortalFrameBlock6hasEyeEi
00372328 g    DF .text	00000004 _ZN19EndPortalFrameBlock13getEyeTextureEv
00273644 g    DF .text	00000066 _ZN16BlockTessellator23tessellateStairsInWorldER10StairBlockRK8BlockPos
003bc5b0 g    DF .text	00000046 _ZN10StairBlock12setBaseShapeER11BlockSourceRK8BlockPosR4AABB
003bc648 g    DF .text	000002e2 _ZN10StairBlock12setStepShapeER11BlockSourceRK8BlockPosR4AABB
003bc92c g    DF .text	000002a8 _ZN10StairBlock18setInnerPieceShapeER11BlockSourceRK8BlockPosR4AABB
002736ac g    DF .text	00000030 _ZN16BlockTessellator21tessellateTreeInWorldER5BlockRK8BlockPosh
002736dc g    DF .text	00000778 _ZN16BlockTessellator22tessellateLeverInWorldER5BlockRK8BlockPos
006abf8c g    DO .bss	00000004 _ZN5Block16mCobblestoneWallE
00273e54 g    DF .text	00001282 _ZN16BlockTessellator29tessellateTripwireHookInWorldER5BlockRK8BlockPos
002750d8 g    DF .text	00000370 _ZN16BlockTessellator23tessellateCactusInWorldER5BlockRK8BlockPosRK5Color
006aedc4 g    DO .bss	00000010 _ZN5Color17SHADE_NORTH_SOUTHE
006aedb4 g    DO .bss	00000010 _ZN5Color15SHADE_WEST_EASTE
006aede4 g    DO .bss	00000010 _ZN5Color10SHADE_DOWNE
00275448 g    DF .text	0000007c _ZN16BlockTessellator23tessellateCactusInWorldER5BlockRK8BlockPos
002754c4 g    DF .text	00000674 _ZN16BlockTessellator20tessellateBedInWorldER5BlockRK8BlockPosh
003ba6b0 g    DF .text	00000006 _ZN8BedBlock11isHeadPieceEi
005a8b0c g    DO .rodata	00000004 _ZN9Direction16DIRECTION_FACINGE
005a8ae4 g    DO .rodata	00000010 _ZN9Direction18DIRECTION_OPPOSITEE
005dba74 g    DO .data.rel.ro.local	00000030 _ZN13BlockOccluder17ALL_EXCEPT_AXIS_YE
00275b38 g    DF .text	00000784 _ZN16BlockTessellator21tessellateDoorInWorldER5BlockRK8BlockPos
00432898 g    DF .text	00000060 _ZN9DoorBlock16getCompositeDataER11BlockSourceRK8BlockPos
00432890 g    DF .text	00000006 _ZN9DoorBlock7isUpperEh
00432f84 g    DF .text	00000076 _ZN9DoorBlock17shouldFlipTextureEia
005dbaa4 g    DO .data.rel.ro.local	00000030 _ZN13BlockOccluder10ALL_EXCEPTE
002762c0 g    DF .text	000012d0 _ZN16BlockTessellator26tessellateThinFenceInWorldER14ThinFenceBlockRK8BlockPosh
002d5634 g    DF .text	0000004c _ZN14ThinFenceBlock9attachsToEi
0051d884 g    DF .text	00000016 _ZN11BlockSource12isEmptyBlockEiii
002d5618 g    DF .text	0000001c _ZN14ThinFenceBlock14getEdgeTextureEv
00277590 g    DF .text	00000360 _ZN16BlockTessellator21tessellateWallInWorldER9WallBlockRK8BlockPos
002c6c10 g    DF .text	00000074 _ZN9WallBlock10connectsToER11BlockSourceRK8BlockPos
0051d194 g    DF .text	00000020 _ZN11BlockSource12isEmptyBlockERK8BlockPos
005a7e04 g    DO .rodata	00000004 _ZN9WallBlock10WALL_WIDTHE
005a7e00 g    DO .rodata	00000004 _ZN9WallBlock11WALL_HEIGHTE
005a7dfc g    DO .rodata	00000004 _ZN9WallBlock10POST_WIDTHE
005a7df8 g    DO .rodata	00000004 _ZN9WallBlock11POST_HEIGHTE
002778f0 g    DF .text	0000000a _ZNK13BlockOccluder10anyVisibleEv
002778fc g    DF .text	0000004c _ZN9SwellGoalC2EP7Creeper
002778fc g    DF .text	0000004c _ZN9SwellGoalC1EP7Creeper
00277948 g    DF .text	00000068 _ZN17TrialUpsellScreenC2ER15MinecraftClientb
00277948 g    DF .text	00000068 _ZN17TrialUpsellScreenC1ER15MinecraftClientb
002779b0 g    DF .text	0000002c _ZN16OcelotAttackGoalC2ER3Mob
002779b0 g    DF .text	0000002c _ZN16OcelotAttackGoalC1ER3Mob
002779dc g    DF .text	0000001c _ZN8FloatTagC2ERKSs
005de428 g    DO .data.rel.ro	0000003c _ZTV8FloatTag
002779dc g    DF .text	0000001c _ZN8FloatTagC1ERKSs
002779f8 g    DF .text	0000015c _ZN3Tag6newTagEcRKSs
003c1430 g    DF .text	0000002c _ZN11IntArrayTagC1ERKSs
002cf0bc g    DF .text	0000001c _ZN7ByteTagC1ERKSs
005103dc g    DF .text	0000001c _ZN8ShortTagC1ERKSs
002c6b04 g    DF .text	0000001c _ZN6IntTagC1ERKSs
00384e50 g    DF .text	0000001c _ZN8Int64TagC1ERKSs
00499650 g    DF .text	0000001c _ZN9DoubleTagC1ERKSs
00434ac0 g    DF .text	0000002c _ZN12ByteArrayTagC1ERKSs
0036b670 g    DF .text	00000034 _ZN9StringTagC1ERKSs
00320880 g    DF .text	00000024 _ZN7ListTagC1ERKSs
003bb16c g    DF .text	00000044 _ZN11CompoundTagC1ERKSs
00277b54 g    DF .text	00000104 _ZN3Tag12readNamedTagER10IDataInputRSs
00277c58  w   DF .text	00000078 _ZN5NbtIo4readER10IDataInput
00277cd0  w   DF .text	000000dc _ZN21BlockEntityDataPacket4readEPN6RakNet9BitStreamE
003ebe34 g    DF .text	00000094 _ZN11CompoundTagaSEOS_
00277dac g    DF .text	00000020 _ZN8FloatTagC2ERKSsf
00277dac g    DF .text	00000020 _ZN8FloatTagC1ERKSsf
00277dcc g    DF .text	00000064 _ZNK8FloatTag4copyEv
00277e30 g    DF .text	0000002c _ZN10HeavyBlockC2ERKSsiS1_RK8Material
00277e30 g    DF .text	0000002c _ZN10HeavyBlockC1ERKSsiS1_RK8Material
00277e5c g    DF .text	00000158 _ZN9SandBlockC2ERKSsi
005ddeb0 g    DO .data.rel.ro	00000180 _ZTV9SandBlock
00277e5c g    DF .text	00000158 _ZN9SandBlockC1ERKSsi
00277fb4 g    DF .text	00000054 _ZN10HeavyBlock23_findBottomSlidingBlockER11BlockSourceRK8BlockPos
004ac2c8 g    DF .text	00000006 _ZN5Block8canSlideEv
00278008 g    DF .text	00000078 _ZN10HeavyBlock10checkSlideER11BlockSourceRK8BlockPos
00278080 g    DF .text	00000024 _ZN10HeavyBlock4tickER11BlockSourceRK8BlockPosR6Random
002780a4 g    DF .text	00000004 _ZNK10HeavyBlock12getTickDelayEv
002780a8 g    DF .text	0000006c _ZN10HeavyBlock14_scheduleCheckER11BlockSourceRK8BlockPosP5Blocki
004c94b8 g    DF .text	0000012c _ZN17BlockTickingQueue3addER11BlockSourceRK8BlockPos7BlockIDi
00278114 g    DF .text	00000030 _ZN10HeavyBlock23_scheduleCheckIfSlidingER11BlockSourceRK8BlockPosP5Block
00278144 g    DF .text	0000008c _ZN10HeavyBlock19_tickBlocksAround2DER11BlockSourceRK8BlockPosP5Block
002781d0 g    DF .text	000000e8 _ZN10HeavyBlock12startFallingER11BlockSourceRK8BlockPosP5Blockb
00373128 g    DF .text	000000f0 _ZN12FallingBlockC1ER11BlockSourceRK4Vec39FullBlockb
006acebc g    DO .bss	00000002 _ZN9FullBlock3AIRE
002782b8 g    DF .text	00000014 _ZN10HeavyBlock7onPlaceER11BlockSourceRK8BlockPos
002782cc g    DF .text	00000034 _ZN10HeavyBlock15neighborChangedER11BlockSourceRK8BlockPosS4_
00278300 g    DF .text	00000014 _ZN10HeavyBlock16triggerFallCheckER11BlockSourceRK8BlockPos
00278314 g    DF .text	00000098 _ZN9RailBlockC2ERKSsi
0050acd8 g    DF .text	000000e0 _ZN13BaseRailBlockC2ERKSsib
005dfdf8 g    DO .data.rel.ro	00000170 _ZTV9RailBlock
00278314 g    DF .text	00000098 _ZN9RailBlockC1ERKSsi
002783ac g    DF .text	00000028 _ZN3mce22RenderContextStateBaseC2Ev
0049c84c g    DF .text	00000012 _ZN3mce21BlendStateDescriptionC1Ev
00439b10 g    DF .text	00000030 _ZN3mce28DepthStencilStateDescriptionC1Ev
003ba610 g    DF .text	00000010 _ZN3mce26RasterizerStateDescriptionC1Ev
002783ac g    DF .text	00000028 _ZN3mce22RenderContextStateBaseC1Ev
002783d4 g    DF .text	00000018 _ZN18MerchantRecipeListC2Ev
002783d4 g    DF .text	00000018 _ZN18MerchantRecipeListC1Ev
002783ec g    DF .text	00000024 _ZN18MerchantRecipeListC2EPK11CompoundTag
002783ec g    DF .text	00000024 _ZN18MerchantRecipeListC1EPK11CompoundTag
00278410 g    DF .text	00000004 _ZN18MerchantRecipeList16createFromStreamEP15FriendlyByteBuf
00278414 g    DF .text	00000006 _ZN11PlayerModel14getRightSleeveEv
0027841c g    DF .text	000000a0 _ZN11PlayerModel19_resetLeftPlaterArmEf
0051127c g    DF .text	00000010 _ZN9ModelPart5resetEv
002784bc g    DF .text	0000006c _ZN11PlayerModel24_resetSlimRightPlayerArmEf
00278528 g    DF .text	0000012c _ZN11PlayerModel12_initSleevesEf
005a8e7c g    DO .rodata	00000004 _ZN13HumanoidModel13OVERLAY_SCALEE
00278654 g    DF .text	00000070 _ZN11PlayerModel19_resetLeftPlayerLegEf
0051123c g    DF .text	0000001a _ZN9ModelPart10setTexSizeEii
002786c4 g    DF .text	000000ac _ZN11PlayerModel10_initPantsEf
00278770 g    DF .text	00000200 _ZN11PlayerModelC2Efbb
005115b4 g    DF .text	00000006 _ZN9ModelPart14setNeverRenderEb
00278770 g    DF .text	00000200 _ZN11PlayerModelC1Efbb
00278970 g    DF .text	00000114 _ZN11SkinsButtonC2ERK4SkinPPS_R12TextureGroupbbb
0050feb8 g    DF .text	00000004 _ZNK4Skin7getNameEv
00511ba8 g    DF .text	00000058 _ZN18ClientSkinInfoDataC1Eb
0050fec0 g    DF .text	00000004 _ZNK4Skin7getPathEv
00278970 g    DF .text	00000114 _ZN11SkinsButtonC1ERK4SkinPPS_R12TextureGroupbbb
00278a84 g    DF .text	0000000c stbi_failure_reason
00278a90 g    DF .text	00000004 stbi_image_free
00278a94 g    DF .text	000000a0 stbi_is_hdr_from_memory
00278b34 g    DF .text	000000e4 stbi_is_hdr_from_file
00278c18 g    DF .text	00000024 stbi_is_hdr
00000000      DF *UND*	00000000 fopen
00000000      DF *UND*	00000000 fclose
00278c3c g    DF .text	000000d8 stbi_is_hdr_from_callbacks
00278d14 g    DF .text	0000001c stbi_hdr_to_ldr_gamma
00278d30 g    DF .text	0000001c stbi_hdr_to_ldr_scale
00278d4c g    DF .text	0000000c stbi_ldr_to_hdr_gamma
00278d58 g    DF .text	0000000c stbi_ldr_to_hdr_scale
00278d64 g    DF .text	0000007c stbi_zlib_decode_malloc_guesssize
00278de0 g    DF .text	0000000a stbi_zlib_decode_malloc
00278dec g    DF .text	00000084 _Z44stbi_zlib_decode_malloc_guesssize_headerflagPKciiPii
0027a300 g    DF .text	00000090 stbi_load_from_file
0027a390 g    DF .text	0000004c stbi_load
0027a3dc g    DF .text	00000084 stbi_load_from_callbacks
0027a460 g    DF .text	00000210 _Z15stbi_loadf_mainP4stbiPiS1_S1_i
0027a670 g    DF .text	00000044 stbi_loadf_from_memory
0027a6b4 g    DF .text	00000084 stbi_loadf_from_callbacks
0027a738 g    DF .text	00000090 stbi_loadf_from_file
0027a7c8 g    DF .text	0000004c stbi_loadf
0027a814 g    DF .text	00000660 stbi_load_from_memory
0027b5c4 g    DF .text	00000058 stbi_zlib_decode_buffer
0027b61c g    DF .text	00000078 stbi_zlib_decode_noheader_malloc
0027b694 g    DF .text	0000005c stbi_zlib_decode_noheader_buffer
0027b6f0 g    DF .text	0000000c stbi_set_unpremultiply_on_load
0027b6fc g    DF .text	00000010 stbi_convert_iphone_png_to_rgb
0027b70c g    DF .text	000000f4 stbi_info_from_file
00000000      DF *UND*	00000000 ftell
0027b800 g    DF .text	00000044 stbi_info
0027b844 g    DF .text	000000a4 stbi_info_from_memory
0027b8e8 g    DF .text	000000d0 stbi_info_from_callbacks
0027b9b8 g    DF .text	00000110 _ZN18MakeInfiniteScreenC2ER15MinecraftClientRK12LevelSummary14StorageVersion
005dff68 g    DO .data.rel.ro	00000114 _ZTV18MakeInfiniteScreen
0027b9b8 g    DF .text	00000110 _ZN18MakeInfiniteScreenC1ER15MinecraftClientRK12LevelSummary14StorageVersion
0027bac8 g    DF .text	00000270 _ZN18MakeInfiniteScreen11_makeBackupEv
0037d43c g    DF .text	00000004 _ZN9Minecraft14getLevelSourceEv
002d3184 g    DF .text	00000070 _ZN4File4copyERKSsS1_
0027bd48 g    DF .text	00000020 _ZN17HangingEntityItemC2ERKSsi10EntityType
005e0080 g    DO .data.rel.ro	000000c8 _ZTV17HangingEntityItem
0027bd48 g    DF .text	00000020 _ZN17HangingEntityItemC1ERKSsi10EntityType
0027bd68 g    DF .text	0000003e _ZN17HangingEntityItem12createEntityER11BlockSourceiiii
004c0068 g    DF .text	00000030 _ZN8PaintingC1ER11BlockSourceRK8BlockPosi
0027bda8 g    DF .text	000000a4 _ZN17HangingEntityItem5useOnEP12ItemInstanceP6Playeriiiafff
005a8af4 g    DO .rodata	00000018 _ZN9Direction16FACING_DIRECTIONE
0027be4c g    DF .text	000002ec _ZN15FarlandsFeatureC2Ejii
00511f88 g    DF .text	00000014 _ZN12LargeFeatureC2Ev
00508cfc g    DF .text	00000060 _ZN11PerlinNoiseC1Ejii
0027be4c g    DF .text	000002ec _ZN15FarlandsFeatureC1Ejii
0027c138 g    DF .text	00000068 _Z15_checkDistances8BlockPosRfS0_
0027c1a0 g    DF .text	0000041c _ZN15FarlandsFeature5applyEP11ChunkSourceR10LevelChunkP11BiomeSourceR6Random
004a8c24 g    DF .text	00000004 _ZNK10LevelChunk6getMinEv
004a8c28 g    DF .text	00000004 _ZNK10LevelChunk6getMaxEv
0049864c g    DF .text	00000006 _ZN5Biome12getBiomeTypeEv
0027c5bc g    DF .text	000000c2 _ZNK15FarlandsFeature13isInsideLimitERK10LevelChunkf
0027c680 g    DF .text	00000020 _ZN11ClayFeatureC2Ei
003d50c4 g    DF .text	0000001c _ZN7FeatureC2Eb
005e0160 g    DO .data.rel.ro	00000014 _ZTV11ClayFeature
0027c680 g    DF .text	00000020 _ZN11ClayFeatureC1Ei
0027c6a0 g    DF .text	00000010 _ZN4PathD2Ev
0027c6a0 g    DF .text	00000010 _ZN4PathD1Ev
0027c6b0 g    DF .text	0000001c _ZN14PathNavigation4stopEv
0027c6cc g    DF .text	0000002c _ZN14PathNavigationD2Ev
0027c6cc g    DF .text	0000002c _ZN14PathNavigationD1Ev
0027c6f8 g    DF .text	00000012 _ZN14PathNavigationD0Ev
0027c70c g    DF .text	00000030 _ZN12AvoidMobGoal5startEv
0027c73c  w   DF .text	00000070 _ZN12AvoidMobGoalD2Ev
0027c73c  w   DF .text	00000070 _ZN12AvoidMobGoalD1Ev
0027c7ac g    DF .text	00000034 _ZN22MoveThroughVillageGoal5startEv
0027c7e0 g    DF .text	0000003c _ZN14PathNavigation6moveToERK4Vec3f
0027c81c g    DF .text	0000003c _ZN14PathNavigation6moveToER3Mobf
0027c858  w   DF .text	00000070 _ZN16AvoidMobTypeGoalD2Ev
0027c858  w   DF .text	00000070 _ZN16AvoidMobTypeGoalD1Ev
0027c8c8  w   DF .text	00000074 _ZN12AvoidMobGoalD0Ev
0027c93c  w   DF .text	00000074 _ZN16AvoidMobTypeGoalD0Ev
0027c9b0  w   DF .text	00000048 _ZN22MoveThroughVillageGoalD2Ev
005e03d0 g    DO .data.rel.ro	0000002c _ZTV22MoveThroughVillageGoal
0027c9b0  w   DF .text	00000048 _ZN22MoveThroughVillageGoalD1Ev
0027c9f8  w   DF .text	00000050 _ZN22MoveThroughVillageGoalD0Ev
0027ca48 g    DF .text	00000008 _ZN4Path4nextEv
0027ca50 g    DF .text	00000020 _ZN4Path6isDoneEv
0027ca70 g    DF .text	0000000c _ZNK14PathNavigation6isDoneEv
0027ca7c g    DF .text	00000020 _ZN4Path4lastEv
0027ca9c g    DF .text	0000000c _ZN4Path3getEi
0027caa8 g    DF .text	00000016 _ZNK4Path7getSizeEv
0027cac0 g    DF .text	0000019c _ZN4Path7setSizeEi
0043099c g    DF .text	00000020 _ZN4NodeC1ERKS_
00000000      DF *UND*	00000000 _ZSt20__throw_length_errorPKc
0027cc5c g    DF .text	000000b8 _ZN14PathNavigation16_trimPathFromSunEv
005200cc g    DF .text	00000016 _ZN11BlockSource9canSeeSkyEiii
0027cd14 g    DF .text	00000004 _ZNK4Path8getIndexEv
0027cd18 g    DF .text	00000004 _ZN4Path8setIndexEi
0027cd1c g    DF .text	00000044 _ZNK4Path6getPosEPK6Entityi
0027cd60 g    DF .text	000001d8 _ZN14PathNavigation11_updatePathEv
00000000      DF *UND*	00000000 ceil
0027cf38 g    DF .text	0000000e _ZNK4Path10currentPosEPK6Entity
0027cf48 g    DF .text	000000bc _ZN14PathNavigation4tickEv
005088e4 g    DF .text	00000018 _ZN11MoveControl17setWantedPositionERK4Vec3f
006ac0c4 g    DO .bss	00000004 _ZN5Block6mChestE
0027d004 g    DF .text	0000000e _ZNK4Path10currentPosEv
0027d014 g    DF .text	0000009a _ZNK4Path6sameAsEPS_
0027d0b0 g    DF .text	00000066 _ZN14PathNavigation6moveToESt10unique_ptrI4PathSt14default_deleteIS1_EEf
0027d118 g    DF .text	00000034 _ZN4Path8endsInXZERK4Vec3
0027d14c g    DF .text	00000156 _ZN12AvoidMobGoal6canUseEv
0027d2a4 g    DF .text	00000090 _ZN6ButtonC2EiRKSsb
0027d2a4 g    DF .text	00000090 _ZN6ButtonC1EiRKSsb
0027d334 g    DF .text	0000008c _ZN6ButtonC2EiiiRKSs
0027d334 g    DF .text	0000008c _ZN6ButtonC1EiiiRKSs
0027d3c0 g    DF .text	00000090 _ZN6ButtonC2EiiiiiRKSsb
0027d3c0 g    DF .text	00000090 _ZN6ButtonC1EiiiiiRKSsb
0027d450 g    DF .text	0000002a _ZN6Button9_getWidthEP15MinecraftClientRKSsi
0027d47c g    DF .text	0000002c _ZN6Button8isInsideEii
0027d4a8 g    DF .text	00000020 _ZN6Button7hoveredEP15MinecraftClientii
0027d4c8 g    DF .text	0000009a _ZN6Button10renderFaceEP15MinecraftClientii
0027d564 g    DF .text	000000a4 _ZN6Button8renderBgEP15MinecraftClientii
006aa9c8 g    DO .bss	0000000c _ZN14ScreenRenderer6guiTexE
0027d608 g    DF .text	000000a0 _ZN5Touch7TButton8renderBgEP15MinecraftClientii
0027d6a8 g    DF .text	0000000e _ZN6Button9isPressedEii
0027d6b8 g    DF .text	00000006 _ZN6Button26setOverrideScreenRenderingEb
0027d6c0 g    DF .text	00000006 _ZN6Button26isOveridingScreenRenderingEv
0027d6c8 g    DF .text	00000078 _ZN11BlankButtonC2Ei
005dbfd8  w   DO .data.rel.ro	00000090 _ZTV11BlankButton
0027d6c8 g    DF .text	00000078 _ZN11BlankButtonC1Ei
0027d740 g    DF .text	0000008c _ZN11BlankButtonC2Eiiiii
0027d740 g    DF .text	0000008c _ZN11BlankButtonC1Eiiiii
0027d7cc g    DF .text	0000010c _ZN5Touch7TButton4initEP15MinecraftClient
0027d8d8 g    DF .text	00000048 _ZN5Touch7TButtonC2EiRKSsP15MinecraftClientbi
0027d8d8 g    DF .text	00000048 _ZN5Touch7TButtonC1EiRKSsP15MinecraftClientbi
0027d920 g    DF .text	0000004c _ZN5Touch7TButtonC2EiiiRKSsP15MinecraftClienti
0027d920 g    DF .text	0000004c _ZN5Touch7TButtonC1EiiiRKSsP15MinecraftClienti
0027d96c g    DF .text	00000054 _ZN5Touch7TButtonC2EiiiiiRKSsP15MinecraftClientbi
0027d96c g    DF .text	00000054 _ZN5Touch7TButtonC1EiiiiiRKSsP15MinecraftClientbi
0027d9c0 g    DF .text	000000b0 _ZN5Touch7TButton4initEP15MinecraftClientRKSsRK12IntRectangleS7_iiii
0027da70 g    DF .text	00000034 _ZN5Touch7THeaderC2EiRKSs
005dce68 g    DO .data.rel.ro	00000090 _ZTVN5Touch7THeaderE
0027da70 g    DF .text	00000034 _ZN5Touch7THeaderC1EiRKSs
0027daa4 g    DF .text	00000038 _ZN5Touch7THeaderC2EiiiRKSs
0027daa4 g    DF .text	00000038 _ZN5Touch7THeaderC1EiiiRKSs
0027dadc g    DF .text	0000003c _ZN5Touch7THeaderC2EiiiiiRKSs
0027dadc g    DF .text	0000003c _ZN5Touch7THeaderC1EiiiiiRKSs
0027db18 g    DF .text	00000088 _ZN5Touch12HeaderButtonC2EiR15MinecraftClientRKSsbb
0027db18 g    DF .text	00000088 _ZN5Touch12HeaderButtonC1EiR15MinecraftClientRKSsbb
0027dba0 g    DF .text	0000003c _ZN13GridComponentC2ERSt10shared_ptrI9UIControlE
00325bdc g    DF .text	00000010 _ZN2UI12LayoutOffsetC1Ev
0027dba0 g    DF .text	0000003c _ZN13GridComponentC1ERSt10shared_ptrI9UIControlE
0027dbdc g    DF .text	00000004 _ZNK13GridComponent17getGridDimensionsEv
0027dbe0 g    DF .text	0000000a _ZN13GridComponent17setGridDimensionsERKN3glm6detail5tvec2IiEE
0027dbec g    DF .text	00000004 _ZNK13GridComponent23getGridItemTemplateNameEv
0027dbf0 g    DF .text	00000006 _ZN13GridComponent23setGridItemTemplateNameERKSs
0027dbf8 g    DF .text	00000004 _ZNK13GridComponent23getGridDimensionBindingEv
0027dbfc g    DF .text	00000006 _ZN13GridComponent23setGridDimensionBindingERKSs
0027dc04 g    DF .text	00000004 _ZNK13GridComponent23getGridItemTemplateSizeEv
0027dc08 g    DF .text	0000023c _ZNK13GridComponent18getItemBoundingBoxEv
00320084 g    DF .text	00000024 _ZNK11UIComponent8getOwnerEv
003b8e58 g    DF .text	00000004 _ZN9UIControl11getChildrenEv
00000000      DF *UND*	00000000 abort
00645654  w   DO .bss	00000004 _ZGVZ7type_idI17GridItemComponentE8typeid_tvE2id
0064563c  w   DO .bss	00000002 _ZZ7type_idI17GridItemComponentE8typeid_tvE2id
0027de44 g    DF .text	00000028 _ZN17ProtectionEnchantC2EiiRKSsii
0027de44 g    DF .text	00000028 _ZN17ProtectionEnchantC1EiiRKSsii
0027de6c g    DF .text	00000020 _ZNK17ProtectionEnchant22getLevelCostSpanByTypeEv
0027de8c g    DF .text	00000144 _ZNK17ProtectionEnchant15getThornsDamageEi
006469d8 g    DO .bss	000009d0 _ZN12EnchantUtils13mSharedRandomE
0027dfd0 g    DF .text	0000008c _ZN10LeverBlockC2ERKSsi
0027dfd0 g    DF .text	0000008c _ZN10LeverBlockC1ERKSsi
0027e05c g    DF .text	0000001c _ZN10LeverBlock14getLeverFacingEi
0027e078 g    DF .text	000000bc _ZN10LeverBlock21getPlacementDataValueER3MobRK8BlockPosaRK4Vec3i
0027e134 g    DF .text	00000074 _ZN10LeverBlock16_checkCanSurviveER11BlockSourceRK8BlockPos
0051c590 g    DF .text	0000001a _ZN11BlockSource11removeBlockERK8BlockPos
0027e1a8 g    DF .text	0000001a _ZN10LeverBlock15neighborChangedER11BlockSourceRK8BlockPosS4_
0027e1c4 g    DF .text	00000006 _ZNK10LeverBlock21_getDirectionFromDataEi
0027e1cc g    DF .text	00000134 _ZNK10LeverBlock9_getShapeEhR4AABB
0027e300 g    DF .text	0000000e _ZN10LeverBlock14getVisualShapeEhR4AABBb
0027e310 g    DF .text	0000001c _ZNK10LeverBlock9_getShapeER11BlockSourceRK8BlockPosR4AABB
0027e32c g    DF .text	00000038 _ZN10LeverBlock7getAABBER11BlockSourceRK8BlockPosR4AABBibi
0027e364 g    DF .text	00000020 _ZN10LeverBlock14getVisualShapeER11BlockSourceRK8BlockPosR4AABBb
0027e384 g    DF .text	00000030 _ZN10LeverBlock11updateShapeEP11BlockSourceRK8BlockPos
0027e3b4 g    DF .text	000000f8 _ZN10LeverBlock3useER6PlayerRK8BlockPos
00338cc0 g    DF .text	00000020 _ZN13CircuitSystem11setStrengthERK8BlockPosi
0027e4ac g    DF .text	00000014 _ZN10LeverBlock29_getOppositeDirectionFromDataEi
0027e4c0 g    DF .text	00000048 _ZN17UnderworldFeatureC2Ej
0027e4c0 g    DF .text	00000048 _ZN17UnderworldFeatureC1Ej
0027e508 g    DF .text	0000030c _ZN14IronGolemModelC2Ev
0027e508 g    DF .text	0000030c _ZN14IronGolemModelC1Ev
0027e814 g    DF .text	00000058 _ZN14IronGolemModel12triangleWaveEff
00000000      DF *UND*	00000000 trunc
0027e86c g    DF .text	00000090 _ZN14IronGolemModel9setupAnimEffffff
0027e8fc g    DF .text	00000110 _ZN14IronGolemModel15prepareMobModelER3Mobfff
0042f84c g    DF .text	00000006 _ZNK9IronGolem22getAttackAnimationTickEv
0042f864 g    DF .text	00000006 _ZNK9IronGolem18getOfferFlowerTickEv
0027ea0c g    DF .text	000000d4 _ZN16PaintingRendererC2ER12TextureGroup
0027ea0c g    DF .text	000000d4 _ZN16PaintingRendererC1ER12TextureGroup
0027eae0 g    DF .text	00000412 _ZN16PaintingRenderer14_buildPaintingEiiii
0027eef4 g    DF .text	00000036 _ZN18FurnaceBlockEntity12isIngredientEPK12ItemInstance
004bc6dc g    DF .text	00000078 _ZN14FurnaceRecipes11getInstanceEv
004990a0 g    DF .text	00000086 _ZNK14FurnaceRecipes9getResultEPK12ItemInstance
0027ef2c g    DF .text	00000178 _ZN18FurnaceBlockEntity15getBurnDurationEPK12ItemInstance
006ad13c g    DO .bss	00000004 _ZN4Item6mStickE
006ad084 g    DO .bss	00000004 _ZN4Item7mBucketE
006ac16c g    DO .bss	00000004 _ZN5Block8mSaplingE
006abf20 g    DO .bss	00000004 _ZN5Block10mCoalBlockE
006acfbc g    DO .bss	00000004 _ZN4Item9mBlazeRodE
006ad188 g    DO .bss	00000004 _ZN4Item4mBowE
006ad138 g    DO .bss	00000004 _ZN4Item5mBowlE
006ad168 g    DO .bss	00000004 _ZN4Item12mShovel_woodE
006ad114 g    DO .bss	00000004 _ZN4Item9mHoe_woodE
006ad164 g    DO .bss	00000004 _ZN4Item13mPickAxe_woodE
006ad160 g    DO .bss	00000004 _ZN4Item13mHatchet_woodE
006ad16c g    DO .bss	00000004 _ZN4Item11mSword_woodE
006ad06c g    DO .bss	00000004 _ZN4Item5mBoatE
0027f0a4 g    DF .text	00000010 _ZN18FurnaceBlockEntity6isFuelEPK12ItemInstance
0027f0b4 g    DF .text	00000010 _ZN23FurnaceScreenController25_shouldBlockFuelItemPlaceEv
0027f0c4 g    DF .text	00000024 _ZN23FurnaceScreenController9_canPlaceEiP12ItemInstance
0027f0e8 g    DF .text	000000bc _ZN18FurnaceBlockEntityC2ERK8BlockPos
003227cc g    DF .text	0000001e _ZN12ItemInstanceC1Eb
0027f0e8 g    DF .text	000000bc _ZN18FurnaceBlockEntityC1ERK8BlockPos
0027f1a4 g    DF .text	000000ea _ZN18BlockEntityFactory17createBlockEntityE15BlockEntityTypeRK8BlockPos
002d3330 g    DF .text	00000074 _ZN16MusicBlockEntityC1ERK8BlockPos
0049a9c8 g    DF .text	000000d8 _ZN16ChestBlockEntityC1ERK8BlockPos
0049e0a4 g    DF .text	00000084 _ZN24NetherReactorBlockEntityC1ERK8BlockPos
003c43c8 g    DF .text	0000008c _ZN15SignBlockEntityC1ERK8BlockPos
00512f40 g    DF .text	00000088 _ZN21MobSpawnerBlockEntityC1ERK8BlockPos
00313e20 g    DF .text	00000078 _ZN20FlowerPotBlockEntityC1ERK8BlockPos
00322724 g    DF .text	000000a8 _ZN23BrewingStandBlockEntityC1ERK8BlockPos
0049e590 g    DF .text	00000074 _ZN27DaylightDetectorBlockEntityC1ERK8BlockPos
0027f290 g    DF .text	0000001a _ZN11EntityBlock14newBlockEntityERK8BlockPos
004adbf0 g    DF .text	00000004 _ZNK5Block18getBlockEntityTypeEv
0027f2ac g    DF .text	0000001a _ZN18FurnaceBlockEntity15getBurnProgressEi
0027f2c8 g    DF .text	00000006 _ZN18FurnaceBlockEntity17resetBurnProgressEv
0027f2d0 g    DF .text	00000096 _ZN18FurnaceBlockEntity7setItemEiP12ItemInstance
0027f368 g    DF .text	00000008 _ZThn92_N18FurnaceBlockEntity7setItemEiP12ItemInstance
0027f370 g    DF .text	0000001e _ZN18FurnaceBlockEntity14getLitProgressEi
0027f390 g    DF .text	0000000c _ZN18FurnaceBlockEntity5isLitEv
0027f39c g    DF .text	0000000e _ZN18FurnaceBlockEntity11isSlotEmptyEi
0027f3ac g    DF .text	00000008 _ZN18FurnaceBlockEntity11isSlotDirtyEi
0027f3b4 g    DF .text	00000010 _ZN18FurnaceBlockEntity15resetSlotsDirtyEv
0027f3c4 g    DF .text	00000004 _ZNK18FurnaceBlockEntity10getLitTimeEv
0027f3c8 g    DF .text	00000004 _ZN18FurnaceBlockEntity10setLitTimeEi
0027f3cc g    DF .text	00000004 _ZNK18FurnaceBlockEntity14getLitDurationEv
0027f3d0 g    DF .text	00000004 _ZN18FurnaceBlockEntity14setLitDurationEi
0027f3d4 g    DF .text	00000004 _ZNK18FurnaceBlockEntity12getTickCountEv
0027f3d8 g    DF .text	00000004 _ZN18FurnaceBlockEntity12setTickCountEi
0027f3dc g    DF .text	00000004 _ZN18FurnaceBlockEntity17getLastFuelSourceEv
0027f3e0 g    DF .text	00000096 _ZN18FurnaceBlockEntity7canBurnEv
00323fe0 g    DF .text	00000022 _ZNK12ItemInstance14sameItemAndAuxEPKS_
0027f478 g    DF .text	00000080 _ZN18FurnaceBlockEntity4burnEv
00322d1c g    DF .text	00000008 _ZN12ItemInstance3addEi
0027f4f8 g    DF .text	000000e8 _ZN18FurnaceBlockEntity4tickER11BlockSource
00320794 g    DF .text	00000078 _ZN12FurnaceBlock6setLitEbR11BlockSourceRK8BlockPos
003243ec g    DF .text	00000068 _ZN12ItemInstance9useAsFuelEv
0027f5e0 g    DF .text	0000003c _ZN22MoveThroughVillageGoalC2ER13PathfinderMobfb
0027f5e0 g    DF .text	0000003c _ZN22MoveThroughVillageGoalC1ER13PathfinderMobfb
0027f61c g    DF .text	000000b2 _ZNK22MoveThroughVillageGoal11_hasVisitedEPK8DoorInfo
0027f6d0 g    DF .text	000000d4 _ZNK22MoveThroughVillageGoal16_getNextDoorInfoEP7Village
0036df2c g    DF .text	00000004 _ZN7Village12getDoorInfosEv
005228d0 g    DF .text	00000044 _ZNK8DoorInfo13distanceToSqrERK8BlockPos
0027f7a4 g    DF .text	0000002e _ZN22MoveThroughVillageGoal14_updateVisitedEv
00000000      DF *UND*	00000000 _ZNSt8__detail15_List_node_base9_M_unhookEv
0027f7d4 g    DF .text	00000222 _ZN22MoveThroughVillageGoal6canUseEv
00428c78 g    DF .text	00000006 _ZN5Level11getVillagesEv
0027f9f8 g    DF .text	00000028 _ZN6MotiveC2ESsiiiib
0027f9f8 g    DF .text	00000028 _ZN6MotiveC1ESsiiiib
0027fa20 g    DF .text	0000000c _ZN6Motive15getDefaultImageEv
00645090 g    DO .bss	00000018 _ZN6Motive6mKebabE
0027fa2c g    DF .text	0000000c _ZNK6Motive7getNameEv
0027fa38 g    DF .text	00000004 _ZNK6Motive8getWidthEv
0027fa3c g    DF .text	00000004 _ZNK6Motive9getHeightEv
0027fa40 g    DF .text	00000004 _ZNK6Motive5getUoEv
0027fa44 g    DF .text	00000004 _ZNK6Motive5getVoEv
0027fa48 g    DF .text	00000004 _ZNK6Motive8isPublicEv
0027fa4c g    DF .text	00000150 _ZN19DisabledOptionsPaneC2ER15MinecraftClientRKSs
003c4204 g    DF .text	000000a8 _ZN5LabelC1ER15MinecraftClientRKSsRK5Coloriiib
0033bd48 g    DF .text	00000050 _ZN19GuiElementContainer8addChildESt10shared_ptrI10GuiElementE
005dc578  w   DO .data.rel.ro	0000001c _ZTVSt19_Sp_counted_deleterIP5LabelNSt12__shared_ptrIS0_LN9__gnu_cxx12_Lock_policyE2EE8_DeleterISaIS0_EEES7_LS4_2EE
0027fa4c g    DF .text	00000150 _ZN19DisabledOptionsPaneC1ER15MinecraftClientRKSs
0027fb9c g    DF .text	0000000a _ZN3mce27GlobalConstantBufferManagerC2Ev
0027fb9c g    DF .text	0000000a _ZN3mce27GlobalConstantBufferManagerC1Ev
0027fba8 g    DF .text	00000028 _ZN3mce27GlobalConstantBufferManagerD2Ev
0037bcc0 g    DF .text	0000000c _ZN3mce23ConstantBufferContainerD1Ev
0027fba8 g    DF .text	00000028 _ZN3mce27GlobalConstantBufferManagerD1Ev
0027fbd0  w   DF .text	0000001c _ZNSt10unique_ptrIN3mce27GlobalConstantBufferManagerESt14default_deleteIS1_EED2Ev
0027fbd0  w   DF .text	0000001c _ZNSt10unique_ptrIN3mce27GlobalConstantBufferManagerESt14default_deleteIS1_EED1Ev
0027fbec g    DF .text	0000001c _ZN3mce27GlobalConstantBufferManager43allocateAndSetupConstantBuffersFromMetadataERNS_13RenderContextE
0037bd0c g    DF .text	00000004 _ZN3mce23ConstantBufferContainer27allocateRenderContextBufferERNS_13RenderContextE
0027fc08 g    DF .text	0000015e _ZN3mce27GlobalConstantBufferManager27findConstantBufferContainerERKSs
0037bd00 g    DF .text	00000004 _ZNK3mce23ConstantBufferContainer21getConstantBufferNameEv
0027fd68 g    DF .text	00000134 _ZN3mce14WorldConstants4initEv
00384fb4 g    DF .text	0000013e _ZN3mce23ConstantBufferContainer30getUnspecializedShaderConstantERKSs
00384fac g    DF .text	00000004 _ZNK3mce18ShaderConstantBase7getTypeEv
00644dd4 g    DO .bss	00000004 _ZN3mce9SingletonINS_27GlobalConstantBufferManagerESt10unique_ptrIS1_St14default_deleteIS1_EEE8instanceE
0027fe9c g    DF .text	00000078 _ZN16StoneButtonBlockC2ERKSsi
005e0480 g    DO .data.rel.ro	00000170 _ZTV16StoneButtonBlock
0027fe9c g    DF .text	00000078 _ZN16StoneButtonBlockC1ERKSsi
0027ff14 g    DF .text	00000024 _ZN13BuyGameScreenC2ER15MinecraftClient
0027ff14 g    DF .text	00000024 _ZN13BuyGameScreenC1ER15MinecraftClient
0027ff38 g    DF .text	00000042 _ZN16BackgroundWorker3JobC2ERKSt8functionIFbvEERKS1_IFvvEEi
0027ff38 g    DF .text	00000042 _ZN16BackgroundWorker3JobC1ERKSt8functionIFbvEERKS1_IFvvEEi
0027ff7c g    DF .text	0000003e _ZN16BackgroundWorker3JobC2ERKS0_
0027ff7c g    DF .text	0000003e _ZN16BackgroundWorker3JobC1ERKS0_
0027ffbc g    DF .text	000000a4 _ZN16BackgroundWorker3JobC2EOS0_
0027ffbc g    DF .text	000000a4 _ZN16BackgroundWorker3JobC1EOS0_
00280060 g    DF .text	0000000e _ZN16BackgroundWorker3JobC2Ev
00280060 g    DF .text	0000000e _ZN16BackgroundWorker3JobC1Ev
00280070 g    DF .text	000000f8 _ZN16BackgroundWorker3JobaSEOS0_
00280168 g    DF .text	000000e4 _ZN16BackgroundWorker3Job12explicitMoveERS0_
0028024c g    DF .text	0000000a _ZNK16BackgroundWorker3JobcvbEv
00280258 g    DF .text	00000030 _ZN16BackgroundWorker3Job5clearEv
00280288 g    DF .text	00000026 _ZN16BackgroundWorker3JobD2Ev
00280288 g    DF .text	00000026 _ZN16BackgroundWorker3JobD1Ev
002802b0 g    DF .text	0000000e _ZNK16BackgroundWorker3JobltERKS0_
002802c0 g    DF .text	00000010 _ZN16BackgroundWorker3Job3runEv
002802d0 g    DF .text	00000004 _ZN16BackgroundWorker3Job11getCallbackEv
002802d4 g    DF .text	00000030 _ZNK16BackgroundWorker22getAverageJobsPerFrameEv
00280304 g    DF .text	00000016 _ZNK16BackgroundWorker13_workerThreadEv
00000000      DF *UND*	00000000 pthread_self
00000000      DF *UND*	00000000 pthread_equal
0028031c g    DF .text	00000126 _ZN16BackgroundWorker13queueCallbackERKSt8functionIFvvEE
00280444 g    DF .text	00000060 _ZN16BackgroundWorker12_tryPopLocalERNS_3JobEb
002804a4 g    DF .text	0000000e _ZN16BackgroundWorker6resumeEv
002804b4 g    DF .text	00000024 _ZNK16BackgroundWorker8isPausedEv
002804d8 g    DF .text	00000004 _ZNK16BackgroundWorker7getNameEv
002804dc g    DF .text	00000014 _ZNK16BackgroundWorker6isIdleEv
002804f0 g    DF .text	00000018 _ZN12ItemEnchantsC2Ei
002804f0 g    DF .text	00000018 _ZN12ItemEnchantsC1Ei
00280508 g    DF .text	00000082 _ZN12ItemEnchantsC2EOS_
00280508 g    DF .text	00000082 _ZN12ItemEnchantsC1EOS_
0028058c g    DF .text	0000007c _ZNK12ItemEnchants11getEnchantsEi
00280608 g    DF .text	00000026 _ZNK12ItemEnchants5countEv
00280630 g    DF .text	0000002c _ZNK12ItemEnchants7isEmptyEv
0028065c g    DF .text	000000e0 _ZNK12ItemEnchants13getTotalValueEb
003d8434 g    DF .text	00000004 _ZNK19EnchantmentInstance14getEnchantTypeEv
00508a10 g    DF .text	00000004 _ZNK7Enchant12getFrequencyEv
003d843c g    DF .text	00000004 _ZNK19EnchantmentInstance15getEnchantLevelEv
0028073c g    DF .text	0000003c _ZNK12ItemEnchants10hasEnchantEi
002c0494 g    DF .text	0000003c _ZN12EnchantUtils19determineActivationEi
00280778 g    DF .text	00000004 _ZNK12ItemEnchants7getSlotEv
0028077c g    DF .text	0000016c _ZNK12ItemEnchants7_toListEv
00648ae8 g    DO .bss	00000004 _ZN12ItemInstance12TAG_ENCHANTSE
002808e8  w   DF .text	00000216 _ZN3glm6detailmlIfEENS0_7tmat4x4IT_EERKS4_S6_
00280b00 g    DF .text	000002bc _ZN7Frustum16calculateFrustumEv
00527dc0 g    DF .text	00000006 _ZNK11MatrixStack3topEv
00280dbc g    DF .text	00000018 _ZN7Frustum10getFrustumEv
00645158 g    DO .bss	000004c0 _ZN7Frustum8mFrustumE
00280dd4 g    DF .text	00000230 _ZN3mce14WorldConstants21refreshWorldConstantsEv
00527da8 g    DF .text	00000004 _ZNK11MatrixStack7isDirtyEv
00527dac g    DF .text	00000006 _ZN11MatrixStack9makeCleanEv
00281004 g    DF .text	00000058 _ZN3mce27GlobalConstantBufferManager21refreshWorldConstantsEv
004245b0 g    DF .text	00000010 _ZN3mce22RenderContextImmediate10getAsConstEv
005077d8 g    DF .text	00000006 _ZNK3mce17RenderContextBase17isHolographicModeEv
005077e0 g    DF .text	00000006 _ZNK3mce17RenderContextBase15isStereoEnabledEv
002ce6f8 g    DF .text	00000046 _ZN3mce15ShaderConstants15setShaderColorsERK5ColorS3_
003879f8 g    DF .text	000000c4 _ZN3mce25WorldConstantsHolographic21refreshWorldConstantsEb
006aa8a4 g    DO .bss	00000010 currentShaderDarkColor
0037a8bc g    DF .text	000000c8 _ZN3mce25WorldConstantsHolographic24setLeftAndRightShiftMatsER6MatrixS2_
002813e4 g    DF .text	00000034 _ZN20InGamePlayHoloScreen20_setStereoModeParamsEv
0037a8b4 g    DF .text	00000006 _ZN3mce25WorldConstantsHolographic22setRenderTextureStereoEb
00281418 g    DF .text	0000003c _ZN20InGamePlayHoloScreen16_postLevelRenderEv
0037a6d0 g    DF .text	00000006 _ZN3mce25WorldConstantsHolographic21resetViewProjOverrideEv
00281454  w   DF .text	000000ac _ZNSt6vectorI12SimplexNoiseSaIS0_EE7reserveEj
00281500  w   DF .text	00000070 _ZN17SynchedEntityData6defineIiEEvhRKT_
00281570  w   DF .text	00000074 _ZN17SynchedEntityData6defineIaEEvhRKT_
002815e4 g    DF .text	00000338 _ZN6OcelotC2ER11BlockSource
004c00d4 g    DF .text	000000a4 _ZN13TamableAnimalC2ER11BlockSource
003ba030 g    DF .text	0000002e _ZN9AgableMob7setSizeEff
005296e8 g    DF .text	0000002c _ZN7SitGoalC1EP13TamableAnimal
0049c4f4 g    DF .text	000000c4 _ZN9TemptGoalC1ER13PathfinderMobfSt6vectorIsSaIsEEb
002c6eb0 g    DF .text	00000034 _ZN9FloatGoalC1ER3Mob
0052dd6c g    DF .text	00000042 _ZN12GoalSelector7addGoalEiSt10unique_ptrI4GoalSt14default_deleteIS1_EE
003ba1f0 g    DF .text	00000060 _ZN15FollowOwnerGoalC1EP13TamableAnimalfff
0031a818 g    DF .text	0000003c _ZN20OcelotSitOnBlockGoalC1EP3Mobf
0031989c g    DF .text	00000058 _ZN16LeapAtTargetGoalC1ER3Mobfb
0050a268 g    DF .text	00000050 _ZN9BreedGoalC1ER6Animalf
004a06c8 g    DF .text	0000001e _ZNK13TamableAnimal6isTameEv
005dd488 g    DO .data.rel.ro	000003a8 _ZTV6Ocelot
002815e4 g    DF .text	00000338 _ZN6OcelotC1ER11BlockSource
0028191c g    DF .text	00000022 _ZN6Ocelot20createBreedOffspringER6Animal
00281940 g    DF .text	0000045e _ZN10MobFactory9CreateMobE10EntityTypeR11BlockSourceRK4Vec3RK4Vec2
002c7034 g    DF .text	000001f4 _ZN3CowC1ER11BlockSource
004b9e98 g    DF .text	00000224 _ZN3PigC1ER11BlockSource
002c74a0 g    DF .text	00000020 _ZN11MushroomCowC1ER11BlockSource
00337970 g    DF .text	00000390 _ZN4WolfC1ER11BlockSource
003eb6b8 g    DF .text	00000230 _ZN5SheepC1ER11BlockSource
004a31cc g    DF .text	000000c8 _ZN3BatC1ER11BlockSource
002df86c g    DF .text	0000037c _ZN6RabbitC1ER11BlockSource
002c1758 g    DF .text	0000024c _ZN5SquidC1ER11BlockSource
00335774 g    DF .text	000000f8 _ZN8VillagerC1ER11BlockSource10Profession
0045fc50 g    DF .text	0000027c _ZN9IronGolemC1ER11BlockSource
003352c4 g    DF .text	0000015c _ZN9SnowGolemC1ER11BlockSource
00335098 g    DF .text	0000022c _ZN7CreeperC1ER11BlockSource
003eb4fc g    DF .text	000001bc _ZN6ZombieC1ER11BlockSource
0037c7e4 g    DF .text	00000108 _ZN14ZombieVillagerC1ER11BlockSource
002df680 g    DF .text	000001ec _ZN8SkeletonC1ER11BlockSource
002df464 g    DF .text	000001e8 _ZN6SpiderC1ER11BlockSource
002df64c g    DF .text	00000034 _ZN10CaveSpiderC1ER11BlockSource
004b9c40 g    DF .text	00000150 _ZN5SlimeC1ER11BlockSource
00335e28 g    DF .text	00000328 _ZN8EnderManC1ER11BlockSource
003194b8 g    DF .text	0000003c _ZN9PigZombieC1ER11BlockSource
002c6ee4 g    DF .text	00000150 _ZN10SilverfishC1ER11BlockSource
002bc9a4 g    DF .text	00000034 _ZN9LavaSlimeC1ER11BlockSource
005174c8 g    DF .text	00000108 _ZN5GhastC1ER11BlockSource
003eb9f8 g    DF .text	000000c0 _ZN5BlazeC1ER11BlockSource
00281da0 g    DF .text	0000018c _ZN10MobFactory9CreateMobE10EntityTypeR11BlockSourceRK4Vec3
00281f30 g    DF .text	00000204 _ZN6Ocelot16finalizeMobSpawnEv
00282134 g    DF .text	00000350 _ZN10MobFactory16_spawnMobClusterER6PlayerRK8BlockPosb
00282488 g    DF .text	00000388 _ZN10MobFactory20postProcessSpawnMobsER11BlockSourceiiR6Random
0051dbf0 g    DF .text	0000002a _ZN11BlockSource16getTopSolidBlockERK8BlockPosb
00282810  w   DF .text	000000f4 _ZNSt10_HashtableISsSt4pairIKSsN6Social9Telemetry8PropertyEESaIS5_ENSt8__detail10_Select1stESt8equal_toISsESt4hashISsENS7_18_Mod_range_hashingENS7_20_Default_ranged_hashENS7_20_Prime_rehash_policyENS7_17_Hashtable_traitsILb1ELb0ELb1EEEEC2ERKSI_
00282810  w   DF .text	000000f4 _ZNSt10_HashtableISsSt4pairIKSsN6Social9Telemetry8PropertyEESaIS5_ENSt8__detail10_Select1stESt8equal_toISsESt4hashISsENS7_18_Mod_range_hashingENS7_20_Default_ranged_hashENS7_20_Prime_rehash_policyENS7_17_Hashtable_traitsILb1ELb0ELb1EEEEC1ERKSI_
00282904  w   DF .text	000000fc _ZNSt10_HashtableISsSt4pairIKSsN6Social9Telemetry11MeasurementEESaIS5_ENSt8__detail10_Select1stESt8equal_toISsESt4hashISsENS7_18_Mod_range_hashingENS7_20_Default_ranged_hashENS7_20_Prime_rehash_policyENS7_17_Hashtable_traitsILb1ELb0ELb1EEEEC2ERKSI_
00282904  w   DF .text	000000fc _ZNSt10_HashtableISsSt4pairIKSsN6Social9Telemetry11MeasurementEESaIS5_ENSt8__detail10_Select1stESt8equal_toISsESt4hashISsENS7_18_Mod_range_hashingENS7_20_Default_ranged_hashENS7_20_Prime_rehash_policyENS7_17_Hashtable_traitsILb1ELb0ELb1EEEEC1ERKSI_
00282a00  w   DF .text	00000152 _Z10_gather3x3I5ColorEvPT_S2_
00282b54 g    DF .text	00000930 _ZN16BlockTessellator23tessellateLiquidInWorldER11LiquidBlockRK8BlockPosh
004a4cf4 g    DF .text	00000030 _ZNK8BlockPos8neighborEa
00283484 g    DF .text	0000033e _ZN16BlockTessellator17tessellateInWorldER5BlockRK8BlockPoshb
00283804 g    DF .text	0000005c _ZN16BlockTessellator24tessellateTopSnowInWorldER5BlockRK8BlockPosh
00283860 g    DF .text	00000058 _ZN16BlockTessellator26tessellateExtraDataInWorldER5BlockRK8BlockPos
002837c4 g    DF .text	00000040 _ZN16BlockTessellator17tessellateInWorldER5BlockRK8BlockPoshRK22TextureUVCoordinateSet
004a3448 g    DF .text	00000038 _ZN12TopSnowBlock28dataIDToRecoverableFullBlockER11BlockSourceRK8BlockPosh
00519bc0 g    DF .text	0000003e _ZN11BlockSource12getExtraDataERK8BlockPos
002838b8  w   DF .text	0000005e _ZSt11make_uniqueI16BaseAttributeMapIEESt10unique_ptrIT_St14default_deleteIS2_EEDpOT0_
002838b8  w   DF .text	0000005e _ZSt11make_uniqueI16BaseAttributeMapJEESt10unique_ptrIT_St14default_deleteIS2_EEDpOT0_
00283918  w   DF .text	00000088 _ZSt11make_uniqueI7SensingIR3MobEESt10unique_ptrIT_St14default_deleteIS4_EEDpOT0_
00283918  w   DF .text	00000088 _ZSt11make_uniqueI7SensingJR3MobEESt10unique_ptrIT_St14default_deleteIS4_EEDpOT0_
002839a0  w   DF .text	000000f8 _ZNSt6vectorI17AttributeModifierSaIS0_EEC2ERKS2_
005f0738 g    DO .data.rel.ro	00000014 _ZTV17AttributeModifier
002839a0  w   DF .text	000000f8 _ZNSt6vectorI17AttributeModifierSaIS0_EEC1ERKS2_
00283a98  w   DF .text	000001e0 _ZNSt6vectorI21TemporalAttributeBuffSaIS0_EEC2ERKS2_
005f5408 g    DO .data.rel.ro	0000001c _ZTV13AttributeBuff
005f5448 g    DO .data.rel.ro	00000024 _ZTV21TemporalAttributeBuff
00283a98  w   DF .text	000001e0 _ZNSt6vectorI21TemporalAttributeBuffSaIS0_EEC1ERKS2_
00283c78 g    DF .text	000002c8 _ZN3Mob18registerAttributesEv
004d6f68 g    DF .text	000000c2 _ZN16BaseAttributeMap17registerAttributeERK9Attribute
002b90a4 g    DF .text	00000024 _ZN23HealthAttributeDelegateC1ERK17AttributeInstanceP3Mob
00512e98 g    DF .text	0000007e _ZN17AttributeInstance11setDelegateESt10shared_ptrI25AttributeInstanceDelegateE
00646898 g    DO .bss	00000014 _ZN16SharedAttributes10ABSORPTIONE
005ff718 g    DO .data.rel.ro	00000014 _ZTV17AttributeInstance
005dc4f8  w   DO .data.rel.ro	0000001c _ZTVSt19_Sp_counted_deleterIP23HealthAttributeDelegateSt14default_deleteIS0_ESaIvELN9__gnu_cxx12_Lock_policyE2EE
00283f40  w   DF .text	000000a4 _ZNSt8functionIFvvEEaSISt5_BindIFSt7_Mem_fnIM23FurnaceScreenControllerFv12ItemLocationiEEPS5_S6_iEEEENSt9enable_ifIXsrSt6__and_IISt6__not_ISt7is_sameINSt5decayIT_E4typeES1_EESt5__or_IISt7is_voidIvESt14is_convertibleIDTclcl18__callable_functorcl7declvalIRSK_EEEEEvEEEEE5valueERS1_E4typeEOSI_
00283f40  w   DF .text	000000a4 _ZNSt8functionIFvvEEaSISt5_BindIFSt7_Mem_fnIM23FurnaceScreenControllerFv12ItemLocationiEEPS5_S6_iEEEENSt9enable_ifIXsrSt6__and_IJSt6__not_ISt7is_sameINSt5decayIT_E4typeES1_EESt5__or_IJSt7is_voidIvESt14is_convertibleIDTclcl18__callable_functorcl7declvalIRSK_EEEEEvEEEEE5valueERS1_E4typeEOSI_
00283fe4  w   DF .text	0000006c _ZN17SynchedEntityData6defineIsEEvhRKT_
00284050  w   DF .text	00000078 _ZN17SynchedEntityData6defineISsEEvhRKT_
002840c8 g    DF .text	00000108 _ZN6Entity5_initEv
002841d0 g    DF .text	0000006c _ZN3Mob5_initEv
0028423c g    DF .text	00000260 _ZN3Mob5_ctorEv
002c0180 g    DF .text	00000038 _ZN11LookControlC1ER3Mob
005088a0 g    DF .text	00000034 _ZN11MoveControlC1ER3Mob
0032a008 g    DF .text	00000018 _ZN11JumpControlC1ER3Mob
0031e324 g    DF .text	0000001c _ZN11BodyControlC1ER3Mob
0028449c g    DF .text	00000004 _ZN6Entity5resetEv
002844a0 g    DF .text	00000200 _ZN6EntityC2ER11BlockSource
0043ac94 g    DF .text	00000010 _ZN17SynchedEntityDataC1Ev
00649914 g    DO .bss	00000008 _ZN4Vec24ZEROE
002844a0 g    DF .text	00000200 _ZN6EntityC1ER11BlockSource
002846a0 g    DF .text	000002c0 _ZN13LightningBoltC2ER11BlockSource
002846a0 g    DF .text	000002c0 _ZN13LightningBoltC1ER11BlockSource
00284960 g    DF .text	0000017e _ZN13EntityFactory12CreateEntityE10EntityTypeR11BlockSource
00496e60 g    DF .text	00000030 _ZN13SmallFireballC1ER11BlockSource
00460728 g    DF .text	00000088 _ZN10ItemEntityC1ER11BlockSource
004b20fc g    DF .text	00000064 _ZN9PrimedTntC1ER11BlockSourcei
00373218 g    DF .text	00000038 _ZN12FallingBlockC1ER11BlockSource
002c87d0 g    DF .text	00000020 _ZN16ExperiencePotionC1ER11BlockSource
003bd0f8 g    DF .text	00000044 _ZN13ExperienceOrbC1ER11BlockSource
004c069c g    DF .text	000000a8 _ZN11FishingHookC1ER11BlockSource
004608a4 g    DF .text	00000068 _ZN5ArrowC1ER11BlockSource
00499700 g    DF .text	00000028 _ZN8SnowballC1ER11BlockSource
0049e460 g    DF .text	00000028 _ZN8PaintingC1ER11BlockSource
003cfc50 g    DF .text	0000001c _ZN16MinecartRideableC1ER11BlockSource
0031cd64 g    DF .text	00000028 _ZN13LargeFireballC1ER11BlockSource
0045ff50 g    DF .text	00000024 _ZN12ThrownPotionC1ER11BlockSource
0052e0bc g    DF .text	00000114 _ZN4BoatC1ER11BlockSourceh
00284ae0 g    DF .text	00000150 _ZN13EntityFactory10loadEntityEPK11CompoundTagR11BlockSource
00506750 g    DF .text	00000008 _ZN15EntityClassTree5isMobE10EntityType
00506758 g    DF .text	0000001c _ZN15EntityClassTree11isMobLegacyE10EntityType
00284c30 g    DF .text	00000064 _ZN8FireballC2ER11BlockSource
00284c30 g    DF .text	00000064 _ZN8FireballC1ER11BlockSource
00284c98 g    DF .text	00000490 _ZN8FireballC2ER3MobRK4Vec3
00000000      DF *UND*	00000000 logf
00284c98 g    DF .text	00000490 _ZN8FireballC1ER3MobRK4Vec3
00285128 g    DF .text	000000e4 _ZN8FireballC2ER11BlockSourceRK4Vec3S4_
00285128 g    DF .text	000000e4 _ZN8FireballC1ER11BlockSourceRK4Vec3S4_
0028520c g    DF .text	00000244 _ZN3MobC2ER11BlockSource
003c8030 g    DF .text	00000034 _ZN20MovementInterpolatorC1Ev
0028520c g    DF .text	00000244 _ZN3MobC1ER11BlockSource
00285450 g    DF .text	000001e8 _ZN6EntityC2ER5Level
00285450 g    DF .text	000001e8 _ZN6EntityC1ER5Level
00285638 g    DF .text	00000244 _ZN3MobC2ER5Level
00285638 g    DF .text	00000244 _ZN3MobC1ER5Level
0028587c  w   DF .text	000001bc _ZNSt6vectorI4AABBSaIS0_EEaSERKS2_
00285a38 g    DF .text	00000ab4 _ZN6Entity4moveERK4Vec3
002b993c g    DF .text	0000010c _ZNK4AABB8expandedERK4Vec3
0052e55c g    DF .text	000003bc _ZN11BlockSource20fetchCollisionShapesERS_RK4AABBPfbP6Entity
002ba4c4 g    DF .text	000000b0 _ZNK4AABB12clipYCollideERKS_f
002ba970 g    DF .text	00000056 _ZN4AABB4moveEfff
002ba414 g    DF .text	000000b0 _ZNK4AABB12clipXCollideERKS_f
002ba574 g    DF .text	000000b0 _ZNK4AABB12clipZCollideERKS_f
002bab40 g    DF .text	0000006a _ZN4AABB3setERKS_
002bc980 g    DF .text	00000024 _ZNK7BlockID11hasPropertyE13BlockProperty
002864ec  w   DF .text	000000b0 _ZNSt6vectorIN3mce23ConstantBufferContainerESaIS1_EE7reserveEj
0037bcd0 g    DF .text	0000000c _ZN3mce23ConstantBufferContainerC1EOS0_
0028659c  w   DF .text	00000140 _ZNSt6vectorI22TextureUVCoordinateSetSaIS0_EEaSERKS2_
002866dc g    DF .text	000000dc _ZN11LiquidBlockC2ERKSsiRK8MaterialS1_S1_
002866dc g    DF .text	000000dc _ZN11LiquidBlockC1ERKSsiRK8MaterialS1_S1_
002867b8  w   DF .text	00000088 _ZN8GridAreaIP10LevelChunkED2Ev
002867b8  w   DF .text	00000088 _ZN8GridAreaIP10LevelChunkED1Ev
00286840 g    DF .text	000000f4 _ZN18MakeInfiniteScreenD2Ev
00286840 g    DF .text	000000f4 _ZN18MakeInfiniteScreenD1Ev
00286934 g    DF .text	00000008 _ZThn8_N18MakeInfiniteScreenD1Ev
0028693c g    DF .text	00000012 _ZN18MakeInfiniteScreenD0Ev
00286950 g    DF .text	00000008 _ZThn8_N18MakeInfiniteScreenD0Ev
00286958  w   DF .text	0000012e _ZNSt6vectorIN2UI10AxisOffsetESaIS1_EEaSERKS3_
00286a88  w   DF .text	00000084 _ZNSt8functionIFvvEEaSEOS1_
00286b0c  w   DF .text	00000088 _ZN15ThreadSafeQueueISt8functionIFvvEEE3popERS2_
00286b94 g    DF .text	0000005c _ZN6Social11UserManager4tickEv
00000000      DF *UND*	00000000 _ZNSt6chrono3_V212system_clock3nowEv
00286bf0  w   DF .text	000000a8 _ZNSt5dequeIN16BackgroundWorker3JobESaIS1_EED2Ev
00286bf0  w   DF .text	000000a8 _ZNSt5dequeIN16BackgroundWorker3JobESaIS1_EED1Ev
00286c98  w   DF .text	000000a6 _ZN12LocklessPipeISt8functionIFvvEELj512EE11try_dequeueIS2_EEbRT_
00286d40 g    DF .text	00000054 _ZN16BackgroundWorker20_processNextCallbackEv
00286d94 g    DF .text	00000022 _ZN16BackgroundWorker17_processCallbacksEv
00286db8  w   DF .text	00000078 _ZN12LocklessPipeIN16BackgroundWorker3JobELj512EE11try_dequeueIS1_EEbRT_
00286e30 g    DF .text	0000002c _ZN16BackgroundWorker11_tryPopRealERNS_3JobE
00286e5c  w   DF .text	000000ec _ZNSt6vectorISsSaISsEE7reserveEj
00286f48  w   DF .text	00000050 _ZNSt16_Sp_counted_baseILN9__gnu_cxx12_Lock_policyE2EE10_M_releaseEv
00286f98 g    DF .text	00000150 _ZN23FurnaceScreenController13_tryAutoPlaceE12ItemLocationii
0042eb68 g    DF .text	00000040 _ZNK20MinecraftScreenModel15getItemInstanceERi12ItemLocation
0044858c g    DF .text	000001a8 _ZN20MinecraftScreenModel22takeStackFromInventoryEi8TakeType12ItemLocation
004491b8 g    DF .text	00000148 _ZN20MinecraftScreenModel22takeStackFromInventoryEii12ItemLocation
002870e8  w   DF .text	000000de _ZNSt6vectorI12SimplexNoiseSaIS0_EE19_M_emplace_back_auxIIR6RandomEEEvDpOT_
002cf308 g    DF .text	000001e0 _ZN12SimplexNoiseC1ER6Random
002870e8  w   DF .text	000000de _ZNSt6vectorI12SimplexNoiseSaIS0_EE19_M_emplace_back_auxIJR6RandomEEEvDpOT_
002871c8 g    DF .text	0000004e _ZN18PerlinSimplexNoise5_initER6Random
00287218 g    DF .text	0000005a _ZN18PerlinSimplexNoiseC2Eji
00287218 g    DF .text	0000005a _ZN18PerlinSimplexNoiseC1Eji
00287274 g    DF .text	00000016 _ZN18PerlinSimplexNoiseC2ER6Randomi
00287274 g    DF .text	00000016 _ZN18PerlinSimplexNoiseC1ER6Randomi
0028728c  w   DF .text	0000007e _ZNSt8_Rb_treeI8BlockPosSt4pairIKS0_St10unique_ptrI20BaseCircuitComponentSt14default_deleteIS4_EEESt10_Select1stIS8_ESt4lessIS0_ESaIS8_EE4findERS2_
00287310  w   DF .text	000000f8 _ZN13CircuitSystem6createI21PoweredBlockComponentEEPT_RK8BlockPosP11BlockSourcea
003c7120 g    DF .text	00000020 _ZN21PoweredBlockComponentC1Eh
0033a840 g    DF .text	00000046 _ZN13CircuitSystem15createComponentERK8BlockPosaSt10unique_ptrI20BaseCircuitComponentSt14default_deleteIS4_EE
0033a888 g    DF .text	000000f4 _ZN13CircuitSystem34checkForAssociatedNewPoweredBlocksER11BlockSourceRK8BlockPos
0031fc48 g    DF .text	00000042 _ZN17CircuitSceneGraph26getBaseComponentPendingAddERK8BlockPos
00287408 g    DF .text	00000040 _ZN9SlabBlock8onLoadedER11BlockSourceRK8BlockPos
00287448 g    DF .text	00000034 _ZN13LightGemBlock8onLoadedER11BlockSourceRK8BlockPos
00287480  w   DF .text	000000f0 _ZN13CircuitSystem6createI17ProducerComponentEEPT_RK8BlockPosP11BlockSourcea
003d7234 g    DF .text	00000020 _ZN17ProducerComponentC1Ev
00287570 g    DF .text	00000038 _ZN13RedstoneBlock8onLoadedER11BlockSourceRK8BlockPos
002875a8 g    DF .text	000000a4 _ZN10LeverBlock8onLoadedER11BlockSourceRK8BlockPos
003d7254 g    DF .text	00000004 _ZN17ProducerComponent16allowAttachmentsEb
0028764c  w   DF .text	00000132 _ZNSt6vectorIN20BaseCircuitComponent11SourceEntryESaIS1_EE19_M_emplace_back_auxIIRKS1_EEEvDpOT_
0028764c  w   DF .text	00000132 _ZNSt6vectorIN20BaseCircuitComponent11SourceEntryESaIS1_EE19_M_emplace_back_auxIJRKS1_EEEvDpOT_
00287780 g    DF .text	000000f8 _ZN20BaseCircuitComponent16trackPowerSourceERSt6vectorINS_11SourceEntryESaIS1_EERK19CircuitTrackingInfoib
00287878  w   DF .text	000000f8 _ZNSt6vectorI12PurchaseInfoSaIS0_EE19_M_emplace_back_auxIIRKS0_EEEvDpOT_
00287878  w   DF .text	000000f8 _ZNSt6vectorI12PurchaseInfoSaIS0_EE19_M_emplace_back_auxIJRKS0_EEEvDpOT_
00287970 g    DF .text	00000066 _ZN13PurchaseCache17setSingleInternalERK12PurchaseInfo
002879d8 g    DF .text	00000058 _ZN13PurchaseCache14setSingleValidESs
00287a30 g    DF .text	00000084 _ZN13PurchaseCache16setValidatedListERKSt6vectorI12PurchaseInfoSaIS1_EE
00287ab4 g    DF .text	00000464 _ZN13PurchaseCache4loadEv
00000000      DF *UND*	00000000 _ZSt7getlineIcSt11char_traitsIcESaIcEERSt13basic_istreamIT_T0_ES7_RSbIS4_S5_T1_ES4_
00000000      DO *UND*	00000000 _ZTTSt14basic_ifstreamIcSt11char_traitsIcEE
00000000      DO *UND*	00000000 _ZTVSt14basic_ifstreamIcSt11char_traitsIcEE
00287f18 g    DF .text	00000038 _ZN13PurchaseCacheC2ESsSs
00287f18 g    DF .text	00000038 _ZN13PurchaseCacheC1ESsSs
00287f50  w   DF .text	00000138 _ZNSt10_HashtableI8BatchKeySt4pairIKS0_St10unique_ptrIN24MinecraftUIRenderContext18PersistentMeshItemESt14default_deleteIS5_EEESaIS9_ENSt8__detail10_Select1stESt8equal_toIS0_E11BatchHasherNSB_18_Mod_range_hashingENSB_20_Default_ranged_hashENSB_20_Prime_rehash_policyENSB_17_Hashtable_traitsILb1ELb0ELb1EEEE5clearEv
00288088 g    DF .text	000000b8 _ZN24MinecraftUIRenderContextD2Ev
00288088 g    DF .text	000000b8 _ZN24MinecraftUIRenderContextD1Ev
00288140 g    DF .text	00000012 _ZN24MinecraftUIRenderContextD0Ev
00288154  w   DF .text	00000238 _ZNSt6vectorIN24MinecraftUIRenderContext8TextItemESaIS1_EE19_M_emplace_back_auxIIRK13RectangleAreaRKSsR5ColorRfbRN2UI11AnchorPointERNSD_8FontSizeERbEEEvDpOT_
00288154  w   DF .text	00000238 _ZNSt6vectorIN24MinecraftUIRenderContext8TextItemESaIS1_EE19_M_emplace_back_auxIJRK13RectangleAreaRKSsR5ColorRfbRN2UI11AnchorPointERNSD_8FontSizeERbEEEvDpOT_
0028838c g    DF .text	00000098 _ZN24MinecraftUIRenderContext14drawTextShadowERK13RectangleAreaRKSsN2UI11AnchorPointENS5_8FontSizeEb
00288424 g    DF .text	00000098 _ZN24MinecraftUIRenderContext8drawTextERK13RectangleAreaRKSsN2UI11AnchorPointENS5_8FontSizeEb
002884bc  w   DF .text	000001d4 _ZNSt6vectorIN24MinecraftUIRenderContext9ImageItemESaIS1_EE19_M_emplace_back_auxIIRKN3mce10TexturePtrERN3glm6detail5tvec2IfEESD_SD_SD_R5ColorRfEEEvDpOT_
002884bc  w   DF .text	000001d4 _ZNSt6vectorIN24MinecraftUIRenderContext9ImageItemESaIS1_EE19_M_emplace_back_auxIJRKN3mce10TexturePtrERN3glm6detail5tvec2IfEESD_SD_SD_R5ColorRfEEEvDpOT_
00288690 g    DF .text	00000086 _ZN24MinecraftUIRenderContext9drawImageERKN3mce10TexturePtrEN3glm6detail5tvec2IfEES7_S7_S7_
00288718  w   DF .text	000000e0 _ZNSt10_HashtableI8BatchKeySt4pairIKS0_St10unique_ptrIN24MinecraftUIRenderContext18PersistentMeshItemESt14default_deleteIS5_EEESaIS9_ENSt8__detail10_Select1stESt8equal_toIS0_E11BatchHasherNSB_18_Mod_range_hashingENSB_20_Default_ranged_hashENSB_20_Prime_rehash_policyENSB_17_Hashtable_traitsILb1ELb0ELb1EEEE4findERS2_
002887f8  w   DF .text	000000f4 _ZNSt6vectorIN3mce10TexturePtrESaIS1_EE19_M_emplace_back_auxIIS1_EEEvDpOT_
0032eaa8 g    DF .text	00000020 _ZN3mce10TexturePtrC1EOS0_
002887f8  w   DF .text	000000f4 _ZNSt6vectorIN3mce10TexturePtrESaIS1_EE19_M_emplace_back_auxIJS1_EEEvDpOT_
002888ec g    DF .text	0000057c _ZN19HumanoidMobRendererC2ESt10unique_ptrI13HumanoidModelSt14default_deleteIS1_EES4_S4_N3mce10TexturePtrEf
00433924 g    DF .text	0000005c _ZN11MobRendererC2ESt10unique_ptrI5ModelSt14default_deleteIS1_EEN3mce10TexturePtrEf
002888ec g    DF .text	0000057c _ZN19HumanoidMobRendererC1ESt10unique_ptrI13HumanoidModelSt14default_deleteIS1_EES4_S4_N3mce10TexturePtrEf
00288e68  w   DF .text	00000274 _ZNSt6vectorI8BatchKeySaIS0_EE19_M_emplace_back_auxIIRKS0_EEEvDpOT_
00288e68  w   DF .text	00000274 _ZNSt6vectorI8BatchKeySaIS0_EE19_M_emplace_back_auxIJRKS0_EEEvDpOT_
002890dc g    DF .text	00000390 _ZN24MinecraftUIRenderContext7cleanupEv
0028946c  w   DF .text	00000060 _ZNSt10_HashtableI14EntityUniqueIDS0_SaIS0_ENSt8__detail9_IdentityESt8equal_toIS0_ESt4hashIS0_ENS2_18_Mod_range_hashingENS2_20_Default_ranged_hashENS2_20_Prime_rehash_policyENS2_17_Hashtable_traitsILb1ELb1ELb1EEEE4findERKS0_
002894cc  w   DF .text	000000a8 _ZNSt10_HashtableISsSt4pairIKSsN6Social9Telemetry8PropertyEESaIS5_ENSt8__detail10_Select1stESt8equal_toISsESt4hashISsENS7_18_Mod_range_hashingENS7_20_Default_ranged_hashENS7_20_Prime_rehash_policyENS7_17_Hashtable_traitsILb1ELb0ELb1EEEE5clearEv
00289574 g    DF .text	000000fc _ZN6Social9Telemetry14TelemetryEventD2Ev
00289574 g    DF .text	000000fc _ZN6Social9Telemetry14TelemetryEventD1Ev
00289670 g    DF .text	00000104 _ZN6Social9Telemetry14TelemetryEventC2ESsRSt13unordered_mapISsNS0_8PropertyESt4hashISsESt8equal_toISsESaISt4pairIKSsS3_EEE
00289670 g    DF .text	00000104 _ZN6Social9Telemetry14TelemetryEventC1ESsRSt13unordered_mapISsNS0_8PropertyESt4hashISsESt8equal_toISsESaISt4pairIKSsS3_EEE
00289774  w   DF .text	00000188 _ZN6Social9Telemetry16TelemetryManagerD2Ev
00289774  w   DF .text	00000188 _ZN6Social9Telemetry16TelemetryManagerD1Ev
002898fc g    DF .text	00000032 _ZN18MinecraftTelemetryC2ERN6Social11UserManagerERKSs
002f79e0 g    DF .text	000001ec _ZN6Social9Telemetry16TelemetryManagerC1ERNS_11UserManagerERKSs
002898fc g    DF .text	00000032 _ZN18MinecraftTelemetryC1ERN6Social11UserManagerERKSs
00289930  w   DF .text	00000118 _ZNSt6vectorISt8functionIFvvEESaIS2_EE19_M_emplace_back_auxIIRKS2_EEEvDpOT_
00289930  w   DF .text	00000118 _ZNSt6vectorISt8functionIFvvEESaIS2_EE19_M_emplace_back_auxIJRKS2_EEEvDpOT_
00289a48 g    DF .text	00000036 _ZN6Social11UserManager21registerSignInHandlerESt8functionIFvvEE
00289a80 g    DF .text	00000036 _ZN6Social11UserManager22registerSignOutHandlerESt8functionIFvvEE
00289ab8  w   DF .text	000000fe _ZNSt6vectorI12ItemInstanceSaIS0_EE19_M_emplace_back_auxIIRKS0_EEEvDpOT_
00289ab8  w   DF .text	000000fe _ZNSt6vectorI12ItemInstanceSaIS0_EE19_M_emplace_back_auxIJRKS0_EEEvDpOT_
00289bb8 g    DF .text	0000006a _ZNK8ItemPack16getItemInstancesEv
00289c24 g    DF .text	00000058 _ZN16BrewingStandMenu8getItemsEv
00289c7c  w   DF .text	0000017c _ZNSt6vectorISt10shared_ptrI6ButtonESaIS2_EE19_M_emplace_back_auxIIRKS2_EEEvDpOT_
00289c7c  w   DF .text	0000017c _ZNSt6vectorISt10shared_ptrI6ButtonESaIS2_EE19_M_emplace_back_auxIJRKS2_EEEvDpOT_
00289df8 g    DF .text	0000018c _ZN11InBedScreen4initEv
00372a84 g    DF .text	00000006 _ZN6Screen14setButtonIndexEi
005dc538  w   DO .data.rel.ro	0000001c _ZTVSt19_Sp_counted_deleterIPN5Touch7TButtonENSt12__shared_ptrIS1_LN9__gnu_cxx12_Lock_policyE2EE8_DeleterISaIS1_EEES8_LS5_2EE
00289f84  w   DF .text	000000c2 _ZNSt8_Rb_treeIiSt4pairIKiiESt10_Select1stIS2_ESt4lessIiESaIS2_EE16_M_insert_uniqueIS0_IiiEEES0_ISt17_Rb_tree_iteratorIS2_EbEOT_
0028a048 g    DF .text	00000046 _ZN8ItemPack3addEii
0028a090  w   DF .text	0000029c _ZNSt6vectorIbSaIbEE13_M_insert_auxESt13_Bit_iteratorb
00573540 g    DF .text	0000001a __aeabi_idivmod
0028a32c g    DF .text	00000844 _ZN18TextureTessellator10tessellateERK11TextureDataiiiibb
002b89f8 g    DF .text	00000028 _ZN11Tessellator4quadEjb
0028ab70  w   DF .text	000000de _ZNSt6vectorI10EntityLinkSaIS0_EE19_M_emplace_back_auxIIS0_EEEvDpOT_
0028ab70  w   DF .text	000000de _ZNSt6vectorI10EntityLinkSaIS0_EE19_M_emplace_back_auxIJS0_EEEvDpOT_
0028ac50 g    DF .text	00000094 _ZNK6Entity8getLinksEv
0028ace4  w   DF .text	00000080 _ZN15AddEntityPacketC2ER6Entity
0028ace4  w   DF .text	00000080 _ZN15AddEntityPacketC1ER6Entity
0028ad64 g    DF .text	0000002e _ZN6Entity12getAddPacketEv
0028ad94 g    DF .text	00000090 _ZN6Entity13_manageRidersER11BlockSource
0028ae24 g    DF .text	000000a8 _ZN6Entity4tickER11BlockSource
00518560 g    DF .text	0000002e _ZN11BlockSource11hasChunksAtERK8BlockPosS2_
0028aecc g    DF .text	00000188 _ZN6Entity9loadLinksERK11CompoundTagRSt6vectorI10EntityLinkSaIS4_EE
003ec9a4 g    DF .text	00000016 _ZNK11CompoundTag3getERKSs
0028b054  w   DF .text	00000414 _ZN15AddEntityPacket4readEPN6RakNet9BitStreamE
0028b468  w   DF .text	000000b6 _ZNSt6vectorI20MoveEntityPacketDataSaIS0_EE19_M_emplace_back_auxIIRKS0_EEEvDpOT_
0028b468  w   DF .text	000000b6 _ZNSt6vectorI20MoveEntityPacketDataSaIS0_EE19_M_emplace_back_auxIJRKS0_EEEvDpOT_
0028b520 g    DF .text	000001a0 _ZN6Entity18sendMotionToServerEv
0028b6c0  w   DF .text	000000b6 _ZNSt6vectorI20MoveEntityPacketDataSaIS0_EE19_M_emplace_back_auxIIRS0_EEEvDpOT_
0028b6c0  w   DF .text	000000b6 _ZNSt6vectorI20MoveEntityPacketDataSaIS0_EE19_M_emplace_back_auxIJRS0_EEEvDpOT_
0028b778  w   DF .text	00000290 _ZN16MoveEntityPacket4readEPN6RakNet9BitStreamE
0028ba08  w   DF .text	000000de _ZNSt6vectorI25SetEntityMotionPacketDataSaIS0_EE19_M_emplace_back_auxIIRS0_EEEvDpOT_
0028ba08  w   DF .text	000000de _ZNSt6vectorI25SetEntityMotionPacketDataSaIS0_EE19_M_emplace_back_auxIJRS0_EEEvDpOT_
0028bae8  w   DF .text	000001cc _ZN21SetEntityMotionPacket4readEPN6RakNet9BitStreamE
0028bcb4  w   DF .text	000000f2 _ZNSt8_Rb_treeI10EntityTypeS0_St9_IdentityIS0_ESt4lessIS0_ESaIS0_EE8_M_eraseEPSt13_Rb_tree_nodeIS0_E
0028bda8  w   DF .text	00000024 _ZNSt3setI10EntityTypeSt4lessIS0_ESaIS0_EED2Ev
0028bda8  w   DF .text	00000024 _ZNSt3setI10EntityTypeSt4lessIS0_ESaIS0_EED1Ev
0028bdcc  w   DF .text	000000ea _ZNSt6vectorIP6EntitySaIS1_EE7emplaceIIS1_EEEN9__gnu_cxx17__normal_iteratorIPS1_S3_EES8_DpOT_
0028bdcc  w   DF .text	000000ea _ZNSt6vectorIP6EntitySaIS1_EE7emplaceIJS1_EEEN9__gnu_cxx17__normal_iteratorIPS1_S3_EES8_DpOT_
0028beb8  w   DF .text	00000070 _ZNSt6vectorIP6EntitySaIS1_EE19_M_emplace_back_auxIIS1_EEEvDpOT_
0028beb8  w   DF .text	00000070 _ZNSt6vectorIP6EntitySaIS1_EE19_M_emplace_back_auxIJS1_EEEvDpOT_
0028bf28 g    DF .text	0000008e _ZN6Entity8addRiderERS_
0028bfb8  w   DF .text	000002ec _ZNSt8_Rb_treeISsSsSt9_IdentityISsESt4lessISsESaISsEE8_M_eraseEPSt13_Rb_tree_nodeISsE
0028c2a4 g    DF .text	00000030 _ZN3mce29ConstantBufferMetaDataManagerD2Ev
003dfffc g    DF .text	00000064 _ZN3mce22ConstantBufferMetaDataD1Ev
0028c2a4 g    DF .text	00000030 _ZN3mce29ConstantBufferMetaDataManagerD1Ev
0028c2d4  w   DF .text	0000001c _ZNSt10unique_ptrIN3mce29ConstantBufferMetaDataManagerESt14default_deleteIS1_EED2Ev
0028c2d4  w   DF .text	0000001c _ZNSt10unique_ptrIN3mce29ConstantBufferMetaDataManagerESt14default_deleteIS1_EED1Ev
0028c2f0  w   DF .text	000001dc _ZNSt6vectorIN3mce22ConstantBufferMetaDataESaIS1_EE19_M_emplace_back_auxIIEEEvDpOT_
003dffe4 g    DF .text	00000018 _ZN3mce22ConstantBufferMetaDataC1Ev
0028c2f0  w   DF .text	000001dc _ZNSt6vectorIN3mce22ConstantBufferMetaDataESaIS1_EE19_M_emplace_back_auxIJEEEvDpOT_
0028c4cc  w   DF .text	0000011a _ZNSt8_Rb_treeISsSsSt9_IdentityISsESt4lessISsESaISsEE16_M_insert_uniqueIRKSsEESt4pairISt17_Rb_tree_iteratorISsEbEOT_
0028c5e8  w   DF .text	00000116 _ZNSt6vectorIN3mce15UniformMetaDataESaIS1_EE19_M_emplace_back_auxIIEEEvDpOT_
002b87a0 g    DF .text	00000024 _ZN3mce15UniformMetaDataC1Ev
002b87c4 g    DF .text	00000044 _ZN3mce15UniformMetaDataD1Ev
0028c5e8  w   DF .text	00000116 _ZNSt6vectorIN3mce15UniformMetaDataESaIS1_EE19_M_emplace_back_auxIJEEEvDpOT_
0028c700  w   DF .text	000000e6 _ZNSt6vectorIN3mce23ConstantBufferContainerESaIS1_EE19_M_emplace_back_auxIIEEEvDpOT_
0037bcb4 g    DF .text	0000000c _ZN3mce23ConstantBufferContainerC1Ev
0028c700  w   DF .text	000000e6 _ZNSt6vectorIN3mce23ConstantBufferContainerESaIS1_EE19_M_emplace_back_auxIJEEEvDpOT_
0028c7e8 g    DF .text	000000b0 _ZN3mce29ConstantBufferMetaDataManager32allocateConstantBufferContainersEv
003e0088 g    DF .text	00000026 _ZNK3mce22ConstantBufferMetaData27getRequiredSpaceForUniformsEv
00437108 g    DF .text	000001a0 _ZN3mce27ConstantBufferContainerBase31reserveMemoryForShaderConstantsEjj
0037bcfc g    DF .text	00000004 _ZN3mce23ConstantBufferContainer32registerReflectedShaderParameterERKNS_15UniformMetaDataE
0037bd08 g    DF .text	00000004 _ZN3mce23ConstantBufferContainer28finalizeConstantBufferLayoutEv
0028c898  w   DF .text	000001bc _ZNSt6vectorI11DataBindingSaIS0_EE19_M_emplace_back_auxIIS0_EEEvDpOT_
0028c898  w   DF .text	000001bc _ZNSt6vectorI11DataBindingSaIS0_EE19_M_emplace_back_auxIJS0_EEEvDpOT_
0028ca54 g    DF .text	00000174 _ZN20DataBindingComponent10addBindingE11BindingTypeRKSsS2_
0028cbc8  w   DF .text	000001bc _ZNSt6vectorI11DataBindingSaIS0_EE19_M_emplace_back_auxIIRS0_EEEvDpOT_
0028cbc8  w   DF .text	000001bc _ZNSt6vectorI11DataBindingSaIS0_EE19_M_emplace_back_auxIJRS0_EEEvDpOT_
0028cd84 g    DF .text	0000003c _ZN20DataBindingComponent10addBindingE11DataBinding
0028cdc0  w   DF .text	0000006c _ZNSt8_Rb_treeISsSt4pairIKSs15BlockEntityTypeESt10_Select1stIS3_ESt4lessISsESaIS3_EE4findERS1_
0028ce2c g    DF .text	000001d8 _ZN11BlockEntity10loadStaticER11CompoundTag
006450c8 g    DO .bss	00000018 _ZN11BlockEntity10idClassMapE
0028d004  w   DF .text	000000d0 _ZNSt8_Rb_treeI15BlockEntityTypeSt4pairIKS0_SsESt10_Select1stIS3_ESt4lessIS0_ESaIS3_EE16_M_insert_uniqueIS1_IS0_SsEEES1_ISt17_Rb_tree_iteratorIS3_EbEOT_
0028d0d4 g    DF .text	000001d8 _ZN11BlockEntity5setIdE15BlockEntityTypeRKSs
0028d2ac g    DF .text	00000338 _ZN11BlockEntity17initBlockEntitiesEv
0028d5e4  w   DF .text	000000f2 _ZNSt8_Rb_treeIN3mce4UUIDES1_St9_IdentityIS1_EN9Whitelist11UuidCompareESaIS1_EE8_M_eraseEPSt13_Rb_tree_nodeIS1_E
0028d6d8 g    DF .text	0000002e _ZN9Whitelist5clearEv
0028d708  w   DF .text	000000d6 _ZNSt6vectorI4NodeSaIS0_EE19_M_emplace_back_auxIIRS0_EEEvDpOT_
0028d708  w   DF .text	000000d6 _ZNSt6vectorI4NodeSaIS0_EE19_M_emplace_back_auxIJRS0_EEEvDpOT_
0028d7e0 g    DF .text	0000008c _ZN4PathC2ERKSt6vectorIP4NodeSaIS2_EE
0028d7e0 g    DF .text	0000008c _ZN4PathC1ERKSt6vectorIP4NodeSaIS2_EE
0028d86c  w   DF .text	000000fa _ZN12LocklessPipeIN16BackgroundWorker3JobELj512EE13inner_enqueueILNS2_14AllocationModeE0EIS1_EEEbDpOT0_
0028d86c  w   DF .text	000000fa _ZN12LocklessPipeIN16BackgroundWorker3JobELj512EE13inner_enqueueILNS2_14AllocationModeE0EJS1_EEEbDpOT0_
0028d968  w   DF .text	00000116 _ZN12LocklessPipeIN16BackgroundWorker3JobELj512EE13inner_enqueueILNS2_14AllocationModeE0EIRKSt8functionIFbvEERKS5_IFvvEERiEEEbDpOT0_
0028d968  w   DF .text	00000116 _ZN12LocklessPipeIN16BackgroundWorker3JobELj512EE13inner_enqueueILNS2_14AllocationModeE0EJRKSt8functionIFbvEERKS5_IFvvEERiEEEbDpOT0_
0028da80  w   DF .text	000001ac _ZN12LocklessPipeISt8functionIFvvEELj512EE13inner_enqueueILNS3_14AllocationModeE0EIS2_EEEbDpOT0_
0028da80  w   DF .text	000001ac _ZN12LocklessPipeISt8functionIFvvEELj512EE13inner_enqueueILNS3_14AllocationModeE0EJS2_EEEbDpOT0_
0028dc2c  w   DF .text	000000c2 _ZNSt5dequeIN16BackgroundWorker3JobESaIS1_EE5clearEv
0028dcf0  w   DF .text	00000070 _ZNSt6vectorIP16BackgroundWorkerSaIS1_EE19_M_emplace_back_auxIIRKS1_EEEvDpOT_
0028dcf0  w   DF .text	00000070 _ZNSt6vectorIP16BackgroundWorkerSaIS1_EE19_M_emplace_back_auxIJRKS1_EEEvDpOT_
0028dd60 g    DF .text	0000004e _ZN16BackgroundWorker15notifyCoworkersERKSt6vectorIPS_SaIS1_EE
0028ddb0  w   DF .text	00000098 _ZNSt6vectorI19EnchantmentInstanceSaIS0_EE19_M_emplace_back_auxIIRKS0_EEEvDpOT_
0028ddb0  w   DF .text	00000098 _ZNSt6vectorI19EnchantmentInstanceSaIS0_EE19_M_emplace_back_auxIJRKS0_EEEvDpOT_
0028de48 g    DF .text	000001ac _ZN12ItemEnchants10addEnchantE19EnchantmentInstanceb
00508a14 g    DF .text	00000024 _ZNK7Enchant16isCompatibleWithEi
003d85f0 g    DF .text	00000004 _ZN19EnchantmentInstance15setEnchantLevelEi
00508aa0 g    DF .text	00000022 _ZNK7Enchant10canEnchantEi
0028dff4 g    DF .text	00000058 _ZNK12ItemEnchants14getAllEnchantsEv
0028e04c g    DF .text	00000040 _ZN12ItemEnchants11addEnchantsERKS_
0028e08c  w   DF .text	0000014c _ZNSt6vectorI5TokenSaIS0_EE19_M_emplace_back_auxIIS0_EEEvDpOT_
0028e08c  w   DF .text	0000014c _ZNSt6vectorI5TokenSaIS0_EE19_M_emplace_back_auxIJS0_EEEvDpOT_
0028e1d8 g    DF .text	000002c0 _ZN5Token8tokenizeERKSs
00000000      DF *UND*	00000000 _ZNSs9_M_mutateEjjj
0028e498  w   DF .text	000000fe _ZNSt6vectorI12ItemInstanceSaIS0_EE19_M_emplace_back_auxIIS0_EEEvDpOT_
0028e498  w   DF .text	000000fe _ZNSt6vectorI12ItemInstanceSaIS0_EE19_M_emplace_back_auxIJS0_EEEvDpOT_
0028e598 g    DF .text	00000078 _ZN13InventoryMenu8getItemsEv
0028e610  w   DF .text	00000070 _ZNSt6vectorIP3MobSaIS1_EE19_M_emplace_back_auxIIS1_EEEvDpOT_
0028e610  w   DF .text	00000070 _ZNSt6vectorIP3MobSaIS1_EE19_M_emplace_back_auxIJS1_EEEvDpOT_
0028e680 g    DF .text	000001e4 _ZN10MobFactory4tickER6Player
0051d8b4 g    DF .text	0000000e _ZN11BlockSource8hasBlockERK8BlockPos
0050d3e8 g    DF .text	0000001a _ZNK6Player13getViewRadiusEv
0051d89c g    DF .text	00000018 _ZN11BlockSource10getChunkAtERK8BlockPos
00427004 g    DF .text	00000054 _ZN5Level17forceRemoveEntityER6Entity
0028e864  w   DF .text	000000fc _ZNSt10_HashtableISsSt4pairIKSs10EntityTypeESaIS3_ENSt8__detail10_Select1stESt8equal_toISsESt4hashISsENS5_18_Mod_range_hashingENS5_20_Default_ranged_hashENS5_20_Prime_rehash_policyENS5_17_Hashtable_traitsILb1ELb0ELb1EEEE21_M_insert_unique_nodeEjjPNS5_10_Hash_nodeIS3_Lb1EEE
00000000      DF *UND*	00000000 _ZNKSt8__detail20_Prime_rehash_policy14_M_need_rehashEjjj
0028ea18 g    DF .text	00000e2c _Z20EntityTypeFromStringRKSs
002d11c8 g    DF .text	00000074 _ZN4Util7toLowerERKSs
0028f844  w   DF .text	000000fa _ZNSt10_HashtableIxSt4pairIKx10RenderCallESaIS3_ENSt8__detail10_Select1stESt8equal_toIxESt4hashIxENS5_18_Mod_range_hashingENS5_20_Default_ranged_hashENS5_20_Prime_rehash_policyENS5_17_Hashtable_traitsILb0ELb0ELb1EEEE21_M_insert_unique_nodeEjjPNS5_10_Hash_nodeIS3_Lb0EEE
0028f940  w   DF .text	000000b2 _ZNSt8__detail9_Map_baseIxSt4pairIKx10RenderCallESaIS4_ENS_10_Select1stESt8equal_toIxESt4hashIxENS_18_Mod_range_hashingENS_20_Default_ranged_hashENS_20_Prime_rehash_policyENS_17_Hashtable_traitsILb0ELb0ELb1EEELb1EEixERS2_
0028f9f4  w   DF .text	0000012a _ZNSt6vectorI14MobSpawnerDataSaIS0_EE13_M_insert_auxIIS0_EEEvN9__gnu_cxx17__normal_iteratorIPS0_S2_EEDpOT_
0028f9f4  w   DF .text	0000012a _ZNSt6vectorI14MobSpawnerDataSaIS0_EE13_M_insert_auxIJS0_EEEvN9__gnu_cxx17__normal_iteratorIPS0_S2_EEDpOT_
0028fb20 g    DF .text	000000f0 _ZN9HellBiomeC2Ei
0028fb20 g    DF .text	000000f0 _ZN9HellBiomeC1Ei
0028fc10 g    DF .text	00000150 _ZN19NetherBridgeFeatureC2Ev
0028fc10 g    DF .text	00000150 _ZN19NetherBridgeFeatureC1Ev
0028fd60  w   DF .text	000000c6 _ZNSt6vectorISt10unique_ptrI14StructurePieceSt14default_deleteIS1_EESaIS4_EE19_M_emplace_back_auxIIS4_EEEvDpOT_
0028fd60  w   DF .text	000000c6 _ZNSt6vectorISt10unique_ptrI14StructurePieceSt14default_deleteIS1_EESaIS4_EE19_M_emplace_back_auxIJS4_EEEvDpOT_
0028fe28 g    DF .text	0000010c _ZN17NetherBridgeStartC2EP11BiomeSourceR6Randomii
004cf9d0 g    DF .text	00000764 _ZN12NBStartPieceC1ER6Randomii
00367b38 g    DF .text	00000080 _ZN14StructureStart20calculateBoundingBoxEv
00367c14 g    DF .text	00000052 _ZN14StructureStart17moveInsideHeightsEP6Randomii
0028fe28 g    DF .text	0000010c _ZN17NetherBridgeStartC1EP11BiomeSourceR6Randomii
0028ff34 g    DF .text	00000032 _ZN19NetherBridgeFeature20createStructureStartEP11BiomeSourceR6RandomRK8ChunkPos
0028ff68  w   DF .text	000000fc _ZNSt10_HashtableISsSt4pairIKSsP9SavedDataESaIS4_ENSt8__detail10_Select1stESt8equal_toISsESt4hashISsENS6_18_Mod_range_hashingENS6_20_Default_ranged_hashENS6_20_Prime_rehash_policyENS6_17_Hashtable_traitsILb1ELb0ELb1EEEE21_M_insert_unique_nodeEjjPNS6_10_Hash_nodeIS4_Lb1EEE
00290064  w   DF .text	0000009a _ZNSt8__detail9_Map_baseISsSt4pairIKSsP9SavedDataESaIS5_ENS_10_Select1stESt8equal_toISsESt4hashISsENS_18_Mod_range_hashingENS_20_Default_ranged_hashENS_20_Prime_rehash_policyENS_17_Hashtable_traitsILb1ELb0ELb1EEELb1EEixERS2_
00290100 g    DF .text	00000180 _ZN16SavedDataStorage4loadEP9SavedDataRKSs
003ed354 g    DF .text	0000007c _ZNK11CompoundTag11getCompoundERKSs
005dc228  w   DO .data.rel.ro	00000034 _ZTV15StringByteInput
00290280 g    DF .text	000000a8 _ZN16SavedDataStorage3setERKSsP9SavedData
00290328  w   DF .text	000000fa _ZNSt10_HashtableIiSt4pairIKiN3mce4MeshEESaIS4_ENSt8__detail10_Select1stESt8equal_toIiESt4hashIiENS6_18_Mod_range_hashingENS6_20_Default_ranged_hashENS6_20_Prime_rehash_policyENS6_17_Hashtable_traitsILb0ELb0ELb1EEEE21_M_insert_unique_nodeEjjPNS6_10_Hash_nodeIS4_Lb0EEE
00290424  w   DF .text	00000070 _ZNSt6vectorIP5BiomeSaIS1_EE19_M_emplace_back_auxIIS1_EEEvDpOT_
00290424  w   DF .text	00000070 _ZNSt6vectorIP5BiomeSaIS1_EE19_M_emplace_back_auxIJS1_EEEvDpOT_
00290494 g    DF .text	000002a8 _ZN14BiomeInitLayerC2EjRSt10shared_ptrI5LayerE13GeneratorType
003d9128 g    DF .text	000000ec _ZN5LayerC2Ej
006aea04 g    DO .bss	00000004 _ZN5Biome6desertE
006ae980 g    DO .bss	00000004 _ZN5Biome7savannaE
006aea08 g    DO .bss	00000004 _ZN5Biome6plainsE
006ae9fc g    DO .bss	00000004 _ZN5Biome6forestE
006aea00 g    DO .bss	00000004 _ZN5Biome12extremeHillsE
006ae9a0 g    DO .bss	00000004 _ZN5Biome11birchForestE
006ae9f4 g    DO .bss	00000004 _ZN5Biome9swamplandE
006ae9f8 g    DO .bss	00000004 _ZN5Biome5taigaE
006ae9dc g    DO .bss	00000004 _ZN5Biome8iceFlatsE
006ae994 g    DO .bss	00000004 _ZN5Biome9taigaColdE
006ae998 g    DO .bss	00000004 _ZN5Biome12roofedForestE
00290494 g    DF .text	000002a8 _ZN14BiomeInitLayerC1EjRSt10shared_ptrI5LayerE13GeneratorType
0029073c  w   DF .text	00000070 _ZNSt6vectorIPK12ItemInstanceSaIS2_EE19_M_emplace_back_auxIIS2_EEEvDpOT_
0029073c  w   DF .text	00000070 _ZNSt6vectorIPK12ItemInstanceSaIS2_EE19_M_emplace_back_auxIJS2_EEEvDpOT_
002907ac g    DF .text	00000074 _ZNK3Mob11getAllArmorEv
00290820  w   DF .text	00000070 _ZNSt6vectorIP12ItemInstanceSaIS1_EE19_M_emplace_back_auxIIS1_EEEvDpOT_
00290820  w   DF .text	00000070 _ZNSt6vectorIP12ItemInstanceSaIS1_EE19_M_emplace_back_auxIJS1_EEEvDpOT_
00290890 g    DF .text	00000074 _ZN3Mob11getAllArmorEv
00290904  w   DF .text	00000208 _ZNSt6vectorI17MobEffectInstanceSaIS0_EE14_M_fill_insertEN9__gnu_cxx17__normal_iteratorIPS0_S2_EEjRKS0_
00290b0c g    DF .text	000000e4 _ZN3Mob9addEffectERK17MobEffectInstance
00523f30 g    DF .text	0000003a _ZN17MobEffectInstance6updateERKS_
00290bf0 g    DF .text	00000540 _ZN3Mob22readAdditionalSaveDataERK11CompoundTag
00524768 g    DF .text	0000023c _ZN17MobEffectInstance4loadEP11CompoundTag
0030105c g    DF .text	00000128 _ZN16SharedAttributes14loadAttributesEP16BaseAttributeMapPK7ListTag
00291130  w   DF .text	0000015e _ZNSt6vectorISt10shared_ptrI6ButtonESaIS2_EE19_M_emplace_back_auxIIS2_EEEvDpOT_
00291130  w   DF .text	0000015e _ZNSt6vectorISt10shared_ptrI6ButtonESaIS2_EE19_M_emplace_back_auxIJS2_EEEvDpOT_
00291290 g    DF .text	00000d04 _ZN5Touch15StartMenuScreen4initEv
003c62f0 g    DF .text	0000007c _ZN19ImageWithBackgroundC1Ei
003c636c g    DF .text	0000009c _ZN19ImageWithBackground4initEP12TextureGroupii12IntRectangleS2_iiRKSs
0050efa0 g    DF .text	00000050 _ZN11ImageButton11setImageDefE8ImageDefb
0052a9ec g    DF .text	00000174 _ZN6Common20getGameVersionStringEv
005dc558  w   DO .data.rel.ro	0000001c _ZTVSt19_Sp_counted_deleterIP19ImageWithBackgroundNSt12__shared_ptrIS0_LN9__gnu_cxx12_Lock_policyE2EE8_DeleterISaIS0_EEES7_LS4_2EE
00291f94  w   DF .text	00000096 _ZNSt5dequeISt8functionIFvvEESaIS2_EE19_M_destroy_data_auxESt15_Deque_iteratorIS2_RS2_PS2_ES8_
0029202c  w   DF .text	00000060 _ZNSt5dequeISt8functionIFvvEESaIS2_EED2Ev
0029202c  w   DF .text	00000060 _ZNSt5dequeISt8functionIFvvEESaIS2_EED1Ev
0029208c g    DF .text	00000138 _ZN6Social11UserManagerD2Ev
00000000      DF *UND*	00000000 _ZNSbIwSt11char_traitsIwESaIwEE4_Rep10_M_destroyERKS1_
00000000      DO *UND*	00000000 _ZNSbIwSt11char_traitsIwESaIwEE4_Rep20_S_empty_rep_storageE
0029208c g    DF .text	00000138 _ZN6Social11UserManagerD1Ev
002921c4  w   DF .text	0000012c _ZN15ThreadSafeQueueISt8functionIFvvEEEC2Ev
002921c4  w   DF .text	0000012c _ZN15ThreadSafeQueueISt8functionIFvvEEEC1Ev
002922f0 g    DF .text	0000003c _ZN6Social11UserManagerC2Ev
002922f0 g    DF .text	0000003c _ZN6Social11UserManagerC1Ev
0029232c  w   DF .text	00000180 _ZNSt8_Rb_treeI10EntityTypeS0_St9_IdentityIS0_ESt4lessIS0_ESaIS0_EE17_M_insert_unique_IRKS0_EESt17_Rb_tree_iteratorIS0_ESt23_Rb_tree_const_iteratorIS0_EOT_
00000000      DF *UND*	00000000 _ZSt18_Rb_tree_incrementPSt18_Rb_tree_node_base
002924ac g    DF .text	000000d0 _ZN6Entity21isSpawnableInCreativeE10EntityType
0029257c  w   DF .text	000000ee _ZNSt6vectorISt4pairI22TextureUVCoordinateSet6Rect2DESaIS3_EE19_M_emplace_back_auxIIS3_EEEvDpOT_
0029257c  w   DF .text	000000ee _ZNSt6vectorISt4pairI22TextureUVCoordinateSet6Rect2DESaIS3_EE19_M_emplace_back_auxIJS3_EEEvDpOT_
0029266c g    DF .text	00000242 _ZN7Sapling17getTessellatedUVsEv
002928b0  w   DF .text	0000019c _ZNSt5dequeIN4Json6Reader9ErrorInfoESaIS2_EE19_M_destroy_data_auxESt15_Deque_iteratorIS2_RS2_PS2_ES8_
00292a4c  w   DF .text	00000110 _ZN4Json6ReaderD2Ev
00292a4c  w   DF .text	00000110 _ZN4Json6ReaderD1Ev
00292b5c g    DF .text	00000720 _ZN3mce29ConstantBufferMetaDataManager12loadJsonFileERKSs
0043eccc g    DF .text	00000144 _ZN4Json6ReaderC1Ev
0047ae28 g    DF .text	00000026 _ZN4Json6Reader5parseERKSsRNS_5ValueEb
004a67e8 g    DF .text	0000002e _ZNK4Json5Value4sizeEv
004a75dc g    DF .text	00000030 _ZN4Json5Value5beginEv
004a760c g    DF .text	00000030 _ZN4Json5Value3endEv
004a5cb8 g    DF .text	00000014 _ZNK4Json17ValueIteratorBase7isEqualERKS0_
004a5c68 g    DF .text	00000006 _ZNK4Json17ValueIteratorBase5derefEv
004a5eec g    DF .text	00000018 _ZNK4Json17ValueIteratorBase10memberNameEv
004a757c g    DF .text	00000030 _ZNK4Json5Value5beginEv
004a75ac g    DF .text	00000030 _ZNK4Json5Value3endEv
002b881c g    DF .text	00000016 _ZNK3mce15UniformMetaData14getUniformSizeEv
0051035c g    DF .text	00000020 _ZN3mce25ShaderPrimitiveTypeHelper34sizeInBytesFromShaderPrimitiveTypeENS_20ShaderPrimitiveTypesE
004a5c70 g    DF .text	0000000e _ZN4Json17ValueIteratorBase9incrementEv
004cade0 g    DF .text	0000002c _ZNK4Json5Value3getEPKcRKS0_
004a63cc g    DF .text	00000064 _ZNK4Json5Value8asStringERKSs
004a6474 g    DF .text	00000044 _ZNK4Json5Value6asUIntEj
006acee8 g    DO .bss	00000010 _ZN4Json5Value4nullE
0029327c  w   DF .text	000002ec _ZNSt8_Rb_treeISsSt4pairIKSs15BlockEntityTypeESt10_Select1stIS3_ESt4lessISsESaIS3_EE8_M_eraseEPSt13_Rb_tree_nodeIS3_E
00293568  w   DF .text	00000068 _ZNSt3mapISs15BlockEntityTypeSt4lessISsESaISt4pairIKSsS0_EEED2Ev
00293568  w   DF .text	00000068 _ZNSt3mapISs15BlockEntityTypeSt4lessISsESaISt4pairIKSsS0_EEED1Ev
002935d0  w   DF .text	000002ec _ZNSt8_Rb_treeI15BlockEntityTypeSt4pairIKS0_SsESt10_Select1stIS3_ESt4lessIS0_ESaIS3_EE8_M_eraseEPSt13_Rb_tree_nodeIS3_E
002938bc  w   DF .text	00000068 _ZNSt3mapI15BlockEntityTypeSsSt4lessIS0_ESaISt4pairIKS0_SsEEED2Ev
002938bc  w   DF .text	00000068 _ZNSt3mapI15BlockEntityTypeSsSt4lessIS0_ESaISt4pairIKS0_SsEEED1Ev
00293924  w   DF .text	0000009a _ZNSt8_Rb_treeIN3mce4UUIDES1_St9_IdentityIS1_EN9Whitelist11UuidCompareESaIS1_EE11equal_rangeERKS1_
002939c0 g    DF .text	00000068 _ZN9Whitelist6removeERKN3mce4UUIDE
00293a28  w   DF .text	0000015e _ZNSt6vectorISt10shared_ptrI10GuiElementESaIS2_EE19_M_emplace_back_auxIIS2_EEEvDpOT_
00293a28  w   DF .text	0000015e _ZNSt6vectorISt10shared_ptrI10GuiElementESaIS2_EE19_M_emplace_back_auxIJS2_EEEvDpOT_
00293b88  w   DF .text	00000084 _ZNSt8functionIFvRP10LevelChunkEEaSEOS4_
00293c0c  w   DF .text	00000128 _ZN8GridAreaIP10LevelChunkE5_moveEOS2_
00293d34  w   DF .text	00000096 _ZNSt10_HashtableI8ChunkPosS0_SaIS0_ENSt8__detail9_IdentityESt8equal_toIS0_ESt4hashIS0_ENS2_18_Mod_range_hashingENS2_20_Default_ranged_hashENS2_20_Prime_rehash_policyENS2_17_Hashtable_traitsILb1ELb1ELb1EEEE5eraseENS2_20_Node_const_iteratorIS0_Lb1ELb1EEE
00293dcc  w   DF .text	0000017c _ZNSt6vectorISt10shared_ptrI9UIControlESaIS2_EE19_M_emplace_back_auxIIRS2_EEEvDpOT_
00293dcc  w   DF .text	0000017c _ZNSt6vectorISt10shared_ptrI9UIControlESaIS2_EE19_M_emplace_back_auxIJRS2_EEEvDpOT_
00293f48  w   DF .text	000001fc _ZN9UIControl27removeChildrenWithComponentI17GridItemComponentEEvv
00294144 g    DF .text	0000038c _ZN13GridComponent16refreshGridItemsER16UIControlFactory
00320060 g    DF .text	00000024 _ZN11UIComponent8getOwnerEv
0046ceb8 g    DF .text	000001e0 _ZN16UIControlFactory17createControlTreeERKSs
003ea924 g    DF .text	00000168 _ZN9UIControl8addChildERSt10shared_ptrIS_E
002cef24 g    DF .text	00000004 _ZNK15LayoutComponent7getSizeEv
00645650  w   DO .bss	00000004 _ZGVZ7type_idI15LayoutComponentE8typeid_tvE2id
00645638  w   DO .bss	00000002 _ZZ7type_idI15LayoutComponentE8typeid_tvE2id
002944d0 g    DF .text	000005b8 _ZN20DataBindingComponent4bindER16ScreenControllerR16UIControlFactoryR10VisualTree
0049a584 g    DF .text	00000020 _ZN18AnimationComponent4bindERKSsRK11PropertyBag
004a6c08 g    DF .text	00000010 _ZNK4Json5Value7isArrayEv
004a68ac g    DF .text	00000004 _ZNK4Json5ValueixEi
003dd24c g    DF .text	00000008 _ZN10VisualTree12addDirtyFlagEN2UI9DirtyFlagE
004a6bfc g    DF .text	0000000a _ZNK4Json5Value8isStringEv
00645664  w   DO .bss	00000004 _ZGVZ7type_idI18AnimationComponentE8typeid_tvE2id
0064564c  w   DO .bss	00000002 _ZZ7type_idI18AnimationComponentE8typeid_tvE2id
00645660  w   DO .bss	00000004 _ZGVZ7type_idI13GridComponentE8typeid_tvE2id
00645648  w   DO .bss	00000002 _ZZ7type_idI13GridComponentE8typeid_tvE2id
00294a88  w   DF .text	000000fa _ZNSt10_HashtableIPK6MotiveSt4pairIKS2_N3mce4MeshEESaIS7_ENSt8__detail10_Select1stESt8equal_toIS2_ESt4hashIS2_ENS9_18_Mod_range_hashingENS9_20_Default_ranged_hashENS9_20_Prime_rehash_policyENS9_17_Hashtable_traitsILb0ELb0ELb1EEEE21_M_insert_unique_nodeEjjPNS9_10_Hash_nodeIS7_Lb0EEE
00294b84 g    DF .text	000000e0 _ZN16PaintingRenderer8_getMeshEPK6Motive
00294c64 g    DF .text	000000b4 _ZN16PaintingRenderer6renderER6EntityRK4Vec3ff
0049e4c4 g    DF .text	00000006 _ZN8Painting16getCurrentMotiveEv
003dda6c g    DF .text	00000040 _ZN19EntityShaderManager22_setupShaderParametersER6EntityRK5Colorfb
003dd7dc g    DF .text	00000004 _ZN19EntityShaderManager17getEntityMaterialEv
00294d18  w   DF .text	00000070 _ZNSt6vectorIPK6MotiveSaIS2_EE19_M_emplace_back_auxIIS2_EEEvDpOT_
00294d18  w   DF .text	00000070 _ZNSt6vectorIPK6MotiveSaIS2_EE19_M_emplace_back_auxIJS2_EEEvDpOT_
00294d88 g    DF .text	000004d0 _ZN6Motive19getAllMotivesAsListEv
00645078 g    DO .bss	00000018 _ZN6Motive6mAztecE
00645048 g    DO .bss	00000018 _ZN6Motive7mAztec2E
00645060 g    DO .bss	00000018 _ZN6Motive6mAlbanE
00645030 g    DO .bss	00000018 _ZN6Motive5mBombE
00645018 g    DO .bss	00000018 _ZN6Motive6mPlantE
00645000 g    DO .bss	00000018 _ZN6Motive10mWastelandE
00644fe8 g    DO .bss	00000018 _ZN6Motive5mPoolE
00644fd0 g    DO .bss	00000018 _ZN6Motive8mCourbetE
00644fb8 g    DO .bss	00000018 _ZN6Motive4mSeaE
00644fa0 g    DO .bss	00000018 _ZN6Motive7mSunsetE
00644f88 g    DO .bss	00000018 _ZN6Motive8mCreebetE
00644f70 g    DO .bss	00000018 _ZN6Motive9mWandererE
00644f58 g    DO .bss	00000018 _ZN6Motive7mGrahamE
00644f40 g    DO .bss	00000018 _ZN6Motive6mMatchE
00644f28 g    DO .bss	00000018 _ZN6Motive5mBustE
00644f10 g    DO .bss	00000018 _ZN6Motive6mStageE
00644ef8 g    DO .bss	00000018 _ZN6Motive5mVoidE
00644ee0 g    DO .bss	00000018 _ZN6Motive14mSkullAndRosesE
00644eb0 g    DO .bss	00000018 _ZN6Motive9mFightersE
00644e98 g    DO .bss	00000018 _ZN6Motive8mPointerE
00644e80 g    DO .bss	00000018 _ZN6Motive9mPigsceneE
00644e68 g    DO .bss	00000018 _ZN6Motive13mBurningSkullE
00644e50 g    DO .bss	00000018 _ZN6Motive9mSkeletonE
00644e38 g    DO .bss	00000018 _ZN6Motive11mDonkeyKongE
00644e20 g    DO .bss	00000018 _ZN6Motive6mEarthE
00644e08 g    DO .bss	00000018 _ZN6Motive5mWindE
00644df0 g    DO .bss	00000018 _ZN6Motive5mFireE
00644dd8 g    DO .bss	00000018 _ZN6Motive6mWaterE
00295258 g    DF .text	00000070 _ZN6Motive15getMotiveByNameERKSs
002952c8  w   DF .text	00000052 _ZN12LocklessPipeISt8functionIFvvEELj512EED2Ev
002952c8  w   DF .text	00000052 _ZN12LocklessPipeISt8functionIFvvEELj512EED1Ev
0029531c g    DF .text	000002f6 _ZN16BackgroundWorker10_resetDataEv
0049da3c g    DF .text	00000016 _ZN9SemaphoreC1Eb
00000000      DF *UND*	00000000 _ZNSt18condition_variableD1Ev
00295614 g    DF .text	000000f0 _ZN16BackgroundWorker6_startEv
003ba60c g    DF .text	00000004 _Z15SET_THREAD_NAMERKSs
0038459c g    DF .text	00000010 _ZN10WorkerPool11getInstanceEv
0039c8b0 g    DF .text	000000ce _ZN10WorkerPool8setLocalER16BackgroundWorker
00000000      DF *UND*	00000000 _ZNSt6thread15_M_start_threadESt10shared_ptrINS_10_Impl_baseEE
00000000      DF *UND*	00000000 _ZSt9terminatev
00295704 g    DF .text	00000174 _ZN16BackgroundWorkerC2ERKSsb
00295704 g    DF .text	00000174 _ZN16BackgroundWorkerC1ERKSsb
00295878  w   DF .text	000000fa _ZNSt5dequeIN16BackgroundWorker3JobESaIS1_EE16_M_push_back_auxIIS1_EEEvDpOT_
00295878  w   DF .text	000000fa _ZNSt5dequeIN16BackgroundWorker3JobESaIS1_EE16_M_push_back_auxIJS1_EEEvDpOT_
00295974 g    DF .text	0000004c _ZN16BackgroundWorker5queueERNS_3JobE
002959c0  w   DF .text	000000fe _ZNSt5dequeIN16BackgroundWorker3JobESaIS1_EE16_M_push_back_auxIIRKSt8functionIFbvEERKS5_IFvvEERiEEEvDpOT_
002959c0  w   DF .text	000000fe _ZNSt5dequeIN16BackgroundWorker3JobESaIS1_EE16_M_push_back_auxIJRKSt8functionIFbvEERKS5_IFvvEERiEEEvDpOT_
00295ac0 g    DF .text	00000058 _ZN16BackgroundWorker5queueERKSt8functionIFbvEERKS0_IFvvEEi
00295b18 g    DF .text	000000a8 _ZN18MakeInfiniteScreen4initEv
00384188 g    DF .text	00000004 _ZN10WorkerPool6getForE10WorkerRole
00295bc0 g    DF .text	000000a4 _ZN16BackgroundWorker5pauseEv
00000000      DF *UND*	00000000 nanosleep
00644dc4 g    DO .bss	00000010 _ZN16BackgroundWorker3NOPE
00295c64 g    DF .text	0000002a _ZN16BackgroundWorker5flushEv
00295c90 g    DF .text	000000c0 _ZN16BackgroundWorker4stopEv
00000000      DF *UND*	00000000 _ZNSt6thread4joinEv
00295d50 g    DF .text	00000128 _ZN16BackgroundWorkerD2Ev
00295d50 g    DF .text	00000128 _ZN16BackgroundWorkerD1Ev
00295e78 g    DF .text	000000b0 _ZN16BackgroundWorker4syncEv
0049da9c g    DF .text	00000074 _ZN9Semaphore4waitEv
00295f28  w   DF .text	000000f4 _ZNSt6vectorIN16BackgroundWorker3JobESaIS1_EE19_M_emplace_back_auxIIS1_EEEvDpOT_
00295f28  w   DF .text	000000f4 _ZNSt6vectorIN16BackgroundWorker3JobESaIS1_EE19_M_emplace_back_auxIJS1_EEEvDpOT_
0029601c  w   DF .text	00000108 _ZNSt6vectorISsSaISsEE19_M_emplace_back_auxIISsEEEvDpOT_
0029601c  w   DF .text	00000108 _ZNSt6vectorISsSaISsEE19_M_emplace_back_auxIJSsEEEvDpOT_
00296124 g    DF .text	000000d0 _ZNK12ItemEnchants15getEnchantNamesEv
002dd664 g    DF .text	00000220 _ZN12EnchantUtils22getEnchantNameAndLevelEii
002961f4  w   DF .text	00000098 _ZNSt6vectorI19EnchantmentInstanceSaIS0_EE19_M_emplace_back_auxIIS0_EEEvDpOT_
002961f4  w   DF .text	00000098 _ZNSt6vectorI19EnchantmentInstanceSaIS0_EE19_M_emplace_back_auxIJS0_EEEvDpOT_
0029628c g    DF .text	00000138 _ZN12ItemEnchants9_fromListERK7ListTag
00320900 g    DF .text	00000028 _ZNK7ListTag11getCompoundEj
003d842c g    DF .text	00000006 _ZN19EnchantmentInstanceC1Eii
002963c4 g    DF .text	00000024 _ZN12ItemEnchantsC2EiRK7ListTag
002963c4 g    DF .text	00000024 _ZN12ItemEnchantsC1EiRK7ListTag
002963e8  w   DF .text	000000fc _ZNSt10_HashtableI8BatchKeySt4pairIKS0_St10unique_ptrIN24MinecraftUIRenderContext18PersistentMeshItemESt14default_deleteIS5_EEESaIS9_ENSt8__detail10_Select1stESt8equal_toIS0_E11BatchHasherNSB_18_Mod_range_hashingENSB_20_Default_ranged_hashENSB_20_Prime_rehash_policyENSB_17_Hashtable_traitsILb1ELb0ELb1EEEE21_M_insert_unique_nodeEjjPNSB_10_Hash_nodeIS9_Lb1EEE
002964e4  w   DF .text	00000200 _ZNSt10_HashtableI8BatchKeySt4pairIKS0_St10unique_ptrIN24MinecraftUIRenderContext18PersistentMeshItemESt14default_deleteIS5_EEESaIS9_ENSt8__detail10_Select1stESt8equal_toIS0_E11BatchHasherNSB_18_Mod_range_hashingENSB_20_Default_ranged_hashENSB_20_Prime_rehash_policyENSB_17_Hashtable_traitsILb1ELb0ELb1EEEE10_M_emplaceIIRS2_S8_EEES1_INSB_14_Node_iteratorIS9_Lb0ELb1EEEbESt17integral_constantIbLb1EEDpOT_
002964e4  w   DF .text	00000200 _ZNSt10_HashtableI8BatchKeySt4pairIKS0_St10unique_ptrIN24MinecraftUIRenderContext18PersistentMeshItemESt14default_deleteIS5_EEESaIS9_ENSt8__detail10_Select1stESt8equal_toIS0_E11BatchHasherNSB_18_Mod_range_hashingENSB_20_Default_ranged_hashENSB_20_Prime_rehash_policyENSB_17_Hashtable_traitsILb1ELb0ELb1EEEE10_M_emplaceIJRS2_S8_EEES1_INSB_14_Node_iteratorIS9_Lb0ELb1EEEbESt17integral_constantIbLb1EEDpOT_
002966e4 g    DF .text	000001dc _ZN24MinecraftUIRenderContext16prepareMeshBatchER20ComponentRenderBatch
0031dea4 g    DF .text	00000008 _ZN20ComponentRenderBatch9markDirtyEv
002968c0  w   DF .text	000000fc _ZNSt10_HashtableI14EntityUniqueIDS0_SaIS0_ENSt8__detail9_IdentityESt8equal_toIS0_ESt4hashIS0_ENS2_18_Mod_range_hashingENS2_20_Default_ranged_hashENS2_20_Prime_rehash_policyENS2_17_Hashtable_traitsILb1ELb1ELb1EEEE21_M_insert_unique_nodeEjjPNS2_10_Hash_nodeIS0_Lb1EEE
002969bc  w   DF .text	000000ae _ZNSt10_HashtableI14EntityUniqueIDS0_SaIS0_ENSt8__detail9_IdentityESt8equal_toIS0_ESt4hashIS0_ENS2_18_Mod_range_hashingENS2_20_Default_ranged_hashENS2_20_Prime_rehash_policyENS2_17_Hashtable_traitsILb1ELb1ELb1EEEE9_M_insertIRKS0_EESt4pairINS2_14_Node_iteratorIS0_Lb1ELb1EEEbEOT_St17integral_constantIbLb1EE
00296a6c  w   DF .text	000000c6 _ZN7Sensing6canSeeERK6Entity
00296b34 g    DF .text	000000b8 _ZN9SwellGoal4tickEv
0031a198 g    DF .text	0000003c _ZN7Creeper12_setSwellDirEi
0031a13c g    DF .text	00000012 _ZN7Creeper10_isIgnitedEv
00296bec  w   DF .text	000000fc _ZNSt10_HashtableISsSt4pairIKSsN6Social9Telemetry8PropertyEESaIS5_ENSt8__detail10_Select1stESt8equal_toISsESt4hashISsENS7_18_Mod_range_hashingENS7_20_Default_ranged_hashENS7_20_Prime_rehash_policyENS7_17_Hashtable_traitsILb1ELb0ELb1EEEE21_M_insert_unique_nodeEjjPNS7_10_Hash_nodeIS5_Lb1EEE
00296ce8  w   DF .text	00000168 _ZN6Social9Telemetry14TelemetryEvent11addPropertyERKNS0_8PropertyE
00296e50 g    DF .text	000001f4 _ZN18MinecraftTelemetry27fireEventCraftingSessionEndEP6Player
002bc498 g    DF .text	00000004 _ZN6Social9Telemetry16TelemetryManager19getCommonPropertiesEv
002bc6d0 g    DF .text	000000b2 _ZNK6Social9Telemetry16TelemetryManager17getGlobalPropertyESs
002fd824 g    DF .text	000003ec _ZN6Social9Telemetry16TelemetryManager11recordEventENS0_14TelemetryEventE
00297044  w   DF .text	00000148 _ZNSt10_HashtableISsSt4pairIKSsN6Social9Telemetry8PropertyEESaIS5_ENSt8__detail10_Select1stESt8equal_toISsESt4hashISsENS7_18_Mod_range_hashingENS7_20_Default_ranged_hashENS7_20_Prime_rehash_policyENS7_17_Hashtable_traitsILb1ELb0ELb1EEEE10_M_emplaceIIRSsRS4_EEES0_INS7_14_Node_iteratorIS5_Lb0ELb1EEEbESt17integral_constantIbLb1EEDpOT_
00297044  w   DF .text	00000148 _ZNSt10_HashtableISsSt4pairIKSsN6Social9Telemetry8PropertyEESaIS5_ENSt8__detail10_Select1stESt8equal_toISsESt4hashISsENS7_18_Mod_range_hashingENS7_20_Default_ranged_hashENS7_20_Prime_rehash_policyENS7_17_Hashtable_traitsILb1ELb0ELb1EEEE10_M_emplaceIJRSsRS4_EEES0_INS7_14_Node_iteratorIS5_Lb0ELb1EEEbESt17integral_constantIbLb1EEDpOT_
0029718c g    DF .text	00000660 _ZN18MinecraftTelemetry28fireEventMultiplayerRoundEndEP6Playeri
002bc784 g    DF .text	00000180 _ZN6Social9Telemetry16TelemetryManager20removeGlobalPropertyESs
002bc550 g    DF .text	00000180 _ZN6Social9Telemetry16TelemetryManager20removeCommonPropertyESs
002977ec  w   DF .text	000000e8 _ZN6Social9Telemetry16TelemetryManager17setGlobalPropertyIfEENS0_8PropertyESsRKT_
002978d4 g    DF .text	0000026c _ZN18MinecraftTelemetry17fireEventEndOfDayEP6PlayerR5Level
004277e8 g    DF .text	0000000c _ZN5Level16isDayCycleActiveEv
00425c10 g    DF .text	00000046 _ZNK5Level12getDimensionE11DimensionId
003c4fc8 g    DF .text	00000032 _ZNK9Dimension12getTimeOfDayEf
00297b40 g    DF .text	000002d4 _ZN18MinecraftTelemetry19fireEventPortalUsedEP6Player11DimensionIdS2_
00297e14 g    DF .text	00000158 _ZN18MinecraftTelemetry32fireEventSetValidForAcheivementsEP6Playerb
004a6110 g    DF .text	0000000c _ZN4Json5ValueC1Eb
00297f6c  w   DF .text	00000114 _ZN6Social9Telemetry16TelemetryManager17setGlobalPropertyISsEENS0_8PropertyESsRKT_
004a6054 g    DF .text	00000040 _ZN4Json5ValueC1ERKSs
00298080 g    DF .text	000001b0 _ZN18MinecraftTelemetry20fireEventPortalBuiltEP6Player11DimensionId
00298230 g    DF .text	00000378 _ZN18MinecraftTelemetry29fireEventCraftingSessionStartEP6Playerj
002985a8 g    DF .text	000009e8 _ZN18MinecraftTelemetry30fireEventMultiplayerRoundStartEP6PlayerR5LevelN3mce4UUIDEiSsi
003e083c g    DF .text	00000518 _ZNK3mce4UUID8toStringEv
004a5f78 g    DF .text	00000014 _ZN4Json5ValueC1Ej
00000000      DF *UND*	00000000 _ZNSs4_Rep9_S_createEjjRKSaIcE
00298f90 g    DF .text	000001b0 _ZN18MinecraftTelemetry25fireEventAwardAchievementEP6PlayerNS_14AchievementIdsE
00299140 g    DF .text	000001bc _ZN18MinecraftTelemetry24fireEventSpecialMobBuiltEP6PlayerR3Mob
002992fc g    DF .text	000001f0 _ZN18MinecraftTelemetry20fireEventJukeboxUsedEP6PlayerRK12ItemInstance
002994ec g    DF .text	000002a4 _ZN18MinecraftTelemetry22fireEventMobInteractedEP6PlayerR3MobNS_15InteractionTypeE
00299790 g    DF .text	000002a4 _ZN18MinecraftTelemetry20fireEventItemDroppedEP6PlayerRK12ItemInstance
00299a34 g    DF .text	000002a4 _ZN18MinecraftTelemetry22fireEventItemEnchantedEP6PlayerRK12ItemInstancey
00299cd8 g    DF .text	00000394 _ZN18MinecraftTelemetry23fireEventWorldGeneratedEP6PlayerRK9LevelData
0052776c g    DF .text	00000004 _ZNK9LevelData7getSeedEv
0029a06c g    DF .text	00000370 _ZN18MinecraftTelemetry22fireEventVehicleExitedEP6Playerjy
0029a3dc g    DF .text	00000474 _ZN18MinecraftTelemetry22fireEventWorldUnloadedEP6PlayerRK9LevelDataj
0029a850 g    DF .text	00000438 _ZN18MinecraftTelemetry20fireEventWorldLoadedEP6PlayerR9LevelData
00527d34 g    DF .text	00000006 _ZN9LevelData26getHasBeenLoadedInCreativeEv
0029ac88 g    DF .text	0000046c _ZN18MinecraftTelemetry20fireEventItemSmeltedEP6PlayerRK12ItemInstanceS4_
0029b0f4 g    DF .text	00000380 _ZN18MinecraftTelemetry22fireEventItemDestroyedEP6PlayerRK12ItemInstancej
0029b474 g    DF .text	00000498 _ZN18MinecraftTelemetry18fireEventMobKilledEP6PlayerP6EntityR3Mobj
0029b90c g    DF .text	00000714 _ZN18MinecraftTelemetry42fireEventMultiplayerConnectionStateChangedEbRKSsS1_jjjS1_
0029c020  w   DF .text	000000f8 _ZNSt12__shared_ptrIN5Touch7TButtonELN9__gnu_cxx12_Lock_policyE2EEC2ISaIS1_EIiRA17_KcEEESt19_Sp_make_shared_tagRKT_DpOT0_
0029c020  w   DF .text	000000f8 _ZNSt12__shared_ptrIN5Touch7TButtonELN9__gnu_cxx12_Lock_policyE2EEC2ISaIS1_EJiRA17_KcEEESt19_Sp_make_shared_tagRKT_DpOT0_
0029c020  w   DF .text	000000f8 _ZNSt12__shared_ptrIN5Touch7TButtonELN9__gnu_cxx12_Lock_policyE2EEC1ISaIS1_EIiRA17_KcEEESt19_Sp_make_shared_tagRKT_DpOT0_
0029c020  w   DF .text	000000f8 _ZNSt12__shared_ptrIN5Touch7TButtonELN9__gnu_cxx12_Lock_policyE2EEC1ISaIS1_EJiRA17_KcEEESt19_Sp_make_shared_tagRKT_DpOT0_
0029c118 g    DF .text	000004bc _ZN11DeathScreen4initEv
0029c5d4  w   DF .text	000000f4 _ZNSt12__shared_ptrI5LabelLN9__gnu_cxx12_Lock_policyE2EEC2ISaIS0_EIR15MinecraftClientRA19_KcRK5ColorEEESt19_Sp_make_shared_tagRKT_DpOT0_
0029c5d4  w   DF .text	000000f4 _ZNSt12__shared_ptrI5LabelLN9__gnu_cxx12_Lock_policyE2EEC2ISaIS0_EJR15MinecraftClientRA19_KcRK5ColorEEESt19_Sp_make_shared_tagRKT_DpOT0_
0029c5d4  w   DF .text	000000f4 _ZNSt12__shared_ptrI5LabelLN9__gnu_cxx12_Lock_policyE2EEC1ISaIS0_EIR15MinecraftClientRA19_KcRK5ColorEEESt19_Sp_make_shared_tagRKT_DpOT0_
0029c5d4  w   DF .text	000000f4 _ZNSt12__shared_ptrI5LabelLN9__gnu_cxx12_Lock_policyE2EEC1ISaIS0_EJR15MinecraftClientRA19_KcRK5ColorEEESt19_Sp_make_shared_tagRKT_DpOT0_
0029c6c8 g    DF .text	00000724 _ZN17TrialUpsellScreen4initEv
0036d77c g    DF .text	00000070 _ZN16NinePatchFactory23createUniqueSymmetricalERK12IntRectangleiiff
004639bc g    DF .text	0000003e _ZN5Level11addListenerER13LevelListener
0029cdec  w   DF .text	000000fc _ZNSt10_HashtableI8ChunkPosS0_SaIS0_ENSt8__detail9_IdentityESt8equal_toIS0_ESt4hashIS0_ENS2_18_Mod_range_hashingENS2_20_Default_ranged_hashENS2_20_Prime_rehash_policyENS2_17_Hashtable_traitsILb1ELb1ELb1EEEE21_M_insert_unique_nodeEjjPNS2_10_Hash_nodeIS0_Lb1EEE
0029cee8  w   DF .text	00000136 _ZNSt10_HashtableI8ChunkPosS0_SaIS0_ENSt8__detail9_IdentityESt8equal_toIS0_ESt4hashIS0_ENS2_18_Mod_range_hashingENS2_20_Default_ranged_hashENS2_20_Prime_rehash_policyENS2_17_Hashtable_traitsILb1ELb1ELb1EEEEC2IPKS0_EET_SH_jRKS7_RKS8_RKS9_RKS5_RKS3_RKS1_
0029cee8  w   DF .text	00000136 _ZNSt10_HashtableI8ChunkPosS0_SaIS0_ENSt8__detail9_IdentityESt8equal_toIS0_ESt4hashIS0_ENS2_18_Mod_range_hashingENS2_20_Default_ranged_hashENS2_20_Prime_rehash_policyENS2_17_Hashtable_traitsILb1ELb1ELb1EEEEC1IPKS0_EET_SH_jRKS7_RKS8_RKS9_RKS5_RKS3_RKS1_
00000000      DF *UND*	00000000 _ZNSt8ios_base4InitC1Ev
0054812c g    DF .text	00000020 _ZN6RakNet13SystemAddressC1Ev
0049a5a4 g    DF .text	00000038 _ZN11FrustumDataC2Ev
00000000      DF *UND*	00000000 _ZNSs4_Rep10_M_disposeERKSaIcE
00000000      DF *UND*	00000000 _ZNSt8ios_base4InitD1Ev
00645154 g    DO .bss	00000004 _ZN3Tag10NullStringE
00000000      DF *UND*	00000000 _ZNSsD1Ev
00645144 g    DO .bss	00000010 _ZN12MusicManager4MENUE
00645134 g    DO .bss	00000010 _ZN12MusicManager4GAMEE
00645124 g    DO .bss	00000010 _ZN12MusicManager8CREATIVEE
00645114 g    DO .bss	00000010 _ZN12MusicManager6NETHERE
002a19e8  w   DF .text	0000001c _ZNSt10unique_ptrI19EntityBlockRendererSt14default_deleteIS0_EED1Ev
00645100 g    DO .bss	00000004 _ZN19EntityBlockRenderer8instanceE
006450f8 g    DO .bss	00000004 _ZN6Entity10RIDING_TAGE
006450f4 g    DO .bss	00000004 _ZN3mce9SingletonINS_29ConstantBufferMetaDataManagerESt10unique_ptrIS1_St14default_deleteIS1_EEE8instanceE
00644ec8 g    DO .bss	00000018 _ZN6Motive7mWitherE
0029d020  w   DF .text	00000134 _ZSt13__adjust_heapIN9__gnu_cxx17__normal_iteratorIPN16BackgroundWorker3JobESt6vectorIS3_SaIS3_EEEEiS3_St4lessIS3_EEvT_T0_SC_T1_T2_
0029d154 g    DF .text	00000140 _ZN16BackgroundWorker13_tryStealWorkERNS_3JobE
0029d294 g    DF .text	00000244 _ZN16BackgroundWorker7_tryPopEv
0029d4d8 g    DF .text	00000056 _ZN16BackgroundWorker21_processNextCoroutineEv
0029d5c4 g    DF .text	0000001e _ZN16BackgroundWorker11processNextEv
0029d5e4  w   DF .text	000000fc _ZNSt10_HashtableISsSt4pairIKSsN6Social9Telemetry11MeasurementEESaIS5_ENSt8__detail10_Select1stESt8equal_toISsESt4hashISsENS7_18_Mod_range_hashingENS7_20_Default_ranged_hashENS7_20_Prime_rehash_policyENS7_17_Hashtable_traitsILb1ELb0ELb1EEEE21_M_insert_unique_nodeEjjPNS7_10_Hash_nodeIS5_Lb1EEE
0029d6e0  w   DF .text	00000140 _ZNSt10_HashtableISsSt4pairIKSsN6Social9Telemetry11MeasurementEESaIS5_ENSt8__detail10_Select1stESt8equal_toISsESt4hashISsENS7_18_Mod_range_hashingENS7_20_Default_ranged_hashENS7_20_Prime_rehash_policyENS7_17_Hashtable_traitsILb1ELb0ELb1EEEE10_M_emplaceIIRSsRS4_EEES0_INS7_14_Node_iteratorIS5_Lb0ELb1EEEbESt17integral_constantIbLb1EEDpOT_
0029d6e0  w   DF .text	00000140 _ZNSt10_HashtableISsSt4pairIKSsN6Social9Telemetry11MeasurementEESaIS5_ENSt8__detail10_Select1stESt8equal_toISsESt4hashISsENS7_18_Mod_range_hashingENS7_20_Default_ranged_hashENS7_20_Prime_rehash_policyENS7_17_Hashtable_traitsILb1ELb0ELb1EEEE10_M_emplaceIJRSsRS4_EEES0_INS7_14_Node_iteratorIS5_Lb0ELb1EEEbESt17integral_constantIbLb1EEDpOT_
0029d820 g    DF .text	00000388 _ZN18MinecraftTelemetry21fireEventPotionBrewedEP6PlayerRK12ItemInstancej
0029dba8 g    DF .text	000004cc _ZN18MinecraftTelemetry20fireEventItemCraftedEP6PlayerRK12ItemInstance
0029e074 g    DF .text	0000057c _ZN18MinecraftTelemetry24fireEventPlayerTravelledEP6Playerf
006aa978 g    DO .bss	00000004 _ZN9MobEffect17MOVEMENT_SLOWDOWNE
006aa97c g    DO .bss	00000004 _ZN9MobEffect14MOVEMENT_SPEEDE
0029e5f0 g    DF .text	00000470 _ZN18MinecraftTelemetry21fireEventItemAcquiredEP6PlayerRK12ItemInstancejNS_17AcquisitionMethodE
0029ea60 g    DF .text	0000046c _ZN18MinecraftTelemetry17fireEventItemUsedEP6PlayerRK12ItemInstanceNS_9UseMethodE
0029eecc g    DF .text	00000374 _ZN18MinecraftTelemetry18fireEventMenuShownEP6Playerjj
0029f240 g    DF .text	00000474 _ZN18MinecraftTelemetry20fireEventBlockBrokenEP6PlayerR9FullBlock
0029f6b4 g    DF .text	00000474 _ZN18MinecraftTelemetry20fireEventBlockPlacedEP6PlayerRK9FullBlock
0029fb28  w   DF .text	0000002c _ZN21BlockEntityDataPacketD2Ev
003ebec8 g    DF .text	000000f4 _ZN11CompoundTagD1Ev
005dc0d0  w   DO .data.rel.ro	00000020 _ZTV21BlockEntityDataPacket
0029fb28  w   DF .text	0000002c _ZN21BlockEntityDataPacketD1Ev
0029fb54  w   DF .text	00000030 _ZN21BlockEntityDataPacketD0Ev
0029fb84 g    DF .text	000000b4 _ZN18MakeInfiniteScreen5_doneEv
00384390 g    DF .text	00000014 _ZN10WorkerPool13getWorkersForE10WorkerRole
00527d58 g    DF .text	00000004 _ZN9LevelData17setStorageVersionE14StorageVersion
00527964 g    DF .text	00000004 _ZN9LevelData12setGeneratorE13GeneratorType
004ae920 g    DF .text	0000001c _ZN16EmptyChunkSourceC1EP5LevelP9Dimension
0029ff08 g    DF .text	00000164 _ZN18MakeInfiniteScreen4tickEv
004a8a80 g    DF .text	00000004 _ZNK10LevelChunk8getStateEv
004a777c g    DF .text	00000114 _ZN10LevelChunkD1Ev
004a7758 g    DF .text	00000014 _ZN10LevelChunkdlEPv
002a006c g    DF .text	00000074 _ZN21EnchantingTableEntity15getUpdatePacketER11BlockSource
003bb1b0 g    DF .text	000000b0 _ZN11CompoundTagC1EOS_
002a00e0 g    DF .text	00000078 _ZN16SkullBlockEntity15getUpdatePacketER11BlockSource
002a0158 g    DF .text	00000030 _ZN6Ocelot12doHurtTargetEP6Entity
00424c00 g    DF .text	00000020 _ZN26EntityDamageByEntitySourceC1ER6Entity17EntityDamageCause
0041455c g    DF .text	0000001c _ZN26EntityDamageByEntitySourceD1Ev
002a0188 g    DF .text	000000c0 _ZN19HumanoidMobRenderer6renderER6EntityRK4Vec3ff
00433f00 g    DF .text	00000038 _ZN11MobRenderer6renderER6EntityRK4Vec3ff
002a0248 g    DF .text	00000046 _ZN19HumanoidMobRenderer18prepareCarriedItemER3MobP12ItemInstance
00414df8 g    DF .text	00000002 _ZN11MobRenderer18prepareCarriedItemER3MobP12ItemInstance
0032496c g    DF .text	00000008 _ZNK12ItemInstance15getUseAnimationEv
002a0290 g    DF .text	00000524 _ZN3Mob8baseTickEv
00424ba0 g    DF .text	00000014 _ZN18EntityDamageSourceC1E17EntityDamageCause
00414538 g    DF .text	00000010 _ZN18EntityDamageSourceD1Ev
006aa94c g    DO .bss	00000004 _ZN9MobEffect15WATER_BREATHINGE
002a07b8 g    DF .text	000001ec _ZN3Mob15causeFallDamageEf
002a09a4 g    DF .text	00000044 _ZN3Mob10outOfWorldEv
002a09e8 g    DF .text	0000002c _ZN6Entity10doFireHurtEi
002a0a14 g    DF .text	00000028 _ZN3Mob10doFireHurtEi
002a0a3c g    DF .text	00000038 _ZN6Entity8lavaHurtEv
002a0a74 g    DF .text	0000002e _ZN6Entity4burnEi
002a0aa8 g    DF .text	00000248 _ZNK17ProtectionEnchant10doPostHurtER12ItemInstanceR3MobS3_i
002a0cf0 g    DF .text	0000004c _ZN3Mob4healEi
00439830 g    DF .text	00000020 _ZN26InstantaneousAttributeBuffC1Ef17AttributeBuffType
00530fbc g    DF .text	00000168 _ZN17AttributeInstance7addBuffERK13AttributeBuff
0041f2b0 g    DF .text	0000001c _ZN26InstantaneousAttributeBuffD1Ev
002a0d3c g    DF .text	0000010c _ZN3Mob12actuallyHurtEiPK18EntityDamageSource
002a0e48 g    DF .text	000001fc _ZN23FurnaceScreenController4bindERKSsS1_R11PropertyBag
003241b4 g    DF .text	0000001e _ZNK12ItemInstance17getIdAuxEnchantedEv
00323140 g    DF .text	0000002a _ZNK12ItemInstance11isStackableEv
003754cc g    DF .text	0000006a _ZN3Gui13itemCountItoaEPci
004a5fe0 g    DF .text	00000034 _ZN4Json5ValueC1EPKc
0032401c g    DF .text	0000002c _ZNK12ItemInstance21getFormattedHovertextEv
002dc600 g    DF .text	000002c4 _ZN25MinecraftScreenController4bindERKSsS1_R11PropertyBag
002a1044 g    DF .text	00000254 _ZN23FurnaceScreenController11handleEventE11ScreenEvent
002db828 g    DF .text	000006d0 _ZN25MinecraftScreenController11handleEventE11ScreenEvent
002c6174 g    DF .text	00000034 _ZN25MinecraftScreenController16_resetHeldButtonEv
006aaa20 g    DO .bss	00000008 _ZN15ScreenItemStack11EMPTY_STACKE
002a1298 g    DF .text	00000120 _ZN23FurnaceScreenController27handleGameEventNotificationEN2UI21GameEventNotificationE
002a5004 g    DF .text	0000000c _ZN25MinecraftScreenController27handleGameEventNotificationEN2UI21GameEventNotificationE
0042bd34 g    DF .text	0000004e _ZN20MinecraftScreenModel19dropItemsFromPlayerE15ScreenItemStacki
002a13b8 g    DF .text	00000076 _ZN23FurnaceScreenController4tickEv
002ab5cc g    DF .text	00000030 _ZN25MinecraftScreenController4tickEv
0051de9c g    DF .text	00000012 _ZN11FurnaceMenu14getLitProgressEi
0051de88 g    DF .text	00000012 _ZN11FurnaceMenu15getBurnProgressEi
0050af04 g    DF .text	000000b8 _ZN11FurnaceMenu20getFurnaceHasChangedEv
002a1430 g    DF .text	00000022 _ZN23FurnaceScreenController6onExitEv
002a502c g    DF .text	00000002 _ZN25MinecraftScreenController6onExitEv
0042c3b4 g    DF .text	00000012 _ZN20MinecraftScreenModel14closeContainerEv
002a1454 g    DF .text	00000012 _ZN23FurnaceScreenController17_handleTakeAmountEi12ItemLocationi
002b14e4 g    DF .text	000000c8 _ZN25MinecraftScreenController17_handleTakeAmountEi12ItemLocationi
002a1468 g    DF .text	00000040 _ZN23FurnaceScreenController22_handleTakeAllPlaceAllE12ItemLocationi
002c5bb0 g    DF .text	00000216 _ZN25MinecraftScreenController22_handleTakeAllPlaceAllE12ItemLocationi
002a14a8 g    DF .text	00000040 _ZN23FurnaceScreenController23_handleTakeHalfPlaceOneE12ItemLocationi
002c5dc8 g    DF .text	000001fc _ZN25MinecraftScreenController23_handleTakeHalfPlaceOneE12ItemLocationi
002a14e8 g    DF .text	0000002e _ZN23FurnaceScreenController16_handleAutoPlaceE12ItemLocationi
002c57f0 g    DF .text	0000001e _ZN25MinecraftScreenController16_handleAutoPlaceE12ItemLocationi
002a1518 g    DF .text	0000019c _ZN23FurnaceScreenController15_handleDropItemE12ItemLocationib
002c5810 g    DF .text	00000116 _ZN25MinecraftScreenController15_handleDropItemE12ItemLocationib
002a16b4 g    DF .text	00000038 _ZN23FurnaceScreenController12_handleSplitE12ItemLocationi
002e8c3c g    DF .text	000001c4 _ZN25MinecraftScreenController12_handleSplitE12ItemLocationi
002a16ec g    DF .text	00000018 _ZN23FurnaceScreenController20_handleCoalesceStackEv
002c5fc4 g    DF .text	0000013c _ZN25MinecraftScreenController20_handleCoalesceStackEv
002a1704 g    DF .text	0000008c _ZN23FurnaceScreenController21_handleCoalesceButtonE12ItemLocationi
002aecac g    DF .text	000000e8 _ZN25MinecraftScreenController21_handleCoalesceButtonE12ItemLocationi
002a1790 g    DF .text	00000022 _ZN23FurnaceScreenController15getItemInstanceE12ItemLocationi
0047f9b0 g    DF .text	0000000c _ZN20MinecraftScreenModel21getResultItemInstanceEv
002ab754 g    DF .text	0000001a _ZN25MinecraftScreenController15getItemInstanceE12ItemLocationi
002a17b4 g    DF .text	00000018 _ZNK23FurnaceScreenController40_indexFromCollectionAndInventoryLocationEi12ItemLocation
002b237c g    DF .text	00000240 _ZNK25MinecraftScreenController40_indexFromCollectionAndInventoryLocationEi12ItemLocation
002a17cc g    DF .text	00000028 _ZNK23FurnaceScreenController31_itemLocationFromCollectionNameERKSs
002ab4a0 g    DF .text	0000002c _ZNK25MinecraftScreenController31_itemLocationFromCollectionNameERKSs
002a17f4 g    DF .text	000001c8 _ZN20InGamePlayHoloScreen5_initEii
00306e88 g    DF .text	00000032 _ZN16InGamePlayScreen5_initEii
002ca03c g    DF .text	00000004 _ZNK15MinecraftClient21getCameraTargetPlayerEv
00429018 g    DF .text	00000006 _ZN5Level12getHitResultEv
002a19bc g    DF .text	00000004 _ZN20InGamePlayHoloScreen13onFocusGainedEv
00303618 g    DF .text	00000002 _ZN16InGamePlayScreen13onFocusGainedEv
002a19c0 g    DF .text	00000028 _ZN19EntityBlockRenderer15destroyInstanceEv
0048d074 g    DF .text	0000006c _ZN16ChestBlockEntityD1Ev
002a19e8  w   DF .text	0000001c _ZNSt10unique_ptrI19EntityBlockRendererSt14default_deleteIS0_EED2Ev
002a1a04 g    DF .text	00000050 _ZN19EntityBlockRenderer11getInstanceEv
002a1a54 g    DF .text	00000ab4 _ZN16BlockTessellator22appendTessellatedBlockERK9FullBlock
002b8a70 g    DF .text	0000000e _ZN11Tessellator9setOffsetERK4Vec3
002bb88c g    DF .text	0000007a _ZN4AABB8centerAtERK4Vec3
002b8a34 g    DF .text	00000008 _ZN11Tessellator9setOffsetEfff
00401960 g    DF .text	00000074 _ZN23BlockTextureTessellator26getTessellatedTexturesInfoEi
002d1974 g    DF .text	00000094 _ZN11Tessellator6normalEfff
002a2508 g    DF .text	00000268 _ZN18ItemInHandRenderer11rebuildItemEP3MobR12ItemInstance
003c1ec8 g    DF .text	0000001c _ZN12ItemRenderer11getGraphicsERK12ItemInstance
0032eb04 g    DF .text	0000001c _ZNK3mce10TexturePtr5cloneEv
002b8088 g    DF .text	00000030 _ZN12TextureGroup14getTextureDataERKN3mce10TexturePtrE
004adbb8 g    DF .text	0000001c _ZN5Block13isAlphaTestedEv
002a2770 g    DF .text	000000fe _ZN16BlockTessellator15getMeshForBlockERK9FullBlock
002a2870 g    DF .text	000001c4 _ZN11TntRenderer6renderER6EntityRK4Vec3ff
003c62c4 g    DF .text	00000004 _ZNK9Dimension10hasCeilingEv
003dd7e8 g    DF .text	00000060 _ZN19EntityShaderManager22_setupShaderParametersEfRK5Colorb
006ac0e0 g    DO .bss	00000004 _ZN5Block4mTNTE
002a2a34 g    DF .text	000000d8 _ZN20FallingBlockRenderer6renderER6EntityRK4Vec3ff
00372fe0 g    DF .text	00000018 _ZNK12FallingBlock8getBlockEv
003dfe74 g    DF .text	000000fc _ZN19EntityShaderManager22_setupShaderParametersER11BlockSourceRK8BlockPosfRK4Vec2
0064990c g    DO .bss	00000008 _ZN4Vec23ONEE
002a2b0c g    DF .text	00000570 _ZN18ItemInHandRenderer10renderItemER6EntityR12ItemInstancef
00527e74 g    DF .text	0000000a _ZN11MatrixStack3RefdeEv
003ddbb4 g    DF .text	000000d4 _ZN19EntityShaderManager26_setupFoilShaderParametersER6EntityRK4Vec2fb
00427f88 g    DF .text	0000002a _ZNK5Level14getLocalPlayerEv
00527e28 g    DF .text	0000004a _ZN11MatrixStack3RefaSERK6Matrix
006ad034 g    DO .bss	00000004 _ZN4Item11mFishingRodE
005a83b4 g    DO .rodata	00000004 _ZN16FishHookRenderer11BOBBER_SIZEE
002a3080 g    DF .text	000009f8 _ZN18ItemInHandRenderer6renderEf
00421304 g    DF .text	00000006 _ZNK7Options10getBobViewEv
00331378 g    DF .text	00000030 _ZN22EntityRenderDispatcher11getRendererER6Entity
00379af0 g    DF .text	00000062 _ZN14PlayerRenderer10renderHandER6Playerf
00324964 g    DF .text	00000006 _ZNK12ItemInstance17getMaxUseDurationEv
002a3a78 g    DF .text	000004aa _ZN19HumanoidMobRenderer19additionalRenderingER3Mobfffffff
0051105c g    DF .text	000001e0 _ZN9ModelPart11translateToER6Matrixf
00331740 g    DF .text	00000004 _ZN22EntityRenderDispatcher21getItemInHandRendererEv
006ae408 g    DO .bss	00000004 _ZN14EntityRenderer22entityRenderDispatcherE
002a3f24 g    DF .text	00000a5c _ZN16BlockTessellator14renderGuiBlockERK9FullBlockRKN3mce10TexturePtrEff
002a4980 g    DF .text	0000011c _ZN6Entity17updateInsideBlockEv
00424c44 g    DF .text	00000028 _ZN25EntityDamageByBlockSourceC1E9FullBlock17EntityDamageCause
004145a4 g    DF .text	0000001c _ZN25EntityDamageByBlockSourceD1Ev
006ac058 g    DO .bss	00000004 _ZN5Block7mCactusE
002a4a9c g    DF .text	00000024 _ZNK17ProtectionEnchant10getMaxCostEi
004f8f74 g    DF .text	0000000a _ZNK7Enchant10getMinCostEi
00000000      DF *UND*	00000000 __cxa_pure_virtual
005dbf80  w   DO .data.rel.ro	00000058 _ZTV13LevelListener
003a62e0 g    DF .text	0000000a _ZN19BlockSourceListener20onBlockEntityRemovedER11BlockSourceSt10unique_ptrI11BlockEntitySt14default_deleteIS3_EE
003589c8 g    DF .text	00000026 _ZN15BytesDataOutput11writeStringERKSs
0035f2d4 g    DF .text	00000058 _ZN14BytesDataInput10readStringEv
00303220 g    DF .text	0000000a _ZN11UIComponent7receiveER10VisualTreeR19AnimationController11ScreenEvent
003589c0 g    DF .text	00000002 _ZN14StructureStart21addAdditionalSaveDataER11CompoundTag
003589c4 g    DF .text	00000002 _ZN14StructureStart22readAdditionalSaveDataER11CompoundTag
002beaa8 g    DF .text	0000018c _ZN8GameMode17startDestroyBlockER6Player8BlockPosa
002be594 g    DF .text	00000124 _ZN8GameMode12destroyBlockER6Player8BlockPosa
002be708 g    DF .text	000003a0 _ZN8GameMode20continueDestroyBlockER6Player8BlockPosa
002ab104 g    DF .text	00000070 _ZN8GameMode16stopDestroyBlockER6Player
002a75c4 g    DF .text	00000050 _ZN8GameMode15startBuildBlockER6Player8BlockPosa
002a81f4 g    DF .text	00000068 _ZN8GameMode10buildBlockER6Player8BlockPosa
002ab174 g    DF .text	00000074 _ZN8GameMode18continueBuildBlockER6Player8BlockPosa
002a4ddc g    DF .text	00000002 _ZN8GameMode14stopBuildBlockER6Player
002a4de8 g    DF .text	00000006 _ZN8GameMode4tickEv
002aa02c g    DF .text	00000048 _ZN8GameMode12getPickRangeEP6PlayerRK9InputMode
002abee0 g    DF .text	000000b0 _ZN8GameMode7useItemER6PlayerR12ItemInstance
002abfb4 g    DF .text	000001d0 _ZN8GameMode9useItemOnER6PlayerP12ItemInstanceRK8BlockPosaRK4Vec3
002a81ec g    DF .text	00000008 _ZN8GameMode8interactER6PlayerR6Entity
002a9fec g    DF .text	00000040 _ZN8GameMode6attackER6PlayerR6Entity
002bec94 g    DF .text	00000080 _ZN8GameMode16releaseUsingItemER6Player
002a4de0 g    DF .text	00000002 _ZN8GameMode12setTrialModeEb
002a4de4 g    DF .text	00000004 _ZN8GameMode13isInTrialModeEv
002a4df0 g    DF .text	00000002 _ZN8GameMode28registerUpsellScreenCallbackESt8functionIFvbEE
0047fdfc g    DF .text	0000000c _ZN5Biome8setColorEi
0047fe08 g    DF .text	0000002a _ZN5Biome8setColorEib
00492b24 g    DF .text	00000158 _ZN5Biome14getTreeFeatureEP6Random
0047fe34 g    DF .text	00000006 _ZN5Biome15getGrassFeatureEP6Random
0047feb4 g    DF .text	00000004 _ZN5Biome14getTemperatureEv
0047fe3c g    DF .text	00000004 _ZN5Biome11adjustScaleEf
0047fe40 g    DF .text	00000004 _ZN5Biome11adjustDepthEf
00483eb0 g    DF .text	00000070 _ZN5Biome11getSkyColorEf
00487e80 g    DF .text	00000048 _ZN5Biome7getMobsE10EntityType
0047fe44 g    DF .text	0000000a _ZN5Biome22getCreatureProbabilityEv
00497e40 g    DF .text	00000078 _ZN5Biome15getFoliageColorEv
0047fe50 g    DF .text	00000018 _ZN5Biome26getRandomFlowerTypeAndDataER6RandomRK8BlockPos
00483f20 g    DF .text	0000001e _ZN5Biome8decorateEP11BlockSourceR6RandomRK8BlockPosbf
00498238 g    DF .text	00000004 _ZN5Biome14buildSurfaceAtER6RandomR10LevelChunkRK8BlockPosf
00497eb8 g    DF .text	00000078 _ZN5Biome13getGrassColorERK8BlockPos
0047fe68 g    DF .text	00000030 _ZNK5Biome22getTemperatureCategoryEv
00498654 g    DF .text	00000026 _ZN5Biome6isSameEPS_
0047fe98 g    DF .text	0000001c _ZN5Biome7isHumidEv
0048922c g    DF .text	0000001e _ZN5Biome17createMutatedCopyEi
005df618 g    DO .data.rel.ro	00000024 _ZTV12DripParticle
005df960 g    DO .data.rel.ro	00000014 _ZTV12MelonFeature
00594cd8 g    DO .rodata	00000008 _ZN16BackgroundWorker20FRAME_MISS_TOLERANCEE
005e0704 g    DO .data.rel.ro	00000004 _ZN6Motive13mDefaultImageE
00594ce0 g    DO .rodata	00000004 _ZN17ProtectionEnchant23THORNS_CHANCE_PER_LEVELE
00594ce4 g    DO .rodata	00000004 _ZN7Sapling15TYPE_ROOFED_OAKE
00594ce8 g    DO .rodata	00000004 _ZN7Sapling11TYPE_ACACIAE
00594cec g    DO .rodata	00000004 _ZN7Sapling11TYPE_JUNGLEE
00594cf0 g    DO .rodata	00000004 _ZN7Sapling10TYPE_BIRCHE
00594cf4 g    DO .rodata	00000004 _ZN7Sapling14TYPE_EVERGREENE
00594cf8 g    DO .rodata	00000004 _ZN7Sapling12TYPE_DEFAULTE
00594cfc g    DO .rodata	00000004 _ZN6Entity16TOTAL_AIR_SUPPLYE
006450fc g    DO .bss	00000004 _ZN6Entity14mEntityCounterE
00643044 g    DO .data	00000004 _ZN20InGamePlayHoloScreen8_shTicksE
00594d00 g    DO .rodata	00000004 _ZN16BlockTessellator14TEXTURE_OFFSETE
00645618 g    DO .bss	00000004 _ZN6Social9Telemetry23telemetrySequenceNumberE
00594d04 g    DO .rodata	00000004 _ZN6Ocelot16SPRINT_SPEED_MODE
00594d08 g    DO .rodata	00000004 _ZN6Ocelot16FOLLOW_SPEED_MODE
00594d0c g    DO .rodata	00000004 _ZN6Ocelot14WALK_SPEED_MODE
00594d10 g    DO .rodata	00000004 _ZN6Ocelot15SNEAK_SPEED_MODE
002a4d28 g    DF .text	0000000a _ZN5Model14onAppSuspendedEv
002a7768 g    DF .text	0000001e _ZN5Model5clearEv
004804d8 g    DF .text	00000014 _ZN13HumanoidModel15prepareMobModelER3Mobfff
003aac54 g    DF .text	000000b8 _ZNK19EntityShaderManager16_getOverlayColorER6Entityf
0049d768 g    DF .text	0000005e _ZN14EntityRenderer10postRenderER6EntityRK4Vec3ff
00421704 g    DF .text	000000ec _ZN11MobRenderer11renderDebugER6EntityR7Options
0041ce28 g    DF .text	000000a6 _ZN11MobRenderer13setupPositionER6EntityRK4Vec3R6Matrix
00422404 g    DF .text	000000ac _ZN11MobRenderer14setupRotationsER6EntityffR6Matrixf
00414dc4 g    DF .text	00000010 _ZN11MobRenderer13getAttackAnimER3Mobf
00414dd4 g    DF .text	00000016 _ZN11MobRenderer6getBobER3Mobf
00414dfc g    DF .text	00000008 _ZN11MobRenderer14getFlipDegreesER3Mob
00414e04 g    DF .text	00000002 _ZN11MobRenderer5scaleER3MobR6Matrixf
00414dc0 g    DF .text	00000004 _ZNK11MobRenderer10getSkinPtrER6Entity
003a5888 g    DF .text	00000002 _ZN17BaseContainerMenu7setDataEii
003a588c g    DF .text	00000004 _ZN17BaseContainerMenu11isSlotDirtyEi
003a5890 g    DF .text	00000004 _ZN17BaseContainerMenu12isResultSlotEi
003030a8 g    DF .text	0000002a _ZN19GuiElementContainer9topRenderEP15MinecraftClientii
00303054 g    DF .text	0000002a _ZN19GuiElementContainer15pointerReleasedEP15MinecraftClientii
003030d4 g    DF .text	0000002a _ZN19GuiElementContainer19focusedMouseClickedEP15MinecraftClientii
00303100 g    DF .text	0000002a _ZN19GuiElementContainer20focusedMouseReleasedEP15MinecraftClientii
0030312c g    DF .text	00000022 _ZN19GuiElementContainer17handleButtonPressEP15MinecraftClients
00303150 g    DF .text	00000022 _ZN19GuiElementContainer19handleButtonReleaseEP15MinecraftClients
00303174 g    DF .text	0000002a _ZN19GuiElementContainer14handleTextCharEP15MinecraftClientRKSsb
003031a0 g    DF .text	00000030 _ZN19GuiElementContainer11backPressedEP15MinecraftClientb
003031f4 g    DF .text	0000002a _ZN19GuiElementContainer17setKeyboardHeightEP15MinecraftClientfRK4Vec2
00303080 g    DF .text	00000026 _ZN19GuiElementContainer16suppressOtherGUIEv
003031f0 g    DF .text	00000004 _ZNK19GuiElementContainer11hasChildrenEv
0030e508 g    DF .text	000001d8 _ZN19GuiElementContainer11removeChildESt10shared_ptrI10GuiElementE
0030c440 g    DF .text	00000080 _ZN19GuiElementContainer8clearAllEv
00303440 g    DF .text	00000004 _ZNK21InventoryItemRenderer12getBatchTypeEv
00303444 g    DF .text	00000004 _ZNK21InventoryItemRenderer11getCustomIdEv
002a4f4c g    DF .text	00000004 _ZN12SkinInfoData14getTextureDataEv
002c2c14 g    DF .text	000002c8 _ZN12SkinInfoData25validateAndResizeSkinDataERSs
0041a3fc g    DF .text	000000c8 _ZN9Throwable10lerpMotionERK4Vec3
0047e1b8 g    DF .text	000005ea _ZN9Throwable10normalTickEv
004146b8 g    DF .text	00000004 _ZN9Throwable19getShadowHeightOffsEv
004179a4 g    DF .text	00000038 _ZN9Throwable25shouldRenderAtSqrDistanceEf
004146bc g    DF .text	0000000e _ZN9Throwable17getSourceUniqueIDEv
00417b00 g    DF .text	00000130 _ZN9Throwable22readAdditionalSaveDataERK11CompoundTag
004179dc g    DF .text	00000124 _ZN9Throwable21addAdditionalSaveDataER11CompoundTag
0041469c g    DF .text	00000006 _ZN9Throwable13getThrowPowerEv
004146a4 g    DF .text	00000004 _ZN9Throwable21getThrowUpAngleOffsetEv
004146a8 g    DF .text	0000000a _ZN9Throwable10getGravityEv
004146b4 g    DF .text	00000004 _ZN9Throwable15getParticleTypeEv
004a0670 g    DF .text	00000024 _ZN4Item7setIconERKSsi
0048040c g    DF .text	00000004 _ZN4Item7setIconERK22TextureUVCoordinateSet
00480430 g    DF .text	00000004 _ZN4Item11setCategoryE20CreativeItemCategory
00480470 g    DF .text	0000000a _ZN4Item16setStackedByDataEb
0048044c g    DF .text	0000000a _ZN4Item15setHandEquippedEv
004803f4 g    DF .text	00000016 _ZN4Item13canBeDepletedEv
00480420 g    DF .text	00000004 _ZNK4Item17canDestroySpecialEPK5Block
00480424 g    DF .text	00000004 _ZNK4Item23getLevelDataForAuxValueEi
00480428 g    DF .text	00000008 _ZNK4Item15isStackedByDataEv
00480434 g    DF .text	00000006 _ZN4Item12getMaxDamageEv
0048043c g    DF .text	00000004 _ZN4Item15getAttackDamageEv
00480458 g    DF .text	00000008 _ZNK4Item14isHandEquippedEv
00480460 g    DF .text	00000004 _ZNK4Item7isArmorEv
00480464 g    DF .text	00000004 _ZNK4Item5isDyeEv
00485210 g    DF .text	00000018 _ZNK4Item6isFoilEPK12ItemInstance
00480468 g    DF .text	00000004 _ZNK4Item11isThrowableEv
0048046c g    DF .text	00000004 _ZNK4Item20canDestroyInCreativeEv
00490250 g    DF .text	00000208 _ZNK4Item24appendFormattedHovertextERSsRK12ItemInstance
00480480 g    DF .text	0000003c _ZNK4Item14getEnchantSlotEv
004804bc g    DF .text	0000001c _ZNK4Item15getEnchantValueEv
0048513c g    DF .text	00000010 _ZN4Item3useER12ItemInstanceR6Player
004851d8 g    DF .text	00000036 _ZN4Item15useTimeDepletedEP12ItemInstanceP5LevelP6Player
00480414 g    DF .text	00000002 _ZN4Item12releaseUsingEP12ItemInstanceP6Playeri
00480418 g    DF .text	00000006 _ZN4Item15getDestroySpeedEP12ItemInstanceP5Block
00480440 g    DF .text	00000002 _ZN4Item9hurtEnemyEP12ItemInstanceP3MobS3_
00480444 g    DF .text	00000002 _ZN4Item13interactEnemyEP12ItemInstanceP3MobP6Player
00480448 g    DF .text	00000004 _ZN4Item9mineBlockEP12ItemInstance7BlockIDiiiP3Mob
0048f4b4 g    DF .text	000000a4 _ZNK4Item20buildDescriptionNameERK12ItemInstance
0048f228 g    DF .text	0000012c _ZNK4Item26buildEffectDescriptionNameERK12ItemInstance
00496810 g    DF .text	00000104 _ZNK4Item12readUserDataEP12ItemInstancePN6RakNet9BitStreamE
004900ec g    DF .text	00000164 _ZNK4Item13writeUserDataEPK12ItemInstancePN6RakNet9BitStreamEb
004803ec g    DF .text	00000004 _ZN4Item15getMaxStackSizeEPK12ItemInstance
00483cb4 g    DF .text	00000012 _ZNK4Item7getIconEiib
00480410 g    DF .text	00000004 _ZNK4Item13isMirroredArtEv
00359260 g    DF .text	00000004 _ZNK16UICustomRenderer12getBatchTypeEv
004de624 g    DF .text	000000bc _ZN10TargetGoal16canContinueToUseEv
003a5050 g    DF .text	00000004 _ZN4Goal12canInterruptEv
00480a4c g    DF .text	00000010 _ZN10TargetGoal4stopEv
003a505c g    DF .text	00000002 _ZN4Goal4tickEv
004de6e0 g    DF .text	000000f2 _ZN10TargetGoal10_canAttackEP13PathfinderMobP3Mobbb
003a8a5c g    DF .text	00000044 _ZNK9AgableMob15getShadowRadiusEv
00487fec g    DF .text	00000020 _ZN13TamableAnimal17handleEntityEventE11EntityEvent
00412e08 g    DF .text	00000024 _ZN9AgableMob16resolveDeathLootEi
004140b4 g    DF .text	00000004 _ZN6Animal23getAmbientSoundIntervalEv
0043b6c0 g    DF .text	00000244 _ZN6Animal6aiStepEv
0030173c g    DF .text	0000004a _ZN13PathfinderMob8canSpawnEb
004140bc g    DF .text	00000004 _ZNK6Animal13shouldDespawnEv
003ba07c g    DF .text	00000020 _ZNK9AgableMob6isBabyEv
00301788 g    DF .text	000005cc _ZN13PathfinderMob8updateAiEv
00428d0c g    DF .text	0000002c _ZNK6Animal19getExperienceRewardEv
002a73bc g    DF .text	0000001c _ZN13PathfinderMob15getAttackTargetEv
002ab080 g    DF .text	0000002c _ZN13PathfinderMob15setAttackTargetEP6Entity
00416730 g    DF .text	0000005c _ZN6Animal19_getWalkTargetValueERK8BlockPos
002a52a0 g    DF .text	00000004 _ZN13PathfinderMob16findAttackTargetEv
002a5270 g    DF .text	00000002 _ZN13PathfinderMob15checkHurtTargetEP6Entityf
002a5274 g    DF .text	00000028 _ZN13PathfinderMob18checkCantSeeTargetEP6Entityf
002a526c g    DF .text	00000004 _ZN13PathfinderMob16shouldHoldGroundEv
002b6794 g    DF .text	00000448 _ZN13PathfinderMob24findRandomStrollLocationEv
003a5030 g    DF .text	00000002 _ZN9AgableMob7_grewUpEv
004a06ac g    DF .text	0000001c _ZNK13TamableAnimal8getOwnerEv
00484f88 g    DF .text	00000006 _ZNK13TamableAnimal9isSittingEv
004a07bc g    DF .text	0000001e _ZN13TamableAnimal10setSittingEb
00496588 g    DF .text	00000254 _ZN13TamableAnimal20spawnTamingParticlesEb
003a5054 g    DF .text	00000002 _ZN4Goal5startEv
003a5058 g    DF .text	00000002 _ZN4Goal4stopEv
00482c04 g    DF .text	00000002 _ZN5Block4tickER11BlockSourceRK8BlockPosR6Random
00482c08 g    DF .text	00000002 _ZN5Block11animateTickER11BlockSourceRK8BlockPosR6Random
00484508 g    DF .text	0000001e _ZN5Block14getVisualShapeER11BlockSourceRK8BlockPosR4AABBb
00482e00 g    DF .text	00000050 _ZN5Block17getCollisionShapeER4AABBR11BlockSourceRK8BlockPosP6Entity
00482c70 g    DF .text	00000004 _ZN5Block10getTextureEa
00482c64 g    DF .text	0000000a _ZN5Block10getTextureEai
004844ec g    DF .text	0000001c _ZN5Block10getTextureER11BlockSourceRK8BlockPosa
00482c74 g    DF .text	0000000a _ZN5Block17getTessellatedUVsEv
00482d80 g    DF .text	0000000a _ZN5Block17getCarriedTextureEai
004c2cac g    DF .text	0000003e _ZN5Block8addAABBsER11BlockSourceRK8BlockPosPK4AABBRSt6vectorIS5_SaIS5_EE
00484430 g    DF .text	00000044 _ZN5Block7getAABBER11BlockSourceRK8BlockPosR4AABBibi
004c2c70 g    DF .text	0000003a _ZN5Block18addCollisionShapesER11BlockSourceRK8BlockPosPK4AABBRSt6vectorIS5_SaIS5_EEP6Entity
00482de4 g    DF .text	00000004 _ZNK5Block11isCropBlockEv
00482de8 g    DF .text	00000004 _ZNK5Block16isContainerBlockEv
00482dec g    DF .text	00000004 _ZNK5Block15isCraftingBlockEv
00482df0 g    DF .text	00000004 _ZNK5Block18isInteractiveBlockEv
004ac308 g    DF .text	00000038 _ZNK5Block15isWaterBlockingEv
00482cd8 g    DF .text	00000004 _ZNK5Block15isRedstoneBlockEv
00482cdc g    DF .text	00000004 _ZNK5Block20isRedstoneAttachableEv
00482df4 g    DF .text	00000004 _ZNK5Block14getRenderLayerER11BlockSourceRK8BlockPos
00482df8 g    DF .text	00000004 _ZNK5Block12getThicknessEv
00485750 g    DF .text	00000010 _ZN5Block15checkIsPathableER6EntityRK8BlockPosS4_
00482dc8 g    DF .text	00000002 _ZN5Block10onExplodedER11BlockSourceRK8BlockPosP6Entity
00482dcc g    DF .text	00000002 _ZN5Block8onStepOnER6EntityRK8BlockPos
00482dd0 g    DF .text	00000002 _ZN5Block8onFallOnER11BlockSourceRK8BlockPosP6Entityf
00482dd4 g    DF .text	00000004 _ZN5Block12onFertilizedER11BlockSourceRK8BlockPosP6Player
00482dd8 g    DF .text	00000004 _ZN5Block20mayConsumeFertilizerER11BlockSource
00482c80 g    DF .text	00000004 _ZN5Block7mayPickEv
00482c84 g    DF .text	0000000c _ZN5Block7mayPickER11BlockSourceib
00482d60 g    DF .text	0000000c _ZN5Block8mayPlaceER11BlockSourceRK8BlockPosa
004ac600 g    DF .text	00000040 _ZN5Block8mayPlaceER11BlockSourceRK8BlockPos
004887cc g    DF .text	0000004c _ZN5Block10tryToPlaceER11BlockSourceRK8BlockPosh
00482c4c g    DF .text	00000002 _ZN5Block7destroyER11BlockSourceRK8BlockPosiP6Entity
00482c50 g    DF .text	00000014 _ZN5Block17playerWillDestroyER6PlayerRK8BlockPosi
00482d6c g    DF .text	00000002 _ZN5Block15neighborChangedER11BlockSourceRK8BlockPosS4_
00482d70 g    DF .text	00000004 _ZN5Block13getSecondPartER11BlockSourceRK8BlockPosRS2_
00482d74 g    DF .text	00000006 _ZN5Block21onGraphicsModeChangedEbb
00488058 g    DF .text	00000078 _ZN5Block18getDestroyProgressER6Player
00496100 g    DF .text	000001d8 _ZN5Block14spawnResourcesER11BlockSourceRK8BlockPosifi
00482c48 g    DF .text	00000004 _ZN5Block18spawnBurnResourcesER11BlockSourcefff
00482c98 g    DF .text	00000018 _ZN5Block22getExplosionResistanceEP6Entity
00489d10 g    DF .text	000007d0 _ZN5Block4clipER11BlockSourceRK8BlockPosRK4Vec3S7_bi
00482cb0 g    DF .text	00000004 _ZN5Block3useER6PlayerRK8BlockPos
00482cb8 g    DF .text	00000002 _ZN5Block13prepareRenderER11BlockSourceRK8BlockPos
00482cbc g    DF .text	00000002 _ZN5Block6attackEP6PlayerRK8BlockPos
00482cc0 g    DF .text	00000002 _ZN5Block18handleEntityInsideER11BlockSourceRK8BlockPosP6EntityR4Vec3
00482cc4 g    DF .text	00000006 _ZN5Block8getColorEi
00482ccc g    DF .text	00000006 _ZN5Block8getColorER11BlockSourceRK8BlockPos
00482cd4 g    DF .text	00000004 _ZNK5Block14isSeasonTintedER11BlockSourceRK8BlockPos
00482ce0 g    DF .text	00000002 _ZN5Block12entityInsideER11BlockSourceRK8BlockPosR6Entity
004acfd0 g    DF .text	000000b4 _ZN5Block13playerDestroyEP6PlayerRK8BlockPosi
00482ce4 g    DF .text	00000004 _ZN5Block10canSurviveER11BlockSourceRK8BlockPos
00482ce8 g    DF .text	00000004 _ZNK5Block17getExperienceDropER6Random
00482cec g    DF .text	00000006 _ZNK5Block14canBeBuiltOverER11BlockSourceRK8BlockPos
0048e138 g    DF .text	00000068 _ZNK5Block20buildDescriptionNameERK12ItemInstance
00482d7c g    DF .text	00000004 _ZN5Block13getTextureNumEi
004adb20 g    DF .text	00000038 _ZNK5Block13getMobToSpawnER11BlockSourceRK8BlockPos
00482ddc g    DF .text	00000004 _ZNK5Block14getIconYOffsetEv
00482e54 g    DF .text	00000006 _ZN5Block17shouldStopFallingER6Entity
00482e50 g    DF .text	00000004 _ZNK5Block18calcGroundFrictionER3MobRK8BlockPos
004ad0d4 g    DF .text	0000000e _ZNK5Block16canHaveExtraDataEv
004ad8a8 g    DF .text	00000074 _ZN5Block4initEv
00485104 g    DF .text	00000024 _ZN5Block24getSilkTouchItemInstanceEh
00482cf8 g    DF .text	00000004 _ZN5Block12setSoundTypeERKNS_9SoundTypeE
00482cfc g    DF .text	00000014 _ZN5Block13setLightBlockE10Brightness
00482c0c g    DF .text	0000003c _ZN5Block16setLightEmissionEf
00482d10 g    DF .text	00000012 _ZN5Block14setExplodeableEf
00482d24 g    DF .text	00000022 _ZN5Block14setDestroyTimeEf
00482d48 g    DF .text	00000004 _ZN5Block11setFrictionEf
00482d5c g    DF .text	00000004 _ZN5Block25getSpawnResourcesAuxValueEh
00482dfc g    DF .text	00000004 _ZN5Block14getVisualShapeEhR4AABBb
004ad0d0 g    DF .text	00000004 _ZN5Block19isObstructingChestsER11BlockSourceRK8BlockPos
00482c94 g    DF .text	00000004 _ZN5Block11getResourceER6Randomii
00482c90 g    DF .text	00000004 _ZN5Block16getResourceCountER6Randomii
00484420 g    DF .text	00000010 _ZNK5Block14asItemInstanceER11BlockSourceRK8BlockPosi
00482cb4 g    DF .text	00000004 _ZN5Block21getPlacementDataValueER3MobRK8BlockPosaRK4Vec3i
00482de0 g    DF .text	00000004 _ZNK5Block16canBeSilkTouchedEv
00359630 g    DF .text	00000002 _ZN14TickingTexture11bindTextureER12TextureGroup
00484e58 g    DF .text	00000006 _ZN14EntityRenderer11renderDebugER6EntityR7Options
00374684 g    DF .text	000000f2 _ZN11ButtonBlock4tickER11BlockSourceRK8BlockPosR6Random
003743e0 g    DF .text	00000012 _ZN11ButtonBlock14getVisualShapeEhR4AABBb
003743c4 g    DF .text	0000001c _ZN11ButtonBlock17getCollisionShapeER4AABBR11BlockSourceRK8BlockPosP6Entity
0035918c g    DF .text	00000004 _ZNK11ButtonBlock15isRedstoneBlockEv
0035917c g    DF .text	0000000c _ZN11ButtonBlock7onPlaceER11BlockSourceRK8BlockPos
00359188 g    DF .text	00000002 _ZN11ButtonBlock16onRedstoneUpdateER11BlockSourceRK8BlockPosib
0038da28 g    DF .text	00000084 _ZN11ButtonBlock8onLoadedER11BlockSourceRK8BlockPos
00380448 g    DF .text	0000001c _ZN11ButtonBlock8mayPlaceER11BlockSourceRK8BlockPosa
00380464 g    DF .text	00000024 _ZN11ButtonBlock8mayPlaceER11BlockSourceRK8BlockPos
0037428c g    DF .text	00000004 _ZN11ButtonBlock15neighborChangedER11BlockSourceRK8BlockPosS4_
00359198 g    DF .text	00000004 _ZN11ButtonBlock11getResourceER6Randomii
00359194 g    DF .text	00000004 _ZN11ButtonBlock16getResourceCountER6Randomii
00374128 g    DF .text	00000106 _ZN11ButtonBlock3useER6PlayerRK8BlockPos
0035a6c8 g    DF .text	0000001a _ZN11ButtonBlock21getPlacementDataValueER3MobRK8BlockPosaRK4Vec3i
00374778 g    DF .text	00000036 _ZN11ButtonBlock12entityInsideER11BlockSourceRK8BlockPosR6Entity
0035919c g    DF .text	00000004 _ZN11ButtonBlock25getSpawnResourcesAuxValueEh
00359190 g    DF .text	00000004 _ZN11ButtonBlock11blocksLightEv
003033dc g    DF .text	00000002 _ZN14AbstractScreen13onFocusGainedEv
003033e0 g    DF .text	00000002 _ZN14AbstractScreen23onGameEventNotificationEN2UI21GameEventNotificationE
003033e4 g    DF .text	00000004 _ZNK14AbstractScreen7isModalEv
003033e8 g    DF .text	00000004 _ZNK14AbstractScreen13isShowingMenuEv
003033ec g    DF .text	00000004 _ZNK14AbstractScreen16shouldStealMouseEv
003033f0 g    DF .text	00000008 _ZN14AbstractScreen17getFocusedControlEv
003033f8 g    DF .text	00000004 _ZNK14AbstractScreen13isWorldViewerEv
003033fc g    DF .text	0000000a _ZN14AbstractScreen4exitEv
00303408 g    DF .text	00000004 _ZNK14AbstractScreen13isPauseScreenEv
0030340c g    DF .text	00000004 _ZNK14AbstractScreen17renderWhenTopMostEv
00504ec8 g    DF .text	00000138 _ZN12LargeFeature5applyEP11ChunkSourceR10LevelChunkP11BiomeSourceR6Random
002f49c8 g    DF .text	00000220 _ZN16StructureFeature10addFeatureER10LevelChunkP11BiomeSourceR6Randomii
002a511c g    DF .text	00000078 _ZN16StructureFeature14getStructureAtEiii
00482d8c g    DF .text	00000002 _ZN5Block7onPlaceER11BlockSourceRK8BlockPos
003a6328 g    DF .text	000000d0 _ZN5Layer4initEx
003d9910 g    DF .text	000000c6 _ZN5Layer13_modeOrRandomEiiii
004f8f6c g    DF .text	00000004 _ZNK7Enchant11getMinLevelEv
004f8f8c g    DF .text	00000004 _ZNK7Enchant19getDamageProtectionEiRK18EntityDamageSource
004f8f90 g    DF .text	00000004 _ZNK7Enchant14getDamageBonusEiRK6Entity
004f8f94 g    DF .text	00000002 _ZNK7Enchant12doPostAttackER3MobS1_i
004f8f98 g    DF .text	00000002 _ZNK7Enchant10doPostHurtER12ItemInstanceR3MobS3_i
004f8f9c g    DF .text	00000004 _ZNK7Enchant20isMeleeDamageEnchantEv
004f8fa0 g    DF .text	00000004 _ZNK7Enchant19isProtectionEnchantEv
002c4c28 g    DF .text	000002ac _ZN25MinecraftScreenController4bindERKSsiS1_S1_R11PropertyBag
002a8b3c g    DF .text	00000006 _ZNK25MinecraftScreenController21getTextInsertLocationEv
002a8b34 g    DF .text	00000006 _ZN25MinecraftScreenController15setSuspendInputEb
002a8b44 g    DF .text	0000000c _ZN25MinecraftScreenController12showKeyboardERKSsibN2UI18ValidCharacterFlagERK4Vec2
002a8b50 g    DF .text	00000006 _ZN25MinecraftScreenController12hideKeyboardEv
002a8b58 g    DF .text	00000006 _ZNK25MinecraftScreenController17getKeyboardHeightEv
002c4b5c g    DF .text	00000020 _ZN25MinecraftScreenController14_getStackCountEi
002a9dc8 g    DF .text	00000048 _ZN25MinecraftScreenController16_handleTakePlaceEs12ItemLocationi
002c4b94 g    DF .text	0000004a _ZN25MinecraftScreenController17_handleHeldButtonEi
002a5034 g    DF .text	00000010 _ZN25MinecraftScreenController16_resetSplitStackEv
0033d138 g    DF .text	0000006c _ZNK9Container13getSlotCopiesEv
0034ca00 g    DF .text	00000052 _ZN9Container8getSlotsEv
00324068 g    DF .text	00000042 _ZN9Container12getItemCountEi
0035d61c g    DF .text	00000050 _ZN6Screen5_initEii
00358e88 g    DF .text	00000010 _ZN6Screen7setSizeEii
003590a4 g    DF .text	00000002 _ZN6Screen19onSetKeyboardHeightEf
00359020 g    DF .text	00000002 _ZN6Screen21setAssociatedBlockPosERK8BlockPos
00358f00 g    DF .text	00000026 _ZN6Screen9lostFocusEv
00358ff8 g    DF .text	00000002 _ZN6Screen7removedEv
003590a0 g    DF .text	00000002 _ZN6Screen16onInternetUpdateEv
00358fc0 g    DF .text	00000032 _ZN6Screen4tickEii
00358ed0 g    DF .text	00000018 _ZN6Screen12updateEventsEv
00364668 g    DF .text	0000002c _ZN6Screen14setupAndRenderER15UIRenderContextiif
00358ef0 g    DF .text	00000002 _ZN6Screen22handleInputModeChangedE9InputMode
00389110 g    DF .text	000003c0 _ZN6Screen19handleButtonReleaseEs
0036c6f8 g    DF .text	00000014 _ZN6Screen21handlePointerLocationEss
0036c71c g    DF .text	00000006 _ZN6Screen20handlePointerPressedEb
0035c68c g    DF .text	00000038 _ZN6Screen15handleDirectionE11DirectionIdff
00358f54 g    DF .text	00000050 _ZN6Screen14handleTextCharERKSsb
00359060 g    DF .text	00000040 _ZN6Screen14setTextboxTextERKSs
00358fa8 g    DF .text	00000002 _ZN6Screen20handleLicenseChangedEv
00358fac g    DF .text	00000002 _ZN6Screen22handleGazeGestureInputEsfff
00358fb0 g    DF .text	00000002 _ZN6Screen20handleDictationEventEv
00358fb4 g    DF .text	00000002 _ZN6Screen18handleCommandEventERK12VoiceCommand
00358ee8 g    DF .text	00000004 _ZNK6Screen17closeOnPlayerHurtEv
00358fb8 g    DF .text	00000004 _ZN6Screen8getWidthEv
00358fbc g    DF .text	00000004 _ZN6Screen9getHeightEv
00358f28 g    DF .text	0000002c _ZN6Screen15toGUICoordinateEiiRiS0_
0036c15c g    DF .text	00000072 _ZN6Screen20checkForPointerEventEv
003988b8 g    DF .text	00000016 _ZN6Screen15controllerEventEv
0035cb38 g    DF .text	00000048 _ZN6Screen16renderBackgroundEi
0035b22c g    DF .text	0000016c _ZN6Screen20renderDirtBackgroundEv
0038e234 g    DF .text	00000680 _ZN6Screen20renderMenuBackgroundEf
00358eec g    DF .text	00000002 _ZN6Screen13confirmResultEbi
00359024 g    DF .text	00000032 _ZN6Screen22supppressedBySubWindowEv
00359058 g    DF .text	00000002 _ZN6Screen16onTextBoxUpdatedEi
0035905c g    DF .text	00000002 _ZN6Screen23onMojangConnectorStatusE22MojangConnectionStatus
00358fa4 g    DF .text	00000004 _ZN6Screen17handleScrollWheelEf
0035c474 g    DF .text	0000007c _ZN6Screen20_handlePointerActionEiib
0035cfe4 g    DF .text	0000006a _ZN6Screen25_updateTabButtonSelectionEv
00358efc g    DF .text	00000004 _ZN6Screen18_guiElementClickedER10GuiElement
00363c98 g    DF .text	000001c4 _ZN6Screen15_pointerPressedEii
0038a5ac g    DF .text	000001b8 _ZN6Screen16_pointerReleasedEii
00372c00 g    DF .text	0000002a _ZN6Screen24_controllerDirectionHeldEi14StickDirection
0035b398 g    DF .text	00000010 _ZNK6Screen16renderGameBehindEv
00306ebc g    DF .text	000000a4 _ZN16InGamePlayScreen4tickEii
003148ac g    DF .text	00000174 _ZN16InGamePlayScreen14setupAndRenderER15UIRenderContextiif
003077a0 g    DF .text	00000026 _ZN16InGamePlayScreen15handleDirectionE11DirectionIdff
00358e98 g    DF .text	00000038 _ZN6Screen15handleBackEventEb
0030361c g    DF .text	00000004 _ZNK16InGamePlayScreen16renderGameBehindEv
00303620 g    DF .text	00000004 _ZNK16InGamePlayScreen7isModalEv
00303614 g    DF .text	00000004 _ZNK16InGamePlayScreen13isShowingMenuEv
00303624 g    DF .text	00000004 _ZNK16InGamePlayScreen16shouldStealMouseEv
00358e84 g    DF .text	00000002 _ZN6Screen4initEv
00358ffc g    DF .text	00000024 _ZN6Screen14setupPositionsEv
00358ef8 g    DF .text	00000002 _ZN6Screen14_buttonClickedER6Button
0032ad40 g    DF .text	000000cc _ZN16InGamePlayScreen12_renderLevelEf
00306f60 g    DF .text	00000154 _ZN16InGamePlayScreen20_renderedFramedItemsE4Vec3P13LevelRendererP3MobfP14ParticleEngine
00336488 g    DF .text	000002c0 _ZN16InGamePlayScreen28_updateFreeformPickDirectionEfR4Vec3S1_
0030fe70 g    DF .text	00000344 _ZN16InGamePlayScreen13_saveMatricesEv
00335cc0 g    DF .text	000000dc _ZN16InGamePlayScreen27_renderFirstPerson3DObjectsEfi
0033176c g    DF .text	000003ec _ZN16InGamePlayScreen17_renderItemInHandER6Playerf
00331744 g    DF .text	00000028 _ZN16InGamePlayScreen19_renderScreenEffectER6Playerf
003249b8 g    DF .text	00000040 _ZNK16InGamePlayScreen18_shouldClipLiquidsEv
003070b4 g    DF .text	00000014 _ZN16InGamePlayScreen22_getThirdPersonSettingEv
00303628 g    DF .text	00000004 _ZN16InGamePlayScreen13_isHoloViewerEv
003101b4 g    DF .text	000002f0 _ZN16InGamePlayScreen14_prepareCullerEv
00306b3c g    DF .text	000002fc _ZN8Particle6renderER11Tessellatorffffff
003a4ffc g    DF .text	00000002 _ZNK17InputDeviceMapper6renderER18InputRenderContext
003a5000 g    DF .text	00000006 _ZN17InputDeviceMapper13setWindowSizeEii
0035c640 g    DF .text	0000004c _ZN9BushBlock7getAABBER11BlockSourceRK8BlockPosR4AABBibi
0035a838 g    DF .text	0000003a _ZN9BushBlock8mayPlaceER11BlockSourceRK8BlockPosa
0035a874 g    DF .text	00000006 _ZN9BushBlock8mayPlaceER11BlockSourceRK8BlockPos
003596ec g    DF .text	0000000c _ZN9BushBlock15neighborChangedER11BlockSourceRK8BlockPosS4_
0035a794 g    DF .text	0000002c _ZN9BushBlock10canSurviveER11BlockSourceRK8BlockPos
0035c510 g    DF .text	00000060 _ZN9BushBlock10mayPlaceOnER5Block
0035cea4 g    DF .text	000000b8 _ZN9BushBlock10checkAliveER11BlockSourceRK8BlockPos
0047f9bc g    DF .text	000000f0 _ZNK9MobEffect12applyEffectsEP3Mobii
00445838 g    DF .text	000000ac _ZN9MobEffect13removeEffectsEP3Mob
004457bc g    DF .text	0000007c _ZNK9MobEffect24applyInstantaneousEffectEP6EntityS1_P3Mobif
00414c18 g    DF .text	00000004 _ZNK9MobEffect15isInstantaneousEv
003a5044 g    DF .text	0000000a _ZN4Goal16canContinueToUseEv
004fc9ec g    DF .text	00000036 _ZN13BaseRailBlock14getVisualShapeEhR4AABBb
00518a2c g    DF .text	00000070 _ZN13BaseRailBlock7getAABBER11BlockSourceRK8BlockPosR4AABBibi
004f8fe4 g    DF .text	00000004 _ZNK13BaseRailBlock15isRedstoneBlockEv
0053437c g    DF .text	0000004e _ZN13BaseRailBlock7onPlaceER11BlockSourceRK8BlockPos
00518bb0 g    DF .text	00000030 _ZN13BaseRailBlock8onRemoveER11BlockSourceRK8BlockPos
005342bc g    DF .text	0000006a _ZN13BaseRailBlock16onRedstoneUpdateER11BlockSourceRK8BlockPosib
0052d8a8 g    DF .text	0000001e _ZN13BaseRailBlock8onLoadedER11BlockSourceRK8BlockPos
0051b980 g    DF .text	0000001e _ZN13BaseRailBlock8mayPlaceER11BlockSourceRK8BlockPos
0051bea4 g    DF .text	0000002e _ZN13BaseRailBlock15neighborChangedER11BlockSourceRK8BlockPosS4_
004f8fe0 g    DF .text	00000004 _ZN13BaseRailBlock16getResourceCountER6Randomii
004fab20 g    DF .text	00000012 _ZNK13BaseRailBlock14asItemInstanceER11BlockSourceRK8BlockPosi
00305dec g    DF .text	00000030 _ZN19GuiElementContainer6renderEP15MinecraftClientii
00303028 g    DF .text	0000002a _ZN19GuiElementContainer14pointerPressedEP15MinecraftClientii
003031d0 g    DF .text	0000001e _ZN19GuiElementContainer14setTextboxTextERKSs
006b29e0 g    DO .bss	00000001 __gnu_lto_v1
002a4ac0  w   DF .text	00000002 _ZN19AppPlatformListener14onAppSuspendedEv
002a4ac4  w   DF .text	00000002 _ZN3App13audioEngineOnEv
002a4ac8  w   DF .text	00000002 _ZN3App14audioEngineOffEv
002a4acc  w   DF .text	00000002 _ZN3App9muteAudioEv
002a4ad0  w   DF .text	00000002 _ZN3App11unMuteAudioEv
002a4ad4  w   DF .text	00000002 _ZN3App7destroyEv
002a4ad8  w   DF .text	00000002 _ZN3App9loadStateEPvi
002a4adc  w   DF .text	00000004 _ZN3App9saveStateEPPvPi
002a4ae0  w   DF .text	00000004 _ZN3App14useTouchscreenEv
002a4ae4  w   DF .text	00000002 _ZN3App14setTextboxTextERKSs
002a4ae8  w   DF .text	00000002 _ZN3App4drawEv
002a4aec  w   DF .text	00000002 _ZN3App6updateEv
002a4af0  w   DF .text	00000002 _ZN3App7setSizeEiif
002a4af4  w   DF .text	00000006 _ZN3App4quitEv
002a4afc  w   DF .text	00000004 _ZN3App10wantToQuitEv
002a4b00  w   DF .text	00000002 _ZN3App4initEv
002a4b04  w   DF .text	00000010 _ZN15SkinInfoFactoryD2Ev
005e0770  w   DO .data.rel.ro	00000014 _ZTV15SkinInfoFactory
002a4b04  w   DF .text	00000010 _ZN15SkinInfoFactoryD1Ev
002a4b14  w   DF .text	00000010 _ZN13GameCallbacksD2Ev
005e0788  w   DO .data.rel.ro	00000020 _ZTV13GameCallbacks
002a4b14  w   DF .text	00000010 _ZN13GameCallbacksD1Ev
002a4b24  w   DF .text	00000010 _ZN9VibrationD2Ev
005e07a8  w   DO .data.rel.ro	00000014 _ZTV9Vibration
002a4b24  w   DF .text	00000010 _ZN9VibrationD1Ev
002a4b34  w   DF .text	00000002 _ZN11ImageButton8renderBgEP15MinecraftClientii
002a4b38  w   DF .text	00000004 _ZN11ImageButton13isSecondImageEb
002a4b3c  w   DF .text	00000010 _ZN34AbstractScreenSetupCleanupStrategyD2Ev
005e07c0  w   DO .data.rel.ro	00000018 _ZTV34AbstractScreenSetupCleanupStrategy
002a4b3c  w   DF .text	00000010 _ZN34AbstractScreenSetupCleanupStrategyD1Ev
002a4b4c  w   DF .text	00000010 _ZN12PacketSenderD2Ev
005e07f0  w   DO .data.rel.ro	0000001c _ZTV12PacketSender
002a4b4c  w   DF .text	00000010 _ZN12PacketSenderD1Ev
002a4b5c g    DF .text	0000001c _ZN14TextEditScreen14setupPositionsEv
002a4b78 g    DF .text	0000000a _ZNK10Silverfish15getEntityTypeIdEv
002a4b84 g    DF .text	0000000c _ZN10Silverfish16_getAmbientSoundEv
002a4b90 g    DF .text	00000004 _ZN10Silverfish12getDeathLootEv
002a4b94 g    DF .text	00000004 _ZN10Silverfish19isDarkEnoughToSpawnEv
002a4b98 g    DF .text	0000000a _ZNK10Silverfish13getHeadHeightEv
002a4ba4 g    DF .text	00000004 _ZN10Silverfish8useNewAiEv
002a4ba8 g    DF .text	0000000c _ZN27SilverfishWakeUpFriendsGoal6canUseEv
002a4bb4 g    DF .text	00000014 _ZNK11Tessellator8getStatsEv
002a4bc8  w   DF .text	00000010 _ZN13HeartParticleD2Ev
002a4bc8  w   DF .text	00000010 _ZN13HeartParticleD1Ev
002a4bd8 g    DF .text	00000068 _ZN13HeartParticle4initERK4Vec3S2_iR14ParticleEngine
002a4c40  w   DF .text	0000000a _ZN5Model6renderER6Entityffffff
002a4c4c  w   DF .text	00000006 _ZNK23RestorePurchaseDialogue13isBlockingGUIEv
002a4c54 g    DF .text	0000000c _ZN13TrapDoorBlock6attackEP6PlayerRK8BlockPos
002a4c60 g    DF .text	00000052 _ZN13TrapDoorBlock21getPlacementDataValueER3MobRK8BlockPosaRK4Vec3i
002a4cb4 g    DF .text	00000004 _ZN13TrapDoorBlock16getResourceCountER6Randomii
002a4cb8 g    DF .text	00000004 _ZN13TrapDoorBlock11getResourceER6Randomii
002a4cbc g    DF .text	00000004 _ZNK13TrapDoorBlock18isInteractiveBlockEv
002a4cc0 g    DF .text	00000004 _ZNK13TrapDoorBlock16canBeSilkTouchedEv
002a4cc4 g    DF .text	00000010 _ZN17RedstoneLampBlock11getResourceER6Randomii
006abfdc g    DO .bss	00000004 _ZN5Block18mUnlitRedStoneLampE
002a4cd4 g    DF .text	00000006 _ZNK9LavaSlime15getEntityTypeIdEv
002a4cdc g    DF .text	00000006 _ZN9LavaSlime13getBrightnessEf
002a4ce4 g    DF .text	00000004 _ZN9LavaSlime15doPlayLandSoundEv
002a4ce8 g    DF .text	00000014 _ZN9LavaSlime12getDeathLootEv
006acf6c g    DO .bss	00000004 _ZN4Item12mMagma_creamE
002a4cfc g    DF .text	00000004 _ZNK9LavaSlime8isOnFireEv
002a4d00 g    DF .text	0000001c _ZN9LavaSlime14decreaseSquishEv
002a4d1c g    DF .text	00000002 _ZN9LavaSlime15causeFallDamageEf
002a4d20 g    DF .text	00000004 _ZN9LavaSlime13canDealDamageEv
002a4d24 g    DF .text	00000004 _ZN9LavaSlime8isInLavaEv
002a4d34  w   DF .text	0000001c _ZN13FlameParticle21getParticleLightColorEf
002a4d50  w   DF .text	0000001c _ZN12LavaParticle21getParticleLightColorEf
002a4d6c  w   DF .text	0000000c _ZNK20BreakingItemParticle18getParticleTextureEv
006480dc g    DO .bss	0000000c _ZN8Particle11ITEMS_ATLASE
002a4d78  w   DF .text	00000010 _ZN21SuspendedTownParticleD2Ev
002a4d78  w   DF .text	00000010 _ZN21SuspendedTownParticleD1Ev
002a4d88  w   DF .text	00000004 _ZNK13UseItemPacket5getIdEv
002a4d8c  w   DF .text	00000012 _ZNK13UseItemPacket6handleERKN6RakNet10RakNetGUIDEP16NetEventCallback
002a4da0  w   DF .text	00000004 _ZNK18PlayerActionPacket5getIdEv
002a4da4  w   DF .text	00000012 _ZNK18PlayerActionPacket6handleERKN6RakNet10RakNetGUIDEP16NetEventCallback
002a4db8  w   DF .text	00000004 _ZNK17RemoveBlockPacket5getIdEv
002a4dbc  w   DF .text	00000010 _ZNK17RemoveBlockPacket6handleERKN6RakNet10RakNetGUIDEP16NetEventCallback
005e26a0 g    DO .data.rel.ro	00000058 _ZTV8GameMode
002a4dcc g    DF .text	00000010 _ZN8GameModeD1Ev
002a4df4 g    DF .text	00000010 _ZN4Json6WriterD2Ev
005e1270 g    DO .data.rel.ro	00000014 _ZTVN4Json6WriterE
002a4df4 g    DF .text	00000010 _ZN4Json6WriterD1Ev
002a4e04  w   DF .text	00000010 _ZN7ControlD2Ev
005e0b20  w   DO .data.rel.ro	00000010 _ZTV7Control
002a4e04  w   DF .text	00000010 _ZN7ControlD1Ev
002a4e14  w   DF .text	00000010 _ZN11LookControlD2Ev
002a4e14  w   DF .text	00000010 _ZN11LookControlD1Ev
002a4e24  w   DF .text	00000024 _ZN10FishRewardD2Ev
005e0b30  w   DO .data.rel.ro	00000010 _ZTV10FishReward
002a4e24  w   DF .text	00000024 _ZN10FishRewardD1Ev
002a4e48  w   DF .text	00000004 _ZNK13DyePowderItem5isDyeEv
002a4e4c g    DF .text	0000000e _ZN13SquidIdleGoal6canUseEv
002a4e5c g    DF .text	0000000a _ZN13SquidIdleGoal16canContinueToUseEv
002a4e68 g    DF .text	00000006 _ZN13SquidIdleGoal5startEv
002a4e70 g    DF .text	00000002 _ZN13SquidIdleGoal4stopEv
002a4e74 g    DF .text	0000000a _ZN13SquidFleeGoal16canContinueToUseEv
002a4e80 g    DF .text	00000006 _ZN13SquidFleeGoal5startEv
002a4e88 g    DF .text	00000002 _ZN13SquidFleeGoal4stopEv
002a4e8c g    DF .text	00000008 _ZN27SquidMoveAwayFromGroundGoal6canUseEv
002a4e94 g    DF .text	00000008 _ZN27SquidMoveAwayFromGroundGoal16canContinueToUseEv
002a4e9c g    DF .text	00000002 _ZN27SquidMoveAwayFromGroundGoal4stopEv
002a4ea0 g    DF .text	00000002 _ZN27SquidMoveAwayFromGroundGoal4tickEv
002a4ea4 g    DF .text	00000014 _ZN19SquidOutOfWaterGoal6canUseEv
002a4eb8 g    DF .text	00000014 _ZN19SquidOutOfWaterGoal16canContinueToUseEv
002a4ecc g    DF .text	00000002 _ZN19SquidOutOfWaterGoal4stopEv
002a4ed0 g    DF .text	00000002 _ZN19SquidOutOfWaterGoal4tickEv
002a4ed4 g    DF .text	0000000a _ZN13SquidDiveGoal16canContinueToUseEv
002a4ee0 g    DF .text	00000002 _ZN13SquidDiveGoal4stopEv
002a4ee4 g    DF .text	00000002 _ZN13SquidDiveGoal4tickEv
002a4ee8  w   DF .text	00000002 _ZN16SquidMoveControl4tickEv
002a4eec g    DF .text	00000006 _ZNK5Squid15getEntityTypeIdEv
002a4ef4 g    DF .text	0000000c _ZN5Squid16_getAmbientSoundEv
002a4f00 g    DF .text	0000000a _ZN5Squid15_getSoundVolumeEv
002a4f0c g    DF .text	00000014 _ZN5Squid12getDeathLootEv
002a4f20 g    DF .text	0000000e _ZN5Squid6travelEff
002a4f30 g    DF .text	0000000a _ZNK5Squid12getJumpPowerEv
005e2d10 g    DO .data.rel.ro	00000028 _ZTV12SkinInfoData
002a4f3c g    DF .text	00000010 _ZN12SkinInfoDataD1Ev
002a4f50 g    DF .text	00000004 _ZNK20TelemetryEventPacket5getIdEv
002a4f54 g    DF .text	00000012 _ZNK20TelemetryEventPacket6handleERKN6RakNet10RakNetGUIDEP16NetEventCallback
002a4f68  w   DF .text	00000002 _ZN6Animal20postProcessOffspringERS_S0_
002a4f6c g    DF .text	00000006 _ZNK3Cow15getEntityTypeIdEv
002a4f74 g    DF .text	0000000c _ZN3Cow16_getAmbientSoundEv
002a4f80 g    DF .text	00000014 _ZN3Cow12getDeathLootEv
006ad05c g    DO .bss	00000004 _ZN4Item8mLeatherE
002a4f94 g    DF .text	00000004 _ZN3Cow8useNewAiEv
002a4f98 g    DF .text	00000006 _ZNK11MushroomCow15getEntityTypeIdEv
002a4fa0 g    DF .text	0000002a _ZN21DaylightDetectorBlock11updateShapeER11BlockSourceRK8BlockPos
002a4fcc g    DF .text	0000000c _ZN21DaylightDetectorBlock7onPlaceER11BlockSourceRK8BlockPos
002a4fd8 g    DF .text	00000004 _ZNK21DaylightDetectorBlock15isRedstoneBlockEv
002a4fdc g    DF .text	00000016 _ZN21DaylightDetectorBlock10getTextureEai
002a4ff4 g    DF .text	00000010 _ZN21DaylightDetectorBlock11getResourceER6Randomii
006abf68 g    DO .bss	00000004 _ZN5Block17mDaylightDetectorE
002a5028 g    DF .text	00000002 _ZN25MinecraftScreenController6onOpenEv
002a5030 g    DF .text	00000004 _ZNK25MinecraftScreenController13_isStillValidEv
002a5044 g    DF .text	0000000a _ZN13HayBlockBlock13getDirTextureEai
002a5050 g    DF .text	00000028 _ZN10CocoaBlock21getPlacementDataValueER3MobRK8BlockPosaRK4Vec3i
002a5078 g    DF .text	00000004 _ZNK10CocoaBlock16canBeSilkTouchedEv
002a507c g    DF .text	00000014 _ZN9ChestMenu29blockEntityDestroyedIsInvalidEi
002a5090 g    DF .text	00000010 _ZNK6IntTag5writeER11IDataOutput
002a50a0 g    DF .text	00000010 _ZN6IntTag4loadER10IDataInput
002a50b0 g    DF .text	00000004 _ZNK6IntTag5getIdEv
002a50b4 g    DF .text	00000004 _ZN9WallBlock25getSpawnResourcesAuxValueEh
002a50b8 g    DF .text	00000004 _ZNK9WallBlock16canBeSilkTouchedEv
002a50bc  w   DF .text	00000010 _ZN30HoloScreenSetupCleanupStrategyD2Ev
002a50bc  w   DF .text	00000010 _ZN30HoloScreenSetupCleanupStrategyD1Ev
002a50cc  w   DF .text	00000006 _ZNK25WallClimberPathNavigation14hasDestinationEv
002a50d4 g    DF .text	00000004 _ZN11PortalBlock16getResourceCountER6Randomii
002a50d8 g    DF .text	00000004 _ZNK18NetworkChunkSource15getStoredChunksEv
002a50dc g    DF .text	00000004 _ZN18NetworkChunkSource15getStoredChunksEv
002a50e0 g    DF .text	00000002 _ZN18NetworkChunkSource11onLowMemoryEv
002a50e4 g    DF .text	00000008 _ZThn24_N18NetworkChunkSource11onLowMemoryEv
002a50ec g    DF .text	00000010 _ZN16LargeImageButton12setupDefaultEv
002a50fc g    DF .text	00000004 _ZNK16ExperiencePotion15getEntityTypeIdEv
002a5100 g    DF .text	0000000a _ZN16ExperiencePotion10getGravityEv
002a510c g    DF .text	00000006 _ZN16ExperiencePotion13getThrowPowerEv
002a5114 g    DF .text	00000008 _ZN16ExperiencePotion21getThrowUpAngleOffsetEv
002a5194 g    DF .text	00000014 _ZN8DeadBush11getResourceER6Randomii
002a51a8 g    DF .text	00000028 _ZN10SquidModel9setupAnimEffffff
002a51d0 g    DF .text	00000010 _ZN19ProgressBarRendererD2Ev
002a51d0 g    DF .text	00000010 _ZN19ProgressBarRendererD1Ev
002a51e0 g    DF .text	00000004 _ZNK11TouchMapper12getInputModeEv
002a51e4  w   DF .text	00000002 _ZN11SoundSystem4playERKSs
002a51e8  w   DF .text	00000002 _ZN11SoundSystem5pauseERKSs
002a51ec  w   DF .text	00000002 _ZN11SoundSystem4stopERKSs
002a51f0  w   DF .text	00000002 _ZN15SoundSystemFMOD6enableEb
002a51f4  w   DF .text	00000004 _ZNK22SetSpawnPositionPacket5getIdEv
002a51f8  w   DF .text	00000012 _ZNK22SetSpawnPositionPacket6handleERKN6RakNet10RakNetGUIDEP16NetEventCallback
002a520c g    DF .text	0000001a _ZN23AddExternalServerScreen18_guiElementClickedER10GuiElement
002a5228 g    DF .text	00000004 _ZN10ClothBlock25getSpawnResourcesAuxValueEh
002a522c g    DF .text	00000024 _ZN10StoneBlock11getResourceER6Randomii
002a5250 g    DF .text	00000004 _ZN10StoneBlock25getSpawnResourcesAuxValueEh
002a5254 g    DF .text	00000016 _ZN21WorldLimitChunkSource12releaseChunkER10LevelChunk
002a529c g    DF .text	00000004 _ZN13PathfinderMob19_getWalkTargetValueERK8BlockPos
002a52a4 g    DF .text	00000032 _ZN14SoundComponent7receiveER10VisualTreeR19AnimationController11ScreenEvent
002a52d8 g    DF .text	00000010 _ZNK7ByteTag5writeER11IDataOutput
002a52e8 g    DF .text	00000010 _ZN7ByteTag4loadER10IDataInput
002a52f8 g    DF .text	00000004 _ZNK7ByteTag5getIdEv
002a52fc  w   DF .text	00000004 _ZNK6Spider13getSpiderTypeEv
002a5300  w   DF .text	00000004 _ZNK10CaveSpider13getSpiderTypeEv
002a5304 g    DF .text	00000002 _ZN6Spider14makeStuckInWebEv
002a5308 g    DF .text	00000006 _ZN6Spider13getModelScaleEv
002a5310 g    DF .text	0000000a _ZNK6Spider15getEntityTypeIdEv
002a531c g    DF .text	00000004 _ZN6Spider8useNewAiEv
002a5320 g    DF .text	0000000c _ZN6Spider16_getAmbientSoundEv
002a532c g    DF .text	00000014 _ZN6Spider12getDeathLootEv
006ad120 g    DO .bss	00000004 _ZN4Item7mStringE
002a5340 g    DF .text	0000000a _ZNK10CaveSpider15getEntityTypeIdEv
002a534c g    DF .text	0000000a _ZN10CaveSpider13getModelScaleEv
002a5358 g    DF .text	00000004 _ZN9WoodBlock25getSpawnResourcesAuxValueEh
002a535c g    DF .text	0000000c _ZN18ShowSkinPackScreen27_controllerDirectionChangedEi14StickDirection
002a5368 g    DF .text	00000010 _ZNK11PotatoBlock11getBaseSeedEv
006acfe8 g    DO .bss	00000004 _ZN4Item7mPotatoE
002a5378 g    DF .text	00000014 _ZN11PotatoBlock14getBasePlantIdEv
002a538c g    DF .text	00000024 _ZN11ChunkSourceD2Ev
005e3cb0 g    DO .data.rel.ro	00000050 _ZTV11ChunkSource
002a538c g    DF .text	00000024 _ZN11ChunkSourceD1Ev
002a53b0 g    DF .text	00000004 _ZN11ChunkSource16getExistingChunkERK8ChunkPos
002a53b4 g    DF .text	0000000e _ZN11ChunkSource12requestChunkERK8ChunkPosNS_8LoadModeE
002a53c4 g    DF .text	0000000e _ZN11ChunkSource12releaseChunkER10LevelChunk
002a53d4 g    DF .text	00000004 _ZN11ChunkSource11postProcessER15ChunkViewSource
002a53d8 g    DF .text	0000000e _ZN11ChunkSource9loadChunkER10LevelChunk
002a53e8 g    DF .text	0000000e _ZN11ChunkSource21hintDiscardBatchBeginEv
002a53f8 g    DF .text	0000000e _ZN11ChunkSource19hintDiscardBatchEndEv
002a5408 g    DF .text	0000000e _ZN11ChunkSource16acquireDiscardedEOSt10unique_ptrI10LevelChunkSt14default_deleteIS1_EE
002a5418 g    DF .text	0000000e _ZN11ChunkSource19waitDiscardFinishedEv
002a5428 g    DF .text	0000000c _ZNK11ChunkSource15getStoredChunksEv
002a5434 g    DF .text	0000000c _ZN11ChunkSource15getStoredChunksEv
002a5440 g    DF .text	0000000e _ZN11ChunkSource13saveLiveChunkER10LevelChunk
002a5450 g    DF .text	0000000e _ZN11ChunkSource7compactEv
002a5460 g    DF .text	00000016 _ZN11ChunkSource17postProcessMobsAtEP11BlockSourceiiR6Random
002a5478 g    DF .text	0000001c _ZN11ChunkSource9getMobsAtER11BlockSource10EntityTypeRK8BlockPos
006ae8f8 g    DO .bss	0000000c _ZN5Biome13EMPTY_MOBLISTE
002a5494 g    DF .text	00000006 _ZNK6Rabbit15getEntityTypeIdEv
002a549c g    DF .text	0000000c _ZN6Rabbit16_getAmbientSoundEv
002a54a8 g    DF .text	00000004 _ZN6Rabbit12doHurtTargetEP6Entity
002a54ac  w   DF .text	00000006 _ZNK9SignBlock15isWaterBlockingEv
002a54b4 g    DF .text	00000004 _ZN9SignBlock15checkIsPathableER6EntityRK8BlockPosS4_
002a54b8 g    DF .text	00000014 _ZN9SignBlock11getResourceER6Randomii
006ad08c g    DO .bss	00000004 _ZN4Item5mSignE
002a54cc g    DF .text	00000004 _ZNK9SignBlock16canBeSilkTouchedEv
002a54d0 g    DF .text	00000014 _ZN14ThinFenceBlock18addCollisionShapesER11BlockSourceRK8BlockPosPK4AABBRSt6vectorIS5_SaIS5_EEP6Entity
002a54e4 g    DF .text	00000002 _ZNK12TouchControl6renderER18InputRenderContext
002a54e8 g    DF .text	00000002 _ZN12TouchControl4tickER15InputEventQueueR17TouchPointResults
002a54ec g    DF .text	00000002 _ZN12TouchControl7releaseER15InputEventQueue
002a54f0 g    DF .text	00000004 _ZN15SoundSystemFMOD16setListenerAngleEf
002a54f4 g    DF .text	00000008 _ZN15SoundSystemFMOD14setListenerPosEfff
002a54fc g    DF .text	00000008 _ZN15SoundSystemFMOD19setListenerVelocityEfff
002a5504 g    DF .text	00000008 _ZN12MakeLoveGoal5startEv
002a550c g    DF .text	00000004 _ZN8Skeleton8useNewAiEv
002a5510 g    DF .text	00000014 _ZN8Skeleton12getDeathLootEv
006ad184 g    DO .bss	00000004 _ZN4Item6mArrowE
002a5524 g    DF .text	0000000a _ZNK8Skeleton15getEntityTypeIdEv
002a5530 g    DF .text	0000000c _ZN8Skeleton16_getAmbientSoundEv
002a553c g    DF .text	0000000c _ZN8PlayGoal16canContinueToUseEv
002a5654  w   DF .text	00000010 _ZN14BubbleParticleD2Ev
002a5654  w   DF .text	00000010 _ZN14BubbleParticleD1Ev
002a5664  w   DF .text	00000010 _ZN12CritParticleD2Ev
002a5664  w   DF .text	00000010 _ZN12CritParticleD1Ev
002a5674  w   DF .text	00000010 _ZN13SmokeParticleD2Ev
002a5674  w   DF .text	00000010 _ZN13SmokeParticleD1Ev
002a5684  w   DF .text	00000010 _ZN15ExplodeParticleD2Ev
002a5684  w   DF .text	00000010 _ZN15ExplodeParticleD1Ev
002a5694  w   DF .text	00000010 _ZN13FlameParticleD2Ev
002a5694  w   DF .text	00000010 _ZN13FlameParticleD1Ev
002a56a4  w   DF .text	00000010 _ZN12LavaParticleD2Ev
002a56a4  w   DF .text	00000010 _ZN12LavaParticleD1Ev
002a56b4  w   DF .text	00000010 _ZN15RedDustParticleD2Ev
002a56b4  w   DF .text	00000010 _ZN15RedDustParticleD1Ev
002a56c4  w   DF .text	00000010 _ZN20BreakingItemParticleD2Ev
002a56c4  w   DF .text	00000010 _ZN20BreakingItemParticleD1Ev
002a56d4  w   DF .text	00000010 _ZN19FallingDustParticleD2Ev
002a56d4  w   DF .text	00000010 _ZN19FallingDustParticleD1Ev
002a56e4  w   DF .text	00000010 _ZN13SpellParticleD2Ev
002a56e4  w   DF .text	00000010 _ZN13SpellParticleD1Ev
002a56f4  w   DF .text	00000010 _ZN11InkParticleD2Ev
002a56f4  w   DF .text	00000010 _ZN11InkParticleD1Ev
002a5704  w   DF .text	00000010 _ZN21AngryVillagerParticleD2Ev
002a5704  w   DF .text	00000010 _ZN21AngryVillagerParticleD1Ev
002a5714  w   DF .text	00000010 _ZN21HappyVillagerParticleD2Ev
002a5714  w   DF .text	00000010 _ZN21HappyVillagerParticleD1Ev
002a5724  w   DF .text	00000010 _ZN16SquidMoveControlD2Ev
002a5724  w   DF .text	00000010 _ZN16SquidMoveControlD1Ev
002a5734  w   DF .text	00000010 _ZN6IntTagD2Ev
002a5734  w   DF .text	00000010 _ZN6IntTagD1Ev
002a57b4  w   DF .text	00000010 _ZN7ByteTagD2Ev
002a57b4  w   DF .text	00000010 _ZN7ByteTagD1Ev
002a57d4  w   DF .text	00000010 _ZN17RabbitJumpControlD2Ev
002a57d4  w   DF .text	00000010 _ZN17RabbitJumpControlD1Ev
002a57e4  w   DF .text	00000010 _ZN17RabbitMoveControlD2Ev
002a57e4  w   DF .text	00000010 _ZN17RabbitMoveControlD1Ev
002a580c  w   DF .text	00000010 _ZN22SetSpawnPositionPacketD2Ev
002a580c  w   DF .text	00000010 _ZN22SetSpawnPositionPacketD1Ev
002a581c  w   DF .text	00000010 _ZN17GroundBushFeatureD2Ev
002a581c  w   DF .text	00000010 _ZN17GroundBushFeatureD1Ev
002a582c  w   DF .text	00000010 _ZN20TelemetryEventPacketD2Ev
002a582c  w   DF .text	00000010 _ZN20TelemetryEventPacketD1Ev
002a583c  w   DF .text	00000010 _ZN17RemoveBlockPacketD2Ev
002a583c  w   DF .text	00000010 _ZN17RemoveBlockPacketD1Ev
002a584c  w   DF .text	00000010 _ZN18PlayerActionPacketD2Ev
002a584c  w   DF .text	00000010 _ZN18PlayerActionPacketD1Ev
002a585c  w   DF .text	00000034 _ZN13UseItemPacketD2Ev
005e0ac0  w   DO .data.rel.ro	00000020 _ZTV13UseItemPacket
002a585c  w   DF .text	00000034 _ZN13UseItemPacketD1Ev
002a5890  w   DF .text	00000010 _ZN17JungleTreeFeatureD2Ev
002a5890  w   DF .text	00000010 _ZN17JungleTreeFeatureD1Ev
002a58a0  w   DF .text	00000010 _ZN13SpruceFeatureD2Ev
002a58a0  w   DF .text	00000010 _ZN13SpruceFeatureD1Ev
002a58b0  w   DF .text	00000010 _ZN13FlowerFeatureD2Ev
002a58b0  w   DF .text	00000010 _ZN13FlowerFeatureD1Ev
002a58c0  w   DF .text	00000010 _ZNSt19_Sp_counted_deleterIP12OptionsGroupNSt12__shared_ptrIS0_LN9__gnu_cxx12_Lock_policyE2EE8_DeleterISaIS0_EEES7_LS4_2EED2Ev
002a58c0  w   DF .text	00000010 _ZNSt19_Sp_counted_deleterIP12OptionsGroupNSt12__shared_ptrIS0_LN9__gnu_cxx12_Lock_policyE2EE8_DeleterISaIS0_EEES7_LS4_2EED1Ev
002a58d0  w   DF .text	00000004 _ZNSt19_Sp_counted_deleterIP12OptionsGroupNSt12__shared_ptrIS0_LN9__gnu_cxx12_Lock_policyE2EE8_DeleterISaIS0_EEES7_LS4_2EE14_M_get_deleterERKSt9type_info
002a58d4  w   DF .text	00000010 _ZNSt19_Sp_counted_deleterIP15ChunkViewSourceNSt12__shared_ptrIS0_LN9__gnu_cxx12_Lock_policyE2EE8_DeleterISaIS0_EEES7_LS4_2EED2Ev
002a58d4  w   DF .text	00000010 _ZNSt19_Sp_counted_deleterIP15ChunkViewSourceNSt12__shared_ptrIS0_LN9__gnu_cxx12_Lock_policyE2EE8_DeleterISaIS0_EEES7_LS4_2EED1Ev
002a58e4  w   DF .text	00000004 _ZNSt19_Sp_counted_deleterIP15ChunkViewSourceNSt12__shared_ptrIS0_LN9__gnu_cxx12_Lock_policyE2EE8_DeleterISaIS0_EEES7_LS4_2EE14_M_get_deleterERKSt9type_info
002a58e8  w   DF .text	00000010 _ZNSt19_Sp_counted_deleterIP9ZoomLayerNSt12__shared_ptrIS0_LN9__gnu_cxx12_Lock_policyE2EE8_DeleterISaIS0_EEES7_LS4_2EED2Ev
002a58e8  w   DF .text	00000010 _ZNSt19_Sp_counted_deleterIP9ZoomLayerNSt12__shared_ptrIS0_LN9__gnu_cxx12_Lock_policyE2EE8_DeleterISaIS0_EEES7_LS4_2EED1Ev
002a58f8  w   DF .text	00000004 _ZNSt19_Sp_counted_deleterIP9ZoomLayerNSt12__shared_ptrIS0_LN9__gnu_cxx12_Lock_policyE2EE8_DeleterISaIS0_EEES7_LS4_2EE14_M_get_deleterERKSt9type_info
002a58fc  w   DF .text	00000010 _ZNSt19_Sp_counted_deleterIP17SkinsPaneStandardNSt12__shared_ptrIS0_LN9__gnu_cxx12_Lock_policyE2EE8_DeleterISaIS0_EEES7_LS4_2EED2Ev
002a58fc  w   DF .text	00000010 _ZNSt19_Sp_counted_deleterIP17SkinsPaneStandardNSt12__shared_ptrIS0_LN9__gnu_cxx12_Lock_policyE2EE8_DeleterISaIS0_EEES7_LS4_2EED1Ev
002a590c  w   DF .text	00000004 _ZNSt19_Sp_counted_deleterIP17SkinsPaneStandardNSt12__shared_ptrIS0_LN9__gnu_cxx12_Lock_policyE2EE8_DeleterISaIS0_EEES7_LS4_2EE14_M_get_deleterERKSt9type_info
002a5910  w   DF .text	00000010 _ZNSt19_Sp_counted_deleterIP11BatchPacketNSt12__shared_ptrIS0_LN9__gnu_cxx12_Lock_policyE2EE8_DeleterISaIS0_EEES7_LS4_2EED2Ev
002a5910  w   DF .text	00000010 _ZNSt19_Sp_counted_deleterIP11BatchPacketNSt12__shared_ptrIS0_LN9__gnu_cxx12_Lock_policyE2EE8_DeleterISaIS0_EEES7_LS4_2EED1Ev
002a5920  w   DF .text	00000004 _ZNSt19_Sp_counted_deleterIP11BatchPacketNSt12__shared_ptrIS0_LN9__gnu_cxx12_Lock_policyE2EE8_DeleterISaIS0_EEES7_LS4_2EE14_M_get_deleterERKSt9type_info
002a5924  w   DF .text	00000010 _ZNSt19_Sp_counted_deleterIP7TextBoxNSt12__shared_ptrIS0_LN9__gnu_cxx12_Lock_policyE2EE8_DeleterISaIS0_EEES7_LS4_2EED2Ev
002a5924  w   DF .text	00000010 _ZNSt19_Sp_counted_deleterIP7TextBoxNSt12__shared_ptrIS0_LN9__gnu_cxx12_Lock_policyE2EE8_DeleterISaIS0_EEES7_LS4_2EED1Ev
002a5934  w   DF .text	00000004 _ZNSt19_Sp_counted_deleterIP7TextBoxNSt12__shared_ptrIS0_LN9__gnu_cxx12_Lock_policyE2EE8_DeleterISaIS0_EEES7_LS4_2EE14_M_get_deleterERKSt9type_info
002a5938  w   DF .text	00000010 _ZNSt19_Sp_counted_deleterIPN5Touch12HeaderButtonENSt12__shared_ptrIS1_LN9__gnu_cxx12_Lock_policyE2EE8_DeleterISaIS1_EEES8_LS5_2EED2Ev
002a5938  w   DF .text	00000010 _ZNSt19_Sp_counted_deleterIPN5Touch12HeaderButtonENSt12__shared_ptrIS1_LN9__gnu_cxx12_Lock_policyE2EE8_DeleterISaIS1_EEES8_LS5_2EED1Ev
002a5948  w   DF .text	00000004 _ZNSt19_Sp_counted_deleterIPN5Touch12HeaderButtonENSt12__shared_ptrIS1_LN9__gnu_cxx12_Lock_policyE2EE8_DeleterISaIS1_EEES8_LS5_2EE14_M_get_deleterERKSt9type_info
002a594c  w   DF .text	00000010 _ZNSt19_Sp_counted_deleterIPN5Touch7THeaderENSt12__shared_ptrIS1_LN9__gnu_cxx12_Lock_policyE2EE8_DeleterISaIS1_EEES8_LS5_2EED2Ev
002a594c  w   DF .text	00000010 _ZNSt19_Sp_counted_deleterIPN5Touch7THeaderENSt12__shared_ptrIS1_LN9__gnu_cxx12_Lock_policyE2EE8_DeleterISaIS1_EEES8_LS5_2EED1Ev
002a595c  w   DF .text	00000004 _ZNSt19_Sp_counted_deleterIPN5Touch7THeaderENSt12__shared_ptrIS1_LN9__gnu_cxx12_Lock_policyE2EE8_DeleterISaIS1_EEES8_LS5_2EE14_M_get_deleterERKSt9type_info
002a5960  w   DF .text	00000010 _ZNSt19_Sp_counted_deleterIP12TextureAtlasNSt12__shared_ptrIS0_LN9__gnu_cxx12_Lock_policyE2EE8_DeleterISaIS0_EEES7_LS4_2EED2Ev
002a5960  w   DF .text	00000010 _ZNSt19_Sp_counted_deleterIP12TextureAtlasNSt12__shared_ptrIS0_LN9__gnu_cxx12_Lock_policyE2EE8_DeleterISaIS0_EEES7_LS4_2EED1Ev
002a5970  w   DF .text	00000004 _ZNSt19_Sp_counted_deleterIP12TextureAtlasNSt12__shared_ptrIS0_LN9__gnu_cxx12_Lock_policyE2EE8_DeleterISaIS0_EEES7_LS4_2EE14_M_get_deleterERKSt9type_info
002a5974  w   DF .text	00000010 _ZNSt19_Sp_counted_deleterIP17AttributeModifierNSt12__shared_ptrIS0_LN9__gnu_cxx12_Lock_policyE2EE8_DeleterISaIS0_EEES7_LS4_2EED2Ev
002a5974  w   DF .text	00000010 _ZNSt19_Sp_counted_deleterIP17AttributeModifierNSt12__shared_ptrIS0_LN9__gnu_cxx12_Lock_policyE2EE8_DeleterISaIS0_EEES7_LS4_2EED1Ev
002a5984  w   DF .text	00000004 _ZNSt19_Sp_counted_deleterIP17AttributeModifierNSt12__shared_ptrIS0_LN9__gnu_cxx12_Lock_policyE2EE8_DeleterISaIS0_EEES7_LS4_2EE14_M_get_deleterERKSt9type_info
002a5988  w   DF .text	00000010 _ZNSt19_Sp_counted_deleterIP26InstantaneousAttributeBuffNSt12__shared_ptrIS0_LN9__gnu_cxx12_Lock_policyE2EE8_DeleterISaIS0_EEES7_LS4_2EED2Ev
002a5988  w   DF .text	00000010 _ZNSt19_Sp_counted_deleterIP26InstantaneousAttributeBuffNSt12__shared_ptrIS0_LN9__gnu_cxx12_Lock_policyE2EE8_DeleterISaIS0_EEES7_LS4_2EED1Ev
002a5998  w   DF .text	00000004 _ZNSt19_Sp_counted_deleterIP26InstantaneousAttributeBuffNSt12__shared_ptrIS0_LN9__gnu_cxx12_Lock_policyE2EE8_DeleterISaIS0_EEES7_LS4_2EE14_M_get_deleterERKSt9type_info
002a599c  w   DF .text	00000010 _ZNSt19_Sp_counted_deleterIP21TemporalAttributeBuffNSt12__shared_ptrIS0_LN9__gnu_cxx12_Lock_policyE2EE8_DeleterISaIS0_EEES7_LS4_2EED2Ev
002a599c  w   DF .text	00000010 _ZNSt19_Sp_counted_deleterIP21TemporalAttributeBuffNSt12__shared_ptrIS0_LN9__gnu_cxx12_Lock_policyE2EE8_DeleterISaIS0_EEES7_LS4_2EED1Ev
002a59ac  w   DF .text	00000004 _ZNSt19_Sp_counted_deleterIP21TemporalAttributeBuffNSt12__shared_ptrIS0_LN9__gnu_cxx12_Lock_policyE2EE8_DeleterISaIS0_EEES7_LS4_2EE14_M_get_deleterERKSt9type_info
002a59b0  w   DF .text	00000010 _ZNSt19_Sp_counted_deleterIP24ShiftedDurationAmplifierNSt12__shared_ptrIS0_LN9__gnu_cxx12_Lock_policyE2EE8_DeleterISaIS0_EEES7_LS4_2EED2Ev
002a59b0  w   DF .text	00000010 _ZNSt19_Sp_counted_deleterIP24ShiftedDurationAmplifierNSt12__shared_ptrIS0_LN9__gnu_cxx12_Lock_policyE2EE8_DeleterISaIS0_EEES7_LS4_2EED1Ev
002a59c0  w   DF .text	00000004 _ZNSt19_Sp_counted_deleterIP24ShiftedDurationAmplifierNSt12__shared_ptrIS0_LN9__gnu_cxx12_Lock_policyE2EE8_DeleterISaIS0_EEES7_LS4_2EE14_M_get_deleterERKSt9type_info
002a59c4  w   DF .text	00000010 _ZNSt19_Sp_counted_deleterIP22MultiplyValueAmplifierNSt12__shared_ptrIS0_LN9__gnu_cxx12_Lock_policyE2EE8_DeleterISaIS0_EEES7_LS4_2EED2Ev
002a59c4  w   DF .text	00000010 _ZNSt19_Sp_counted_deleterIP22MultiplyValueAmplifierNSt12__shared_ptrIS0_LN9__gnu_cxx12_Lock_policyE2EE8_DeleterISaIS0_EEES7_LS4_2EED1Ev
002a59d4  w   DF .text	00000004 _ZNSt19_Sp_counted_deleterIP22MultiplyValueAmplifierNSt12__shared_ptrIS0_LN9__gnu_cxx12_Lock_policyE2EE8_DeleterISaIS0_EEES7_LS4_2EE14_M_get_deleterERKSt9type_info
002a59d8  w   DF .text	00000010 _ZNSt19_Sp_counted_deleterIP21ShiftedValueAmplifierNSt12__shared_ptrIS0_LN9__gnu_cxx12_Lock_policyE2EE8_DeleterISaIS0_EEES7_LS4_2EED2Ev
002a59d8  w   DF .text	00000010 _ZNSt19_Sp_counted_deleterIP21ShiftedValueAmplifierNSt12__shared_ptrIS0_LN9__gnu_cxx12_Lock_policyE2EE8_DeleterISaIS0_EEES7_LS4_2EED1Ev
002a59e8  w   DF .text	00000004 _ZNSt19_Sp_counted_deleterIP21ShiftedValueAmplifierNSt12__shared_ptrIS0_LN9__gnu_cxx12_Lock_policyE2EE8_DeleterISaIS0_EEES7_LS4_2EE14_M_get_deleterERKSt9type_info
002a59ec  w   DF .text	00000010 _ZNSt19_Sp_counted_deleterIP11ProgressBarNSt12__shared_ptrIS0_LN9__gnu_cxx12_Lock_policyE2EE8_DeleterISaIS0_EEES7_LS4_2EED2Ev
002a59ec  w   DF .text	00000010 _ZNSt19_Sp_counted_deleterIP11ProgressBarNSt12__shared_ptrIS0_LN9__gnu_cxx12_Lock_policyE2EE8_DeleterISaIS0_EEES7_LS4_2EED1Ev
002a59fc  w   DF .text	00000004 _ZNSt19_Sp_counted_deleterIP11ProgressBarNSt12__shared_ptrIS0_LN9__gnu_cxx12_Lock_policyE2EE8_DeleterISaIS0_EEES7_LS4_2EE14_M_get_deleterERKSt9type_info
002a5a00  w   DF .text	00000010 _ZNSt19_Sp_counted_deleterIP11TextureDataNSt12__shared_ptrIS0_LN9__gnu_cxx12_Lock_policyE2EE8_DeleterISaIS0_EEES7_LS4_2EED2Ev
002a5a00  w   DF .text	00000010 _ZNSt19_Sp_counted_deleterIP11TextureDataNSt12__shared_ptrIS0_LN9__gnu_cxx12_Lock_policyE2EE8_DeleterISaIS0_EEES7_LS4_2EED1Ev
002a5a10  w   DF .text	00000004 _ZNSt19_Sp_counted_deleterIP11TextureDataNSt12__shared_ptrIS0_LN9__gnu_cxx12_Lock_policyE2EE8_DeleterISaIS0_EEES7_LS4_2EE14_M_get_deleterERKSt9type_info
002a5a14  w   DF .text	00000010 _ZNSt19_Sp_counted_deleterIP11ImageButtonNSt12__shared_ptrIS0_LN9__gnu_cxx12_Lock_policyE2EE8_DeleterISaIS0_EEES7_LS4_2EED2Ev
002a5a14  w   DF .text	00000010 _ZNSt19_Sp_counted_deleterIP11ImageButtonNSt12__shared_ptrIS0_LN9__gnu_cxx12_Lock_policyE2EE8_DeleterISaIS0_EEES7_LS4_2EED1Ev
002a5a24  w   DF .text	00000004 _ZNSt19_Sp_counted_deleterIP11ImageButtonNSt12__shared_ptrIS0_LN9__gnu_cxx12_Lock_policyE2EE8_DeleterISaIS0_EEES7_LS4_2EE14_M_get_deleterERKSt9type_info
002a5a28  w   DF .text	00000010 _ZNSt19_Sp_counted_deleterIP19BuySkinPackDialogueSt14default_deleteIS0_ESaIvELN9__gnu_cxx12_Lock_policyE2EED2Ev
002a5a28  w   DF .text	00000010 _ZNSt19_Sp_counted_deleterIP19BuySkinPackDialogueSt14default_deleteIS0_ESaIvELN9__gnu_cxx12_Lock_policyE2EED1Ev
002a5a38  w   DF .text	0000000e _ZNSt19_Sp_counted_deleterIP19BuySkinPackDialogueSt14default_deleteIS0_ESaIvELN9__gnu_cxx12_Lock_policyE2EE10_M_disposeEv
002a5a48  w   DF .text	00000004 _ZNSt19_Sp_counted_deleterIP19BuySkinPackDialogueSt14default_deleteIS0_ESaIvELN9__gnu_cxx12_Lock_policyE2EE14_M_get_deleterERKSt9type_info
002a5a4c  w   DF .text	00000010 _ZNSt19_Sp_counted_deleterIP23RestorePurchaseDialogueSt14default_deleteIS0_ESaIvELN9__gnu_cxx12_Lock_policyE2EED2Ev
002a5a4c  w   DF .text	00000010 _ZNSt19_Sp_counted_deleterIP23RestorePurchaseDialogueSt14default_deleteIS0_ESaIvELN9__gnu_cxx12_Lock_policyE2EED1Ev
002a5a5c  w   DF .text	0000000e _ZNSt19_Sp_counted_deleterIP23RestorePurchaseDialogueSt14default_deleteIS0_ESaIvELN9__gnu_cxx12_Lock_policyE2EE10_M_disposeEv
002a5a6c  w   DF .text	00000004 _ZNSt19_Sp_counted_deleterIP23RestorePurchaseDialogueSt14default_deleteIS0_ESaIvELN9__gnu_cxx12_Lock_policyE2EE14_M_get_deleterERKSt9type_info
002a5a70  w   DF .text	00000008 _ZN8TempEPtrI8VillagerE10invalidateEv
002a5a78  w   DF .text	00000008 _ZN8TempEPtrI9IronGolemE10invalidateEv
002a5a80  w   DF .text	0000001c _ZN15SkinInfoFactoryD0Ev
002a5a9c  w   DF .text	0000001c _ZN13GameCallbacksD0Ev
002a5ab8  w   DF .text	0000001c _ZN9VibrationD0Ev
002a5ad4  w   DF .text	0000001c _ZN34AbstractScreenSetupCleanupStrategyD0Ev
002a5af0  w   DF .text	0000001c _ZN12PacketSenderD0Ev
002a5b0c  w   DF .text	0000001c _ZN13HeartParticleD0Ev
002a5b28  w   DF .text	0000001c _ZN21SuspendedTownParticleD0Ev
002a5b44 g    DF .text	00000012 _ZN8GameModeD0Ev
002a5b58 g    DF .text	00000012 _ZN4Json6WriterD0Ev
002a5b6c  w   DF .text	0000001c _ZN7ControlD0Ev
002a5b88  w   DF .text	0000001c _ZN11LookControlD0Ev
002a5ba4 g    DF .text	00000012 _ZN12SkinInfoDataD0Ev
002a5bb8  w   DF .text	0000001c _ZN30HoloScreenSetupCleanupStrategyD0Ev
002a5bd4 g    DF .text	00000012 _ZN19ProgressBarRendererD0Ev
002a5be8  w   DF .text	0000001c _ZN14BubbleParticleD0Ev
002a5c04  w   DF .text	0000001c _ZN12CritParticleD0Ev
002a5c20  w   DF .text	0000001c _ZN13SmokeParticleD0Ev
002a5c3c  w   DF .text	0000001c _ZN15ExplodeParticleD0Ev
002a5c58  w   DF .text	0000001c _ZN13FlameParticleD0Ev
002a5c74  w   DF .text	0000001c _ZN12LavaParticleD0Ev
002a5c90  w   DF .text	0000001c _ZN15RedDustParticleD0Ev
002a5cac  w   DF .text	0000001c _ZN20BreakingItemParticleD0Ev
002a5cc8  w   DF .text	0000001c _ZN19FallingDustParticleD0Ev
002a5ce4  w   DF .text	0000001c _ZN13SpellParticleD0Ev
002a5d00  w   DF .text	0000001c _ZN11InkParticleD0Ev
002a5d1c  w   DF .text	0000001c _ZN21AngryVillagerParticleD0Ev
002a5d38  w   DF .text	0000001c _ZN21HappyVillagerParticleD0Ev
002a5d54  w   DF .text	0000001c _ZN16SquidMoveControlD0Ev
002a5d70  w   DF .text	0000001c _ZN6IntTagD0Ev
002a5d8c  w   DF .text	0000001c _ZN7ByteTagD0Ev
002a5da8  w   DF .text	0000001c _ZN17RabbitJumpControlD0Ev
002a5dc4  w   DF .text	0000001c _ZN17RabbitMoveControlD0Ev
002a5de0  w   DF .text	0000001c _ZN22SetSpawnPositionPacketD0Ev
002a5dfc  w   DF .text	0000001c _ZN17GroundBushFeatureD0Ev
002a5e18  w   DF .text	0000001c _ZN20TelemetryEventPacketD0Ev
002a5e34  w   DF .text	0000001c _ZN17RemoveBlockPacketD0Ev
002a5e50  w   DF .text	0000001c _ZN18PlayerActionPacketD0Ev
002a5e6c  w   DF .text	0000001c _ZN17JungleTreeFeatureD0Ev
002a5e88  w   DF .text	0000001c _ZN13SpruceFeatureD0Ev
002a5ea4  w   DF .text	0000001c _ZN13FlowerFeatureD0Ev
002a5ec0  w   DF .text	0000001c _ZNSt19_Sp_counted_deleterIP19BuySkinPackDialogueSt14default_deleteIS0_ESaIvELN9__gnu_cxx12_Lock_policyE2EED0Ev
002a5edc  w   DF .text	0000001c _ZNSt19_Sp_counted_deleterIP23RestorePurchaseDialogueSt14default_deleteIS0_ESaIvELN9__gnu_cxx12_Lock_policyE2EED0Ev
002a5ef8  w   DF .text	0000002c _ZN10FishRewardD0Ev
002a5f24  w   DF .text	00000038 _ZN13UseItemPacketD0Ev
002a5f5c g    DF .text	00000012 _ZN11ChunkSourceD0Ev
002a5f70  w   DF .text	00000014 _ZNSt10unique_ptrIN3mce21GlobalConstantBuffersESt14default_deleteIS1_EED2Ev
002a5f70  w   DF .text	00000014 _ZNSt10unique_ptrIN3mce21GlobalConstantBuffersESt14default_deleteIS1_EED1Ev
002a5f84  w   DF .text	00000010 _ZNSt6vectorIiSaIiEED2Ev
002a5f84  w   DF .text	00000010 _ZNSt6vectorIiSaIiEED1Ev
002a5fb4  w   DF .text	0000002c _ZN18RakNetPacketSenderD2Ev
005e4a98 g    DO .data.rel.ro	0000001c _ZTV18RakNetPacketSender
002a5fb4  w   DF .text	0000002c _ZN18RakNetPacketSenderD1Ev
002a5fe0  w   DF .text	00000034 _ZN18RakNetPacketSenderD0Ev
002a6014  w   DF .text	00000010 _ZNSt6vectorIN13PotionBrewing3MixIP4ItemEESaIS4_EED2Ev
002a6014  w   DF .text	00000010 _ZNSt6vectorIN13PotionBrewing3MixIP4ItemEESaIS4_EED1Ev
002a6024  w   DF .text	00000010 _ZNSt6vectorIN13PotionBrewing10IngredientESaIS1_EED2Ev
002a6024  w   DF .text	00000010 _ZNSt6vectorIN13PotionBrewing10IngredientESaIS1_EED1Ev
002a6034  w   DF .text	00000010 _ZNSt6vectorI11MouseActionSaIS0_EED2Ev
002a6034  w   DF .text	00000010 _ZNSt6vectorI11MouseActionSaIS0_EED1Ev
002a6044  w   DF .text	0000001c _ZNSt19_Sp_counted_deleterIP11ImageButtonNSt12__shared_ptrIS0_LN9__gnu_cxx12_Lock_policyE2EE8_DeleterISaIS0_EEES7_LS4_2EED0Ev
002a6060  w   DF .text	0000001c _ZNSt19_Sp_counted_deleterIP11TextureDataNSt12__shared_ptrIS0_LN9__gnu_cxx12_Lock_policyE2EE8_DeleterISaIS0_EEES7_LS4_2EED0Ev
002a607c  w   DF .text	0000001c _ZNSt19_Sp_counted_deleterIP11ProgressBarNSt12__shared_ptrIS0_LN9__gnu_cxx12_Lock_policyE2EE8_DeleterISaIS0_EEES7_LS4_2EED0Ev
002a6098  w   DF .text	0000001c _ZNSt19_Sp_counted_deleterIP21ShiftedValueAmplifierNSt12__shared_ptrIS0_LN9__gnu_cxx12_Lock_policyE2EE8_DeleterISaIS0_EEES7_LS4_2EED0Ev
002a60b4  w   DF .text	0000001c _ZNSt19_Sp_counted_deleterIP22MultiplyValueAmplifierNSt12__shared_ptrIS0_LN9__gnu_cxx12_Lock_policyE2EE8_DeleterISaIS0_EEES7_LS4_2EED0Ev
002a60d0  w   DF .text	0000001c _ZNSt19_Sp_counted_deleterIP24ShiftedDurationAmplifierNSt12__shared_ptrIS0_LN9__gnu_cxx12_Lock_policyE2EE8_DeleterISaIS0_EEES7_LS4_2EED0Ev
002a60ec  w   DF .text	0000001c _ZNSt19_Sp_counted_deleterIP21TemporalAttributeBuffNSt12__shared_ptrIS0_LN9__gnu_cxx12_Lock_policyE2EE8_DeleterISaIS0_EEES7_LS4_2EED0Ev
002a6108  w   DF .text	0000001c _ZNSt19_Sp_counted_deleterIP26InstantaneousAttributeBuffNSt12__shared_ptrIS0_LN9__gnu_cxx12_Lock_policyE2EE8_DeleterISaIS0_EEES7_LS4_2EED0Ev
002a6124  w   DF .text	0000001c _ZNSt19_Sp_counted_deleterIP17AttributeModifierNSt12__shared_ptrIS0_LN9__gnu_cxx12_Lock_policyE2EE8_DeleterISaIS0_EEES7_LS4_2EED0Ev
002a6140  w   DF .text	0000001c _ZNSt19_Sp_counted_deleterIP12TextureAtlasNSt12__shared_ptrIS0_LN9__gnu_cxx12_Lock_policyE2EE8_DeleterISaIS0_EEES7_LS4_2EED0Ev
002a615c  w   DF .text	0000001c _ZNSt19_Sp_counted_deleterIPN5Touch7THeaderENSt12__shared_ptrIS1_LN9__gnu_cxx12_Lock_policyE2EE8_DeleterISaIS1_EEES8_LS5_2EED0Ev
002a6178  w   DF .text	0000001c _ZNSt19_Sp_counted_deleterIPN5Touch12HeaderButtonENSt12__shared_ptrIS1_LN9__gnu_cxx12_Lock_policyE2EE8_DeleterISaIS1_EEES8_LS5_2EED0Ev
002a6194  w   DF .text	0000001c _ZNSt19_Sp_counted_deleterIP7TextBoxNSt12__shared_ptrIS0_LN9__gnu_cxx12_Lock_policyE2EE8_DeleterISaIS0_EEES7_LS4_2EED0Ev
002a61b0  w   DF .text	0000001c _ZNSt19_Sp_counted_deleterIP11BatchPacketNSt12__shared_ptrIS0_LN9__gnu_cxx12_Lock_policyE2EE8_DeleterISaIS0_EEES7_LS4_2EED0Ev
002a61cc  w   DF .text	0000001c _ZNSt19_Sp_counted_deleterIP17SkinsPaneStandardNSt12__shared_ptrIS0_LN9__gnu_cxx12_Lock_policyE2EE8_DeleterISaIS0_EEES7_LS4_2EED0Ev
002a61e8  w   DF .text	0000001c _ZNSt19_Sp_counted_deleterIP9ZoomLayerNSt12__shared_ptrIS0_LN9__gnu_cxx12_Lock_policyE2EE8_DeleterISaIS0_EEES7_LS4_2EED0Ev
002a6204  w   DF .text	0000001c _ZNSt19_Sp_counted_deleterIP15ChunkViewSourceNSt12__shared_ptrIS0_LN9__gnu_cxx12_Lock_policyE2EE8_DeleterISaIS0_EEES7_LS4_2EED0Ev
002a6220  w   DF .text	0000001c _ZNSt19_Sp_counted_deleterIP12OptionsGroupNSt12__shared_ptrIS0_LN9__gnu_cxx12_Lock_policyE2EE8_DeleterISaIS0_EEES7_LS4_2EED0Ev
00646518 g    DO .bss	000001e0 _ZN10Multitouch9_pointersE
002a6260  w   DF .text	00000014 _ZNSt19_Sp_counted_deleterIP12OptionsGroupNSt12__shared_ptrIS0_LN9__gnu_cxx12_Lock_policyE2EE8_DeleterISaIS0_EEES7_LS4_2EE10_M_destroyEv
002a6274  w   DF .text	00000014 _ZNSt19_Sp_counted_deleterIP15ChunkViewSourceNSt12__shared_ptrIS0_LN9__gnu_cxx12_Lock_policyE2EE8_DeleterISaIS0_EEES7_LS4_2EE10_M_destroyEv
002a6288  w   DF .text	00000014 _ZNSt19_Sp_counted_deleterIP9ZoomLayerNSt12__shared_ptrIS0_LN9__gnu_cxx12_Lock_policyE2EE8_DeleterISaIS0_EEES7_LS4_2EE10_M_destroyEv
002a629c  w   DF .text	00000014 _ZNSt19_Sp_counted_deleterIP17SkinsPaneStandardNSt12__shared_ptrIS0_LN9__gnu_cxx12_Lock_policyE2EE8_DeleterISaIS0_EEES7_LS4_2EE10_M_destroyEv
002a62b0  w   DF .text	00000014 _ZNSt19_Sp_counted_deleterIP11BatchPacketNSt12__shared_ptrIS0_LN9__gnu_cxx12_Lock_policyE2EE8_DeleterISaIS0_EEES7_LS4_2EE10_M_destroyEv
002a62c4  w   DF .text	00000014 _ZNSt19_Sp_counted_deleterIP7TextBoxNSt12__shared_ptrIS0_LN9__gnu_cxx12_Lock_policyE2EE8_DeleterISaIS0_EEES7_LS4_2EE10_M_destroyEv
002a62d8  w   DF .text	00000014 _ZNSt19_Sp_counted_deleterIPN5Touch12HeaderButtonENSt12__shared_ptrIS1_LN9__gnu_cxx12_Lock_policyE2EE8_DeleterISaIS1_EEES8_LS5_2EE10_M_destroyEv
002a62ec  w   DF .text	00000014 _ZNSt19_Sp_counted_deleterIPN5Touch7THeaderENSt12__shared_ptrIS1_LN9__gnu_cxx12_Lock_policyE2EE8_DeleterISaIS1_EEES8_LS5_2EE10_M_destroyEv
002a6300  w   DF .text	00000014 _ZNSt19_Sp_counted_deleterIP12TextureAtlasNSt12__shared_ptrIS0_LN9__gnu_cxx12_Lock_policyE2EE8_DeleterISaIS0_EEES7_LS4_2EE10_M_destroyEv
002a6314  w   DF .text	00000014 _ZNSt19_Sp_counted_deleterIP17AttributeModifierNSt12__shared_ptrIS0_LN9__gnu_cxx12_Lock_policyE2EE8_DeleterISaIS0_EEES7_LS4_2EE10_M_destroyEv
002a6328  w   DF .text	00000014 _ZNSt19_Sp_counted_deleterIP26InstantaneousAttributeBuffNSt12__shared_ptrIS0_LN9__gnu_cxx12_Lock_policyE2EE8_DeleterISaIS0_EEES7_LS4_2EE10_M_destroyEv
002a633c  w   DF .text	00000014 _ZNSt19_Sp_counted_deleterIP21TemporalAttributeBuffNSt12__shared_ptrIS0_LN9__gnu_cxx12_Lock_policyE2EE8_DeleterISaIS0_EEES7_LS4_2EE10_M_destroyEv
002a6350  w   DF .text	00000014 _ZNSt19_Sp_counted_deleterIP24ShiftedDurationAmplifierNSt12__shared_ptrIS0_LN9__gnu_cxx12_Lock_policyE2EE8_DeleterISaIS0_EEES7_LS4_2EE10_M_destroyEv
002a6364  w   DF .text	00000014 _ZNSt19_Sp_counted_deleterIP22MultiplyValueAmplifierNSt12__shared_ptrIS0_LN9__gnu_cxx12_Lock_policyE2EE8_DeleterISaIS0_EEES7_LS4_2EE10_M_destroyEv
002a6378  w   DF .text	00000014 _ZNSt19_Sp_counted_deleterIP21ShiftedValueAmplifierNSt12__shared_ptrIS0_LN9__gnu_cxx12_Lock_policyE2EE8_DeleterISaIS0_EEES7_LS4_2EE10_M_destroyEv
002a638c  w   DF .text	00000014 _ZNSt19_Sp_counted_deleterIP11ProgressBarNSt12__shared_ptrIS0_LN9__gnu_cxx12_Lock_policyE2EE8_DeleterISaIS0_EEES7_LS4_2EE10_M_destroyEv
002a63a0  w   DF .text	00000014 _ZNSt19_Sp_counted_deleterIP11TextureDataNSt12__shared_ptrIS0_LN9__gnu_cxx12_Lock_policyE2EE8_DeleterISaIS0_EEES7_LS4_2EE10_M_destroyEv
002a63b4  w   DF .text	00000014 _ZNSt19_Sp_counted_deleterIP11ImageButtonNSt12__shared_ptrIS0_LN9__gnu_cxx12_Lock_policyE2EE8_DeleterISaIS0_EEES7_LS4_2EE10_M_destroyEv
002a63c8  w   DF .text	00000014 _ZNSt19_Sp_counted_deleterIP19BuySkinPackDialogueSt14default_deleteIS0_ESaIvELN9__gnu_cxx12_Lock_policyE2EE10_M_destroyEv
002a63dc  w   DF .text	00000014 _ZNSt19_Sp_counted_deleterIP23RestorePurchaseDialogueSt14default_deleteIS0_ESaIvELN9__gnu_cxx12_Lock_policyE2EE10_M_destroyEv
002a63f0  w   DF .text	0000001c _ZN7SpinnerD2Ev
005e60c8 g    DO .data.rel.ro	00000070 _ZTV7Spinner
002a63f0  w   DF .text	0000001c _ZN7SpinnerD1Ev
002a640c  w   DF .text	00000020 _ZN7SpinnerD0Ev
005e1e28 g    DO .data.rel.ro	0000003c _ZTV5Model
002a642c g    DF .text	00000070 _ZN5ModelD1Ev
002a649c g    DF .text	00000012 _ZN5ModelD0Ev
002a64b0 g    DF .text	00000018 _ZNK6IntTag6equalsERK3Tag
002a64c8 g    DF .text	00000018 _ZNK7ByteTag6equalsERK3Tag
002a64e0 g    DF .text	0000001c _ZN10Silverfish13_getHurtSoundEv
002a64fc g    DF .text	0000001c _ZN10Silverfish14_getDeathSoundEv
002a6518 g    DF .text	0000001c _ZN5Squid13_getHurtSoundEv
002a6534 g    DF .text	0000001c _ZN5Squid14_getDeathSoundEv
002a6550 g    DF .text	0000001c _ZN3Cow13_getHurtSoundEv
002a656c g    DF .text	0000001c _ZN3Cow14_getDeathSoundEv
002a6588 g    DF .text	0000001c _ZN6Spider13_getHurtSoundEv
002a65a4 g    DF .text	0000001c _ZN6Spider14_getDeathSoundEv
002a65c0 g    DF .text	0000001c _ZN6Rabbit13_getHurtSoundEv
002a65dc g    DF .text	0000001c _ZN6Rabbit14_getDeathSoundEv
002a65f8 g    DF .text	0000001c _ZN8Skeleton13_getHurtSoundEv
002a6614 g    DF .text	0000001c _ZN8Skeleton14_getDeathSoundEv
002a6630 g    DF .text	0000004a _ZN14TextEditScreen20onBlockEntityRemovedER11BlockSourceSt10unique_ptrI11BlockEntitySt14default_deleteIS3_EE
005182f4 g    DF .text	000000ba _ZN11BlockSource14removeListenerER19BlockSourceListener
002a667c g    DF .text	00000008 _ZThn160_N14TextEditScreen20onBlockEntityRemovedER11BlockSourceSt10unique_ptrI11BlockEntitySt14default_deleteIS3_EE
002a6684 g    DF .text	00000054 _ZN14TextEditScreen19onSetKeyboardHeightEf
0068a104 g    DO .bss	00000004 _ZN11AppPlatform10mSingletonE
002a66d8 g    DF .text	00000004 _ZN10Silverfish10normalTickEv
004fcb0c g    DF .text	00000026 _ZN7Monster10normalTickEv
002a66dc g    DF .text	00000018 _ZN8Skeleton15getRidingHeightEv
002a66f4 g    DF .text	0000001c _ZNK6Spider15getShadowRadiusEv
002a6710 g    DF .text	00000004 _ZN10Silverfish6aiStepEv
004fad44 g    DF .text	0000003c _ZN7Monster6aiStepEv
002a6714 g    DF .text	00000004 _ZN6Spider6aiStepEv
002a6718 g    DF .text	00000036 _ZN10Silverfish16findAttackTargetEv
002a6750 g    DF .text	00000036 _ZN6Spider16findAttackTargetEv
002a6788 g    DF .text	00000028 _ZN5Squid18registerAttributesEv
002a67b0 g    DF .text	00000028 _ZN10CaveSpider18registerAttributesEv
002a67d8 g    DF .text	00000064 _ZN10Silverfish18registerAttributesEv
006468ac g    DO .bss	00000014 _ZN16SharedAttributes13ATTACK_DAMAGEE
002a683c g    DF .text	00000028 _ZN9LavaSlime18registerAttributesEv
002a6864 g    DF .text	0000004c _ZN3Cow18registerAttributesEv
002a68b0 g    DF .text	0000004c _ZN6Spider18registerAttributesEv
002a68fc g    DF .text	0000004c _ZN6Rabbit18registerAttributesEv
002a6948 g    DF .text	00000048 _ZN8Skeleton18registerAttributesEv
002a6990  w   DF .text	0000001c _ZN28SilverfishMergeWithStoneGoalD2Ev
002a6990  w   DF .text	0000001c _ZN28SilverfishMergeWithStoneGoalD1Ev
002a69ac  w   DF .text	00000020 _ZN28SilverfishMergeWithStoneGoalD0Ev
002a69cc  w   DF .text	0000001c _ZN16SpiderTargetGoalD2Ev
002a69cc  w   DF .text	0000001c _ZN16SpiderTargetGoalD1Ev
002a69e8  w   DF .text	00000020 _ZN16SpiderTargetGoalD0Ev
002a6a08  w   DF .text	0000001c _ZN14RaidGardenGoalD2Ev
005fc160 g    DO .data.rel.ro	00000038 _ZTV15MoveToBlockGoal
002a6a08  w   DF .text	0000001c _ZN14RaidGardenGoalD1Ev
002a6a24  w   DF .text	00000020 _ZN14RaidGardenGoalD0Ev
002a6a44  w   DF .text	0000001c _ZN15RabbitPanicGoalD2Ev
005f1930 g    DO .data.rel.ro	0000002c _ZTV9PanicGoal
002a6a44  w   DF .text	0000001c _ZN15RabbitPanicGoalD1Ev
002a6a60  w   DF .text	00000020 _ZN15RabbitPanicGoalD0Ev
002a6a80  w   DF .text	0000001c _ZN9FloatGoalD2Ev
005e1c70 g    DO .data.rel.ro	0000002c _ZTV9FloatGoal
002a6a80  w   DF .text	0000001c _ZN9FloatGoalD1Ev
002a6a9c  w   DF .text	00000020 _ZN9FloatGoalD0Ev
002a6abc  w   DF .text	0000001c _ZN27SilverfishWakeUpFriendsGoalD2Ev
005e1c10 g    DO .data.rel.ro	0000002c _ZTV27SilverfishWakeUpFriendsGoal
002a6abc  w   DF .text	0000001c _ZN27SilverfishWakeUpFriendsGoalD1Ev
002a6ad8  w   DF .text	00000020 _ZN27SilverfishWakeUpFriendsGoalD0Ev
002a6af8  w   DF .text	0000001c _ZN27SquidMoveAwayFromGroundGoalD2Ev
005e2c80 g    DO .data.rel.ro	0000002c _ZTV27SquidMoveAwayFromGroundGoal
002a6af8  w   DF .text	0000001c _ZN27SquidMoveAwayFromGroundGoalD1Ev
002a6b14  w   DF .text	00000020 _ZN27SquidMoveAwayFromGroundGoalD0Ev
002a6b34  w   DF .text	0000001c _ZN13SquidFleeGoalD2Ev
005e2c50 g    DO .data.rel.ro	0000002c _ZTV13SquidFleeGoal
002a6b34  w   DF .text	0000001c _ZN13SquidFleeGoalD1Ev
002a6b50  w   DF .text	00000020 _ZN13SquidFleeGoalD0Ev
002a6b70  w   DF .text	0000001c _ZN13SquidIdleGoalD2Ev
005e2c20 g    DO .data.rel.ro	0000002c _ZTV13SquidIdleGoal
002a6b70  w   DF .text	0000001c _ZN13SquidIdleGoalD1Ev
002a6b8c  w   DF .text	00000020 _ZN13SquidIdleGoalD0Ev
002a6bac  w   DF .text	0000001c _ZN13SquidDiveGoalD2Ev
005e2ce0 g    DO .data.rel.ro	0000002c _ZTV13SquidDiveGoal
002a6bac  w   DF .text	0000001c _ZN13SquidDiveGoalD1Ev
002a6bc8  w   DF .text	00000020 _ZN13SquidDiveGoalD0Ev
002a6be8  w   DF .text	0000001c _ZN19SquidOutOfWaterGoalD2Ev
005e2cb0 g    DO .data.rel.ro	0000002c _ZTV19SquidOutOfWaterGoal
002a6be8  w   DF .text	0000001c _ZN19SquidOutOfWaterGoalD1Ev
002a6c04  w   DF .text	00000020 _ZN19SquidOutOfWaterGoalD0Ev
002a6c24  w   DF .text	0000001c _ZN15RecieveLoveGoalD2Ev
005e62f0 g    DO .data.rel.ro	0000002c _ZTV15RecieveLoveGoal
002a6c24  w   DF .text	0000001c _ZN15RecieveLoveGoalD1Ev
002a6c40  w   DF .text	00000020 _ZN15RecieveLoveGoalD0Ev
002a6c60 g    DF .text	0000000e _ZN28SilverfishMergeWithStoneGoal16canContinueToUseEv
002a6c70  w   DF .text	00000090 _ZN14RaidGardenGoal13isValidTargetER11BlockSourceRK8BlockPos
006ac0ac g    DO .bss	00000004 _ZN5Block9mFarmlandE
006abf84 g    DO .bss	00000004 _ZN5Block11mCarrotCropE
006abf80 g    DO .bss	00000004 _ZN5Block11mPotatoCropE
006abef0 g    DO .bss	00000004 _ZN5Block13mBeetrootCropE
002a6d00  w   DF .text	00000032 _ZNSt13unordered_setIiSt4hashIiESt8equal_toIiESaIiEED2Ev
002a6d00  w   DF .text	00000032 _ZNSt13unordered_setIiSt4hashIiESt8equal_toIiESaIiEED1Ev
002a6d34  w   DF .text	00000014 _ZNSt19_Sp_counted_deleterIP11TextureDataNSt12__shared_ptrIS0_LN9__gnu_cxx12_Lock_policyE2EE8_DeleterISaIS0_EEES7_LS4_2EE10_M_disposeEv
0047faac g    DF .text	000000c0 _ZN11TextureDataD1Ev
0036440c g    DF .text	00000120 _ZN11AppPlatform9loadImageER9ImageDataRKSsb
002a6d68 g    DF .text	00000006 _ZN21PauseScreenController20handleLicenseChangedEv
0046dd34 g    DF .text	00000010 _ZN20MinecraftScreenModel21navigateToPauseScreenEv
002a6d70 g    DF .text	000000bc _ZN18DownfallMixerLayer8fillAreaER9LayerDataiiii
00497e08 g    DF .text	0000002c _ZN5Biome8getBiomeEiPS_
00498728 g    DF .text	0000001c _ZN5Biome14getDownfallIntEv
006ae918 g    DO .bss	00000004 _ZN5Biome7DEFAULTE
002a6e2c g    DF .text	0000010c _ZN17AddDeepOceanLayer8fillAreaER9LayerDataiiii
006ae9ac g    DO .bss	00000004 _ZN5Biome9deepOceanE
002a6f38 g    DF .text	00000024 _ZN11TessellatorD2Ev
005e1500 g    DO .data.rel.ro	00000014 _ZTV11Tessellator
002a6f38 g    DF .text	00000024 _ZN11TessellatorD1Ev
002a6f5c g    DF .text	00000012 _ZN11TessellatorD0Ev
002a6f70  w   DF .text	00000040 _ZN13FlameParticle6renderER11Tessellatorffffff
002a6fb0  w   DF .text	00000038 _ZN12LavaParticle6renderER11Tessellatorffffff
002a6fe8  w   DF .text	00000064 _ZN15RedDustParticle6renderER11Tessellatorffffff
002a704c g    DF .text	00000064 _ZN13HeartParticle6renderER11Tessellatorffffff
002a70b0 g    DF .text	000000a4 _ZN13HeartParticle10normalTickEv
002a7154  w   DF .text	00000098 _ZN12CritParticle10normalTickEv
002a71ec  w   DF .text	00000070 _ZN13FlameParticle10normalTickEv
002a725c  w   DF .text	000000b8 _ZN13SmokeParticle10normalTickEv
002a7314  w   DF .text	00000078 _ZN19FallingDustParticle10normalTickEv
002a738c g    DF .text	00000006 _ZN16MinecartRenderer11renderDebugER6EntityR7Options
00421610 g    DF .text	00000006 _ZNK7Options25getDevRenderBoundingBoxesEv
002a7394 g    DF .text	00000026 _ZN8Skeleton8rideTickEv
002a73d8 g    DF .text	00000068 _ZN16SpiderAttackGoal18_getAttackReachSqrEv
002a7440  w   DF .text	0000001c _ZN6DialogD2Ev
005e0838  w   DO .data.rel.ro	00000080 _ZTV6Dialog
002a7440  w   DF .text	0000001c _ZN6DialogD1Ev
002a745c  w   DF .text	00000020 _ZN6DialogD0Ev
002a747c g    DF .text	00000076 _ZN23RestorePurchaseDialogue14setupPositionsEv
002a74f4 g    DF .text	00000018 _ZNK17RedstoneLampBlock14asItemInstanceER11BlockSourceRK8BlockPosi
002a750c g    DF .text	00000018 _ZN17RedstoneLampBlock24getSilkTouchItemInstanceEh
002a7524 g    DF .text	00000018 _ZNK21DaylightDetectorBlock14asItemInstanceER11BlockSourceRK8BlockPosi
002a753c g    DF .text	00000018 _ZN21DaylightDetectorBlock24getSilkTouchItemInstanceEh
002a7554 g    DF .text	0000001c _ZNK13TrapDoorBlock14asItemInstanceER11BlockSourceRK8BlockPosi
002a7570 g    DF .text	0000001c _ZN13TrapDoorBlock7onPlaceER11BlockSourceRK8BlockPos
002a758c g    DF .text	0000001c _ZN17RedstoneLampBlock7onPlaceER11BlockSourceRK8BlockPos
002a75a8 g    DF .text	0000001c _ZN9NoteBlock7onPlaceER11BlockSourceRK8BlockPos
00000000      DF *UND*	00000000 _ZNSt6chrono3_V212steady_clock3nowEv
002a7614 g    DF .text	00000022 _ZN33CraftingInventoryScreenController6onExitEv
00448248 g    DF .text	000000f4 _ZN20MinecraftScreenModel24dropItemsFromIngredientsEv
002a7638 g    DF .text	00000014 _ZN33CraftingInventoryScreenController6onOpenEv
002a764c g    DF .text	0000000a _ZN9LavaSlime12getJumpDelayEv
00492d64 g    DF .text	00000164 _ZN5Slime12getJumpDelayEv
002a7658 g    DF .text	00000040 _ZN9LavaSlime12setSlimeSizeEi
0048a63c g    DF .text	00000110 _ZN5Slime12setSlimeSizeEi
002a7698 g    DF .text	00000048 _ZN9LavaSlime8canSpawnEb
0053ac14 g    DF .text	00000048 _ZN11BlockSource24isUnobstructedByEntitiesERK4AABBP6Entity
002a76e0 g    DF .text	0000000c _ZN9LavaSlime13getArmorValueEv
0049c898 g    DF .text	0000000c _ZNK5Slime12getSlimeSizeEv
002a76ec g    DF .text	0000002c _ZN9LavaSlime14jumpFromGroundEv
002a7718 g    DF .text	00000030 _ZN9LavaSlime14getSquishSoundEv
002a7748 g    DF .text	00000006 _ZN17SnowGolemRenderer14onAppSuspendedEv
00437908 g    DF .text	00000038 _ZN3mce4Mesh5resetEv
002a7750 g    DF .text	00000008 _ZThn180_N17SnowGolemRenderer14onAppSuspendedEv
002a7758 g    DF .text	00000008 _ZN12BoatRenderer14onAppSuspendedEv
002a7760 g    DF .text	00000008 _ZThn128_N12BoatRenderer14onAppSuspendedEv
002a7788  w   DF .text	00000170 _ZN13SpellParticle4initERK4Vec3S2_iR14ParticleEngine
002a78f8  w   DF .text	000000f8 _ZN12CritParticle4initERK4Vec3S2_iR14ParticleEngine
002a79f0  w   DF .text	0000013c _ZN15RedDustParticle4initERK4Vec3S2_iR14ParticleEngine
002a7b30  w   DF .text	000000e0 _ZN13SmokeParticle4initERK4Vec3S2_iR14ParticleEngine
002a7c10  w   DF .text	000000f0 _ZN11InkParticle4initERK4Vec3S2_iR14ParticleEngine
002a7d00  w   DF .text	0000010c _ZN19FallingDustParticle4initERK4Vec3S2_iR14ParticleEngine
002a7e0c  w   DF .text	00000094 _ZN19FallingDustParticle21getParticleLightColorEf
00519c00 g    DF .text	000000bc _ZN11BlockSource13getLightColorERK8BlockPosi
00424328 g    DF .text	00000278 _ZN12LightTexture13getColorForUVEj
002a7ea0  w   DF .text	00000168 _ZN13SpellParticle10normalTickEv
002a8008  w   DF .text	0000008c _ZN14BubbleParticle10normalTickEv
002a8094  w   DF .text	000000d4 _ZN11InkParticle10normalTickEv
002a8168  w   DF .text	00000084 _ZN20BreakingItemParticle4initERK4Vec3S2_iR14ParticleEngine
004ac2dc g    DF .text	00000004 _ZN5Block10getGravityEv
006ac05c g    DO .bss	00000004 _ZN5Block5mSnowE
0050cd2c g    DF .text	00000052 _ZN6Player8interactER6Entity
003dac28 g    DF .text	00000004 _ZNK9Inventory15getSelectedSlotEv
002a825c g    DF .text	0000000c _ZNK11PortalBlock14asItemInstanceER11BlockSourceRK8BlockPosi
002a8268 g    DF .text	00000016 _ZNK7ByteTag8toStringEv
00000000      DF *UND*	00000000 _ZNSsC1EjcRKSaIcE
002a8280  w   DF .text	0000002c _ZN9SignModelD2Ev
005e0fb0  w   DO .data.rel.ro	0000003c _ZTV9SignModel
002a8280  w   DF .text	0000002c _ZN9SignModelD1Ev
002a82ac  w   DF .text	00000038 _ZN10SquidModelD2Ev
005e4410 g    DO .data.rel.ro	0000003c _ZTV10SquidModel
002a82ac  w   DF .text	00000038 _ZN10SquidModelD1Ev
002a82e4 g    DF .text	00000104 _ZN22VillagerZombieRenderer6renderER6EntityRK4Vec3ff
0037c8ec g    DF .text	0000000c _ZN14ZombieVillager13getProfessionEv
003ddadc g    DF .text	00000038 _ZN19EntityShaderManager22_setupShaderParametersER6EntityRK5ColorS4_f
00433a4c g    DF .text	000004b2 _ZN11MobRenderer11renderModelER5ModelRKN3mce10TexturePtrER6EntityRK4Vec3ff
00646978 g    DO .bss	00000050 professionColors
002a83e8 g    DF .text	0000009c _ZN22VillagerZombieRenderer14setupRotationsER6EntityffR6Matrixf
0037c290 g    DF .text	00000014 _ZN14ZombieVillager12isConvertingEv
002a8484 g    DF .text	00000018 _ZNK9SignBlock14asItemInstanceER11BlockSourceRK8BlockPosi
002a849c g    DF .text	0000001c _ZNK10CocoaBlock14asItemInstanceER11BlockSourceRK8BlockPosi
00322958 g    DF .text	00000014 _ZN12ItemInstanceC1EPK4Itemii
002a84b8 g    DF .text	00000050 _ZN13SquidFleeGoal6canUseEv
002a8508 g    DF .text	0000000e _ZN3Cow10normalTickEv
002a8518 g    DF .text	00000004 _ZN5Squid10normalTickEv
00412728 g    DF .text	00000078 _ZN11WaterAnimal10normalTickEv
002a851c g    DF .text	00000058 _ZN5Squid8canSpawnEb
00427980 g    DF .text	00000004 _ZN5Level11getSeaLevelEv
003a8700 g    DF .text	00000016 _ZN11WaterAnimal8canSpawnEb
002a8574 g    DF .text	0000007c _ZN3Cow15canInteractWithER6Player
006ad0fc g    DO .bss	00000004 _ZN4Item6mWheatE
005a8c64 g    DO .rodata	00000004 _ZN10BucketItem12BUCKET_EMPTYE
002a85f0 g    DF .text	00000004 _ZN3Cow22readAdditionalSaveDataERK11CompoundTag
0041e0b4 g    DF .text	00000068 _ZN6Animal22readAdditionalSaveDataERK11CompoundTag
002a85f4 g    DF .text	00000004 _ZN3Cow21addAdditionalSaveDataER11CompoundTag
0041e04c g    DF .text	00000068 _ZN6Animal21addAdditionalSaveDataER11CompoundTag
002a85f8 g    DF .text	00000044 _ZN11MushroomCow15canInteractWithER6Player
003b9fe8 g    DF .text	00000006 _ZN9AgableMob6getAgeEv
006acfac g    DO .bss	00000004 _ZN4Item7mShearsE
002a863c g    DF .text	000000b8 _ZN3Cow18interactWithPlayerER6Player
005a8c68 g    DO .rodata	00000004 _ZN10BucketItem11BUCKET_MILKE
002a86f4  w   DF .text	0000001c _ZN9SignBlockD2Ev
002a86f4  w   DF .text	0000001c _ZN9SignBlockD1Ev
002a8710  w   DF .text	00000020 _ZN9SignBlockD0Ev
002a8730  w   DF .text	0000001c _ZN9NoteBlockD2Ev
002a8730  w   DF .text	0000001c _ZN9NoteBlockD1Ev
002a874c  w   DF .text	00000020 _ZN9NoteBlockD0Ev
002a876c  w   DF .text	0000001c _ZN21DaylightDetectorBlockD2Ev
002a876c  w   DF .text	0000001c _ZN21DaylightDetectorBlockD1Ev
002a8788  w   DF .text	00000020 _ZN21DaylightDetectorBlockD0Ev
002a87a8  w   DF .text	0000001c _ZN13HayBlockBlockD2Ev
005e7450 g    DO .data.rel.ro	00000170 _ZTV18RotatedPillarBlock
002a87a8  w   DF .text	0000001c _ZN13HayBlockBlockD1Ev
002a87c4  w   DF .text	00000020 _ZN13HayBlockBlockD0Ev
002a87e4  w   DF .text	0000001c _ZN16DirectionalBlockD2Ev
005e0cc8  w   DO .data.rel.ro	0000016c _ZTV16DirectionalBlock
002a87e4  w   DF .text	0000001c _ZN16DirectionalBlockD1Ev
002a8800  w   DF .text	00000020 _ZN16DirectionalBlockD0Ev
002a8820  w   DF .text	0000001c _ZN20HalfTransparentBlockD2Ev
005e0b58  w   DO .data.rel.ro	0000016c _ZTV20HalfTransparentBlock
002a8820  w   DF .text	0000001c _ZN20HalfTransparentBlockD1Ev
002a883c  w   DF .text	00000020 _ZN20HalfTransparentBlockD0Ev
002a885c  w   DF .text	0000001c _ZN11PortalBlockD2Ev
002a885c  w   DF .text	0000001c _ZN11PortalBlockD1Ev
002a8878  w   DF .text	00000020 _ZN11PortalBlockD0Ev
002a8898  w   DF .text	0000001c _ZN8DeadBushD2Ev
002a8898  w   DF .text	0000001c _ZN8DeadBushD1Ev
002a88b4  w   DF .text	00000020 _ZN8DeadBushD0Ev
002a88d4  w   DF .text	0000001c _ZN14ThinFenceBlockD2Ev
005e6150 g    DO .data.rel.ro	0000016c _ZTV14ThinFenceBlock
002a88d4  w   DF .text	0000001c _ZN14ThinFenceBlockD1Ev
002a88f0  w   DF .text	00000020 _ZN14ThinFenceBlockD0Ev
002a8910  w   DF .text	0000001c _ZN10StoneBlockD2Ev
005e4878 g    DO .data.rel.ro	0000016c _ZTV10StoneBlock
002a8910  w   DF .text	0000001c _ZN10StoneBlockD1Ev
002a892c  w   DF .text	00000020 _ZN10StoneBlockD0Ev
002a894c  w   DF .text	0000001c _ZN9WallBlockD2Ev
005e3af0 g    DO .data.rel.ro	0000016c _ZTV9WallBlock
002a894c  w   DF .text	0000001c _ZN9WallBlockD1Ev
002a8968  w   DF .text	00000020 _ZN9WallBlockD0Ev
002a8988  w   DF .text	0000001c _ZN17RedstoneLampBlockD2Ev
005e2188 g    DO .data.rel.ro	0000016c _ZTV17RedstoneLampBlock
002a8988  w   DF .text	0000001c _ZN17RedstoneLampBlockD1Ev
002a89a4  w   DF .text	00000020 _ZN17RedstoneLampBlockD0Ev
002a89c4  w   DF .text	0000001c _ZN13TrapDoorBlockD2Ev
005e1f30 g    DO .data.rel.ro	0000016c _ZTV13TrapDoorBlock
002a89c4  w   DF .text	0000001c _ZN13TrapDoorBlockD1Ev
002a89e0  w   DF .text	00000020 _ZN13TrapDoorBlockD0Ev
002a8a00 g    DF .text	00000014 _ZNK9WallBlock16shouldRenderFaceER11BlockSourceRK8BlockPosaRK4AABB
002a8a14 g    DF .text	00000038 _ZNK14ThinFenceBlock16shouldRenderFaceER11BlockSourceRK8BlockPosaRK4AABB
002a8a4c g    DF .text	00000018 _ZN14ThinFenceBlock11getResourceER6Randomii
002a8a64 g    DF .text	000000d0 _ZN21DaylightDetectorBlock3useER6PlayerRK8BlockPos
00326fc0 g    DF .text	00000004 _ZN13CircuitSystem9lockGraphEb
006abf10 g    DO .bss	00000004 _ZN5Block25mDaylightDetectorInvertedE
0042bfc0 g    DF .text	00000006 _ZN20MinecraftScreenModel15setSuspendInputEb
0042bfc8 g    DF .text	00000018 _ZNK20MinecraftScreenModel21getTextInsertLocationEv
0042bfe0 g    DF .text	00000024 _ZN20MinecraftScreenModel12showKeyboardERKSsibN2UI18ValidCharacterFlagERK4Vec2
0042c004 g    DF .text	00000018 _ZN20MinecraftScreenModel12hideKeyboardEv
0042c01c g    DF .text	00000034 _ZNK20MinecraftScreenModel17getKeyboardHeightEv
002a8b60 g    DF .text	00000008 _ZN10CocoaBlock10getTextureEa
002a8b68 g    DF .text	0000000e _ZN10ClothBlock10getTextureEai
002a8b78 g    DF .text	00000008 _ZN9WoodBlock10getTextureEai
002a8b80 g    DF .text	0000000a _ZNK13DyePowderItem7getIconEiib
002a8b8c g    DF .text	00000024 _ZN10StoneBlock10getTextureEai
0050aea0 g    DF .text	00000004 _ZNK23TextureAtlasTextureItem7uvCountEv
002a8bb0 g    DF .text	0000007c _ZN10CocoaBlock10canSurviveER11BlockSourceRK8BlockPos
00320948 g    DF .text	00000006 _ZN18RotatedPillarBlock7getTypeEi
005a8a9c g    DO .rodata	00000010 _ZN9Direction6STEP_XE
005a8a8c g    DO .rodata	00000010 _ZN9Direction6STEP_ZE
006ac140 g    DO .bss	00000004 _ZN5Block4mLogE
002a8c2c g    DF .text	00000024 _ZN30HoloScreenSetupCleanupStrategy13CleanupScreenEv
002a8c50 g    DF .text	00000018 _ZN11PortalBlock7mayPickER11BlockSourceib
002a8c68 g    DF .text	00000118 _ZN9SignBlock15neighborChangedER11BlockSourceRK8BlockPosS4_
002a8d80 g    DF .text	0000002e _ZN21HellRandomLevelSource12requestChunkERK8ChunkPosN11ChunkSource8LoadModeE
004a7748 g    DF .text	00000010 _ZN10LevelChunknwEj
004b11c4 g    DF .text	00000248 _ZN10LevelChunkC1ER5LevelR9DimensionRK8ChunkPosb
002a8db0  w   DF .text	0000001c _ZN16ExperiencePotionD2Ev
002a8db0  w   DF .text	0000001c _ZN16ExperiencePotionD1Ev
002a8dcc  w   DF .text	00000020 _ZN16ExperiencePotionD0Ev
002a8dec g    DF .text	00000044 _ZN16ExperiencePotion5onHitERK9HitResult
00427648 g    DF .text	00000058 _ZN5Level12potionSplashERK4Vec3ib
003bd3ec g    DF .text	00000170 _ZN13ExperienceOrb9spawnOrbsER11BlockSourceRK4Vec3iiP6Player
002a8e30  w   DF .text	00000034 _ZN17SnowGolemRendererD2Ev
005e26f8 g    DO .data.rel.ro	00000078 _ZTV17SnowGolemRenderer
002a8e30  w   DF .text	00000034 _ZN17SnowGolemRendererD1Ev
002a8e64  w   DF .text	00000008 _ZThn180_N17SnowGolemRendererD1Ev
002a8e6c g    DF .text	00000030 _ZN11PigRendererD2Ev
005e41d0 g    DO .data.rel.ro	0000004c _ZTV11PigRenderer
002a8e6c g    DF .text	00000030 _ZN11PigRendererD1Ev
002a8e9c g    DF .text	00000012 _ZN11PigRendererD0Ev
002a8eb0 g    DF .text	00000090 _ZN8DeadBush13playerDestroyEP6PlayerRK8BlockPosi
004acec0 g    DF .text	00000110 _ZN5Block11popResourceER11BlockSourceRK8BlockPosRK12ItemInstance
006ac10c g    DO .bss	00000004 _ZN5Block9mDeadBushE
002a8f40  w   DF .text	00000026 _ZN9SignModel6renderEv
002a8fb4 g    DF .text	0000001e _ZN15MinecraftClient17onGameModeChangedEv
002a8fd4 g    DF .text	00000008 _ZThn32_N15MinecraftClient17onGameModeChangedEv
002a8fdc g    DF .text	00000008 _ZN15MinecraftClient22handleShowUpsellScreenEb
0046e8dc g    DF .text	0000011c _ZN13ScreenChooser16pushUpsellScreenEb
002a8fe4 g    DF .text	00000004 _ZN15MinecraftClient11onLowMemoryEv
004a776c g    DF .text	00000010 _ZN10LevelChunk14trimMemoryPoolEv
002a8fe8 g    DF .text	0000000e _ZN15MinecraftClient13audioEngineOnEv
004b0ad4 g    DF .text	00000002 _ZN11SoundEngine6enableEb
002a8ff8 g    DF .text	0000000e _ZN15MinecraftClient14audioEngineOffEv
002a9008 g    DF .text	0000000c _ZN15MinecraftClient9muteAudioEv
004b0ab4 g    DF .text	0000000e _ZN11SoundEngine4muteEv
002a9014 g    DF .text	0000000c _ZN15MinecraftClient11unMuteAudioEv
004b0ac4 g    DF .text	0000000e _ZN11SoundEngine6unMuteEv
002a9020 g    DF .text	00000012 _ZN15MinecraftClient14useTouchscreenEv
00538610 g    DF .text	0000001a _ZN11LocalPlayer21onViewDistanceChangedEi
002a9060 g    DF .text	0000013c _ZN23AddExternalServerScreen14setupPositionsEv
002a919c g    DF .text	000000ac _ZN17ExtremeHillsBiome14buildSurfaceAtER6RandomR10LevelChunkRK8BlockPosf
00497f80 g    DF .text	000002b4 _ZN5Biome21buildSurfaceAtDefaultER6RandomR10LevelChunkRK8BlockPosf
006ac150 g    DO .bss	00000004 _ZN5Block7mGravelE
00423be0 g    DF .text	00000054 _ZN11BatchPacket8compressEv
002a9258 g    DF .text	00000034 _ZN6Spider13canBeAffectedERK17MobEffectInstance
002a928c g    DF .text	00000032 _ZN16SpiderTargetGoal6canUseEv
002a92c0 g    DF .text	0000013c _ZN12AddSnowLayer8fillAreaER9LayerDataiiii
002a93fc g    DF .text	0000001e _ZN18ShowSkinPackScreen4tickEv
002a941c g    DF .text	00000020 _ZN18ShowSkinPackScreen15_pointerPressedEii
002a943c g    DF .text	00000020 _ZN18ShowSkinPackScreen16_pointerReleasedEii
002a945c g    DF .text	00000020 _ZN18ShowSkinPackScreen17handleScrollWheelEf
002a947c g    DF .text	00000004 _ZN14OcelotRenderer5scaleER3MobR6Matrixf
002a9480 g    DF .text	00000042 _ZN14OcelotRenderer6renderER6EntityRK4Vec3ff
002a94c4 g    DF .text	000001fe _ZN9ZoomLayer8fillAreaER9LayerDataiiii
003d9900 g    DF .text	00000010 _ZN5Layer7_randomEPii
004a8098 g    DF .text	00000030 _ZN10LevelChunk14tryChangeStateE10ChunkStateS0_
004a8c38 g    DF .text	00000004 _ZN10LevelChunk12getGeneratorEv
004a80c8 g    DF .text	00000004 _ZN10LevelChunk11changeStateE10ChunkStateS0_
00427a3c g    DF .text	0000005e _ZN5Level17setDayCycleActiveEb
00427eac g    DF .text	00000042 _ZNK5Level9getPlayerERKSs
002a98d8 g    DF .text	000001ac _ZN13DyePowderItem5useOnEP12ItemInstanceP6Playeriiiafff
00426440 g    DF .text	00000064 _ZN5Level19broadcastLevelEventE10LevelEventRK4Vec3iP6Player
005201d8 g    DF .text	00000024 _ZN11BlockSource15setBlockAndDataEiii7BlockIDhi
006abfd4 g    DO .bss	00000004 _ZN5Block6mCocoaE
002a9a84 g    DF .text	0000000a _ZN15SoundSystemFMOD4muteEb
00000000      DF *UND*	00000000 _ZN4FMOD14ChannelControl7setMuteEb
002a9a90 g    DF .text	0000000a _ZN15SoundSystemFMOD14setMusicVolumeEf
00000000      DF *UND*	00000000 _ZN4FMOD14ChannelControl9setVolumeEf
002a9a9c g    DF .text	00000006 _ZN15RecieveLoveGoal6canUseEv
0032fb54 g    DF .text	00000014 _ZNK8Villager8isInLoveEv
002a9aa4 g    DF .text	00000006 _ZN15RecieveLoveGoal16canContinueToUseEv
002a9aac g    DF .text	000000d0 _ZN8PlayGoal4tickEv
002a9b7c  w   DF .text	00000030 _ZN17ExtremeHillsBiomeD2Ev
005e4a38 g    DO .data.rel.ro	00000060 _ZTV17ExtremeHillsBiome
002a9b7c  w   DF .text	00000030 _ZN17ExtremeHillsBiomeD1Ev
002a9bac  w   DF .text	0000001c _ZN25WallClimberPathNavigationD2Ev
005e3c78 g    DO .data.rel.ro	00000038 _ZTV25WallClimberPathNavigation
002a9bac  w   DF .text	0000001c _ZN25WallClimberPathNavigationD1Ev
002a9bc8  w   DF .text	00000020 _ZN25WallClimberPathNavigationD0Ev
002a9be8  w   DF .text	0000001c _ZN16SpiderAttackGoalD2Ev
004feaa8 g    DF .text	00000070 _ZN15MeleeAttackGoalD2Ev
005e55b0 g    DO .data.rel.ro	00000030 _ZTV16SpiderAttackGoal
002a9be8  w   DF .text	0000001c _ZN16SpiderAttackGoalD1Ev
002a9c04  w   DF .text	00000020 _ZN16SpiderAttackGoalD0Ev
002a9c24  w   DF .text	0000001c _ZN11OptionsPaneD2Ev
005e57a0 g    DO .data.rel.ro	0000007c _ZTV11OptionsPane
002a9c24  w   DF .text	0000001c _ZN11OptionsPaneD1Ev
002a9c40  w   DF .text	00000020 _ZN11OptionsPaneD0Ev
002a9c60  w   DF .text	0000001c _ZN9ZoomLayerD2Ev
005e5988 g    DO .data.rel.ro	0000001c _ZTV9ZoomLayer
002a9c60  w   DF .text	0000001c _ZN9ZoomLayerD1Ev
002a9c7c  w   DF .text	00000020 _ZN9ZoomLayerD0Ev
002a9c9c  w   DF .text	0000001c _ZN12AddSnowLayerD2Ev
005e5610 g    DO .data.rel.ro	0000001c _ZTV12AddSnowLayer
002a9c9c  w   DF .text	0000001c _ZN12AddSnowLayerD1Ev
002a9cb8  w   DF .text	00000020 _ZN12AddSnowLayerD0Ev
002a9cd8  w   DF .text	0000001c _ZN17AddDeepOceanLayerD2Ev
005e2d58 g    DO .data.rel.ro	0000001c _ZTV17AddDeepOceanLayer
002a9cd8  w   DF .text	0000001c _ZN17AddDeepOceanLayerD1Ev
002a9cf4  w   DF .text	00000020 _ZN17AddDeepOceanLayerD0Ev
002a9d14  w   DF .text	0000001c _ZN16MusicBlockEntityD2Ev
005e3ef0 g    DO .data.rel.ro	00000048 _ZTV16MusicBlockEntity
002a9d14  w   DF .text	0000001c _ZN16MusicBlockEntityD1Ev
002a9d30  w   DF .text	00000020 _ZN16MusicBlockEntityD0Ev
002a9d50  w   DF .text	0000001c _ZN9ChestMenuD2Ev
0037cbf0 g    DF .text	00000030 _ZN13ContainerMenuD2Ev
005e3a78 g    DO .data.rel.ro	00000038 _ZTV9ChestMenu
002a9d50  w   DF .text	0000001c _ZN9ChestMenuD1Ev
002a9d6c  w   DF .text	00000020 _ZN9ChestMenuD0Ev
002a9d8c  w   DF .text	0000001c _ZN23HealthAttributeDelegateD2Ev
0035e890 g    DF .text	00000054 _ZN25AttributeInstanceDelegateD2Ev
005e1e90 g    DO .data.rel.ro	00000020 _ZTV23HealthAttributeDelegate
002a9d8c  w   DF .text	0000001c _ZN23HealthAttributeDelegateD1Ev
002a9da8  w   DF .text	00000020 _ZN23HealthAttributeDelegateD0Ev
002a9e10 g    DF .text	00000030 _ZN9WallBlock10getTextureEai
006ac0d8 g    DO .bss	00000004 _ZN5Block17mMossyCobblestoneE
002a9e40 g    DF .text	00000020 _ZN9FloatGoal6canUseEv
002a9e60 g    DF .text	00000018 _ZN10Silverfish17handleEntityEventE11EntityEvent
002a9e78  w   DF .text	00000074 _ZN12CritParticle6renderER11Tessellatorffffff
002a9eec g    DF .text	0000003a _ZNK23HealthAttributeDelegate12getBuffValueERK13AttributeBuff
00439700 g    DF .text	00000018 _ZNK13AttributeBuff9getAmountEv
002a9f28 g    DF .text	00000064 _ZN10CaveSpider12doHurtTargetEP6Entity
00540a30 g    DF .text	00000170 _ZN7Monster12doHurtTargetEP6Entity
00523e9c g    DF .text	00000016 _ZN17MobEffectInstanceC1Eiii
002a9f8c g    DF .text	00000060 _ZN8DeadBush10mayPlaceOnER5Block
006ac154 g    DO .bss	00000004 _ZN5Block5mSandE
006abf1c g    DO .bss	00000004 _ZN5Block13mHardenedClayE
006abf38 g    DO .bss	00000004 _ZN5Block12mStainedClayE
006abef4 g    DO .bss	00000004 _ZN5Block7mPodzolE
00429020 g    DF .text	00000006 _ZN5Level20getAdventureSettingsEv
00540670 g    DF .text	000003c0 _ZN6Player6attackER6Entity
002aa074 g    DF .text	00000018 _ZN23TouchGlyphButtonControl7releaseER15InputEventQueue
002aa08c g    DF .text	00000028 _ZN21DaylightDetectorBlock8onRemoveER11BlockSourceRK8BlockPos
002aa0b4 g    DF .text	00000018 _ZN11PotatoBlock10getTextureEai
002aa0cc g    DF .text	0000002a _ZN11PortalBlock12entityInsideER11BlockSourceRK8BlockPosR6Entity
002aa0f8 g    DF .text	0000005a _ZN23AddExternalServerScreen27_controllerDirectionChangedEi14StickDirection
002ab034 g    DF .text	0000004c _ZN13SquidDiveGoal6canUseEv
002ab0ac g    DF .text	00000024 _ZN14TextEditScreen9lostFocusEv
005e0ae0  w   DO .data.rel.ro	00000020 _ZTV18PlayerActionPacket
002ab1e8 g    DF .text	00000050 _ZN10CocoaBlock15neighborChangedER11BlockSourceRK8BlockPosS4_
002ab238 g    DF .text	000000a0 _ZN13TrapDoorBlock3useER6PlayerRK8BlockPos
002ab2d8 g    DF .text	0000007c _ZN17RedstoneLampBlock16onRedstoneUpdateER11BlockSourceRK8BlockPosib
006abfd8 g    DO .bss	00000004 _ZN5Block16mLitRedStoneLampE
002ab354 g    DF .text	00000130 _ZN28SilverfishMergeWithStoneGoal5startEv
00513118 g    DF .text	00000044 _ZN15MonsterEggBlock21isCompatibleHostBlockEii
0051315c g    DF .text	00000078 _ZN15MonsterEggBlock19getDataForHostBlockEii
006ac020 g    DO .bss	00000004 _ZN5Block16mMonsterStoneEggE
002ab484 g    DF .text	0000001a _ZN14TextEditScreen14_buttonClickedER6Button
002ab4cc g    DF .text	0000003c _ZNK33CraftingInventoryScreenController31_itemLocationFromCollectionNameERKSs
002ab508 g    DF .text	000000c4 _ZNK33CraftingInventoryScreenController13_isStillValidEv
0042be20 g    DF .text	00000004 _ZN20MinecraftScreenModel15getCraftingTypeEv
0042c390 g    DF .text	00000024 _ZN20MinecraftScreenModel34distanceSqrFromPlayerToBlockCenterERK4Vec3
0042bf98 g    DF .text	0000001e _ZN20MinecraftScreenModel10getBlockAtE8BlockPos
006ac0b4 g    DO .bss	00000004 _ZN5Block10mWorkBenchE
0044659c g    DF .text	00000020 _ZN20MinecraftScreenModel11leaveScreenEv
002ab5fc g    DF .text	00000158 _ZN21DaylightDetectorBlock20updateSignalStrengthER11BlockSourceRK8BlockPos
00519cbc g    DF .text	00000068 _ZN11BlockSource13getBrightnessERK10LightLayerRK8BlockPos
003c4ffc g    DF .text	00000028 _ZN9Dimension11getSunAngleEf
00000000      DF *UND*	00000000 round
006474ac g    DO .bss	00000008 _ZN10LightLayer3SKYE
0042eba8 g    DF .text	0000002a _ZN20MinecraftScreenModel24getInventoryItemInstanceEi
002ab770 g    DF .text	00000030 _ZN33CraftingInventoryScreenController15getItemInstanceE12ItemLocationi
0042bd84 g    DF .text	00000016 _ZN20MinecraftScreenModel20getArmorItemInstanceE9ArmorSlot
002ab7a0 g    DF .text	0000001e _ZN18ShowSkinPackScreen24_controllerDirectionHeldEi14StickDirection
002ab7c0 g    DF .text	00000068 _ZN23RestorePurchaseDialogue14pointerPressedEP15MinecraftClientii
0051037c g    DF .text	00000058 _ZN16MobEffectsLayout15onConfigChangedERK6Config
004019d4 g    DF .text	000002c8 _ZN23BlockTextureTessellator11registerUVsERKSt6vectorISt4pairI22TextureUVCoordinateSet6Rect2DESaIS4_EERK11TextureData
002ab8ec  w   DF .text	0000003e _ZNSt14_Function_base13_Base_managerISt5_BindIFSt7_Mem_fnIM15MinecraftClientFvbEEPS3_St12_PlaceholderILi1EEEEE10_M_managerERSt9_Any_dataRKSD_St18_Manager_operation
002ab92c  w   DF .text	0000003e _ZNSt14_Function_base13_Base_managerISt5_BindIFSt7_Mem_fnIM18ScrollbarComponentFN2UI15AnimationStatusERKN3mce8TimeStepEEEPS3_St12_PlaceholderILi1EEEEE10_M_managerERSt9_Any_dataRKSJ_St18_Manager_operation
002ab96c  w   DF .text	00000040 _ZNSt14_Function_base13_Base_managerISt5_BindIFSt7_Mem_fnIM25MinecraftScreenControllerFv12ItemLocationiEEP33CraftingInventoryScreenControllerS4_iEEE10_M_managerERSt9_Any_dataRKSD_St18_Manager_operation
002ab9ac  w   DF .text	0000003e _ZNSt14_Function_base13_Base_managerISt5_BindIFSt7_Mem_fnIM33CraftingInventoryScreenControllerFviEEPS3_iEEE10_M_managerERSt9_Any_dataRKSB_St18_Manager_operation
002ab9ec  w   DF .text	00000040 _ZNSt14_Function_base13_Base_managerISt5_BindIFSt7_Mem_fnIM25MinecraftScreenControllerFv12ItemLocationiEEPS3_S4_iEEE10_M_managerERSt9_Any_dataRKSC_St18_Manager_operation
002aba2c g    DF .text	00000150 _ZN18NetworkChunkSource12releaseChunkER10LevelChunk
0052988c g    DF .text	0000000a _ZN13ChunkRefCount7releaseEv
0052989c g    DF .text	00000004 _ZN13ChunkRefCount8getChunkEv
004281f4 g    DF .text	0000017c _ZN5Level16onChunkDiscardedER10LevelChunk
005298a4 g    DF .text	00000004 _ZN13ChunkRefCount11getChunkPtrEv
00529764 g    DF .text	0000001c _ZN13ChunkRefCountD1Ev
002abb7c  w   DF .text	00000016 _ZNSt19_Sp_counted_deleterIP11ImageButtonNSt12__shared_ptrIS0_LN9__gnu_cxx12_Lock_policyE2EE8_DeleterISaIS0_EEES7_LS4_2EE10_M_disposeEv
002abc18  w   DF .text	00000016 _ZNSt19_Sp_counted_deleterIP11ProgressBarNSt12__shared_ptrIS0_LN9__gnu_cxx12_Lock_policyE2EE8_DeleterISaIS0_EEES7_LS4_2EE10_M_disposeEv
002abc30  w   DF .text	00000016 _ZNSt19_Sp_counted_deleterIP21ShiftedValueAmplifierNSt12__shared_ptrIS0_LN9__gnu_cxx12_Lock_policyE2EE8_DeleterISaIS0_EEES7_LS4_2EE10_M_disposeEv
002abc48  w   DF .text	00000016 _ZNSt19_Sp_counted_deleterIP22MultiplyValueAmplifierNSt12__shared_ptrIS0_LN9__gnu_cxx12_Lock_policyE2EE8_DeleterISaIS0_EEES7_LS4_2EE10_M_disposeEv
002abc60  w   DF .text	00000016 _ZNSt19_Sp_counted_deleterIP24ShiftedDurationAmplifierNSt12__shared_ptrIS0_LN9__gnu_cxx12_Lock_policyE2EE8_DeleterISaIS0_EEES7_LS4_2EE10_M_disposeEv
002abc78  w   DF .text	00000016 _ZNSt19_Sp_counted_deleterIP21TemporalAttributeBuffNSt12__shared_ptrIS0_LN9__gnu_cxx12_Lock_policyE2EE8_DeleterISaIS0_EEES7_LS4_2EE10_M_disposeEv
002abc90  w   DF .text	00000016 _ZNSt19_Sp_counted_deleterIP26InstantaneousAttributeBuffNSt12__shared_ptrIS0_LN9__gnu_cxx12_Lock_policyE2EE8_DeleterISaIS0_EEES7_LS4_2EE10_M_disposeEv
002abca8  w   DF .text	00000016 _ZNSt19_Sp_counted_deleterIP17AttributeModifierNSt12__shared_ptrIS0_LN9__gnu_cxx12_Lock_policyE2EE8_DeleterISaIS0_EEES7_LS4_2EE10_M_disposeEv
002abcc0  w   DF .text	00000016 _ZNSt19_Sp_counted_deleterIPN5Touch7THeaderENSt12__shared_ptrIS1_LN9__gnu_cxx12_Lock_policyE2EE8_DeleterISaIS1_EEES8_LS5_2EE10_M_disposeEv
002abcd8  w   DF .text	00000016 _ZNSt19_Sp_counted_deleterIPN5Touch12HeaderButtonENSt12__shared_ptrIS1_LN9__gnu_cxx12_Lock_policyE2EE8_DeleterISaIS1_EEES8_LS5_2EE10_M_disposeEv
002abcf0  w   DF .text	00000016 _ZNSt19_Sp_counted_deleterIP7TextBoxNSt12__shared_ptrIS0_LN9__gnu_cxx12_Lock_policyE2EE8_DeleterISaIS0_EEES7_LS4_2EE10_M_disposeEv
002abd08  w   DF .text	00000016 _ZNSt19_Sp_counted_deleterIP11BatchPacketNSt12__shared_ptrIS0_LN9__gnu_cxx12_Lock_policyE2EE8_DeleterISaIS0_EEES7_LS4_2EE10_M_disposeEv
002abd20  w   DF .text	00000016 _ZNSt19_Sp_counted_deleterIP17SkinsPaneStandardNSt12__shared_ptrIS0_LN9__gnu_cxx12_Lock_policyE2EE8_DeleterISaIS0_EEES7_LS4_2EE10_M_disposeEv
002abd38  w   DF .text	00000016 _ZNSt19_Sp_counted_deleterIP9ZoomLayerNSt12__shared_ptrIS0_LN9__gnu_cxx12_Lock_policyE2EE8_DeleterISaIS0_EEES7_LS4_2EE10_M_disposeEv
002abd50  w   DF .text	00000016 _ZNSt19_Sp_counted_deleterIP15ChunkViewSourceNSt12__shared_ptrIS0_LN9__gnu_cxx12_Lock_policyE2EE8_DeleterISaIS0_EEES7_LS4_2EE10_M_disposeEv
002abd68  w   DF .text	00000016 _ZNSt19_Sp_counted_deleterIP12OptionsGroupNSt12__shared_ptrIS0_LN9__gnu_cxx12_Lock_policyE2EE8_DeleterISaIS0_EEES7_LS4_2EE10_M_disposeEv
002abe1c  w   DF .text	00000022 _ZNSt17_Function_handlerIFvbESt5_BindIFSt7_Mem_fnIM15MinecraftClientFvbEEPS3_St12_PlaceholderILi1EEEEE9_M_invokeERKSt9_Any_datab
002abe40  w   DF .text	0000002a _ZNSt17_Function_handlerIFvvESt5_BindIFSt7_Mem_fnIM25MinecraftScreenControllerFv12ItemLocationiEEP33CraftingInventoryScreenControllerS4_iEEE9_M_invokeERKSt9_Any_data
002abe6c  w   DF .text	00000022 _ZNSt17_Function_handlerIFN2UI15AnimationStatusERKN3mce8TimeStepEESt5_BindIFSt7_Mem_fnIM18ScrollbarComponentFS1_S5_EEPS9_St12_PlaceholderILi1EEEEE9_M_invokeERKSt9_Any_dataS5_
002abe90  w   DF .text	00000026 _ZNSt17_Function_handlerIFvvESt5_BindIFSt7_Mem_fnIM33CraftingInventoryScreenControllerFviEEPS3_iEEE9_M_invokeERKSt9_Any_data
002abeb8  w   DF .text	00000028 _ZNSt17_Function_handlerIFvvESt5_BindIFSt7_Mem_fnIM25MinecraftScreenControllerFv12ItemLocationiEEPS3_S4_iEEE9_M_invokeERKSt9_Any_data
00322f94 g    DF .text	00000012 _ZN12ItemInstance3useER6Player
002abf90 g    DF .text	0000001a _ZN15MinecraftClient10createSkinEb
002abfac g    DF .text	00000008 _ZThn36_N15MinecraftClient10createSkinEb
00324998 g    DF .text	0000000c _ZN12ItemInstance6isItemEPKS_
00322f24 g    DF .text	00000034 _ZN12ItemInstance5useOnEP6Playeriiiafff
0032383c g    DF .text	00000004 _ZN12ItemInstance11setAuxValueEs
002ac184  w   DF .text	00000034 _ZN9SignModelD0Ev
002ac1b8  w   DF .text	00000038 _ZN17SnowGolemRendererD0Ev
002ac1f0  w   DF .text	00000006 _ZThn180_N17SnowGolemRendererD0Ev
002ac1f8  w   DF .text	00000044 _ZN8TempEPtrI8VillagerED2Ev
005e0e50  w   DO .data.rel.ro	00000014 _ZTV8TempEPtrI8VillagerE
002ac1f8  w   DF .text	00000044 _ZN8TempEPtrI8VillagerED1Ev
002ac23c  w   DF .text	00000044 _ZN8TempEPtrI9IronGolemED2Ev
005e0e38  w   DO .data.rel.ro	00000014 _ZTV8TempEPtrI9IronGolemE
002ac23c  w   DF .text	00000044 _ZN8TempEPtrI9IronGolemED1Ev
002ac280  w   DF .text	00000054 _ZN12SignRendererD2Ev
0035d6d8 g    DF .text	0000002c _ZN19BlockEntityRendererD2Ev
005e6138 g    DO .data.rel.ro	00000018 _ZTV12SignRenderer
002ac280  w   DF .text	00000054 _ZN12SignRendererD1Ev
002ac2d4 g    DF .text	00000032 _ZN8PlayGoal4stopEv
0032fb9c g    DF .text	00000006 _ZN8Villager10setChasingEb
002ac308  w   DF .text	0000004c _ZN8TempEPtrI8VillagerED0Ev
002ac354  w   DF .text	0000005c _ZN8PlayGoalD2Ev
005e6320 g    DO .data.rel.ro	0000002c _ZTV8PlayGoal
002ac354  w   DF .text	0000005c _ZN8PlayGoalD1Ev
002ac3b0  w   DF .text	0000005c _ZN12SignRendererD0Ev
002ac40c g    DF .text	0000003c _ZN15LayoutComponentD2Ev
005e20b8 g    DO .data.rel.ro	00000014 _ZTV15LayoutComponent
002ac40c g    DF .text	0000003c _ZN15LayoutComponentD1Ev
002ac448 g    DF .text	00000012 _ZN15LayoutComponentD0Ev
002ac45c  w   DF .text	00000064 _ZN8PlayGoalD0Ev
002ac4c0  w   DF .text	0000004c _ZN8TempEPtrI9IronGolemED0Ev
002ac50c  w   DF .text	0000005c _ZN14TakeFlowerGoalD2Ev
005e4450 g    DO .data.rel.ro	0000002c _ZTV14TakeFlowerGoal
002ac50c  w   DF .text	0000005c _ZN14TakeFlowerGoalD1Ev
002ac568  w   DF .text	00000060 _ZN14TakeFlowerGoalD0Ev
002ac5c8  w   DF .text	000000a4 _ZN18NetworkChunkSourceD2Ev
005e3d00 g    DO .data.rel.ro	0000007c _ZTV18NetworkChunkSource
002ac5c8  w   DF .text	000000a4 _ZN18NetworkChunkSourceD1Ev
002ac66c  w   DF .text	00000008 _ZThn24_N18NetworkChunkSourceD1Ev
002ac674  w   DF .text	00000012 _ZN18NetworkChunkSourceD0Ev
002ac688  w   DF .text	00000006 _ZThn24_N18NetworkChunkSourceD0Ev
002ac690  w   DF .text	00000034 _ZN17ExtremeHillsBiomeD0Ev
002ac6c4 g    DF .text	00000034 _ZN14TakeFlowerGoal4stopEv
002ac6f8  w   DF .text	00000058 _ZN16StructureFeatureD2Ev
002ac6f8  w   DF .text	00000058 _ZN16StructureFeatureD1Ev
002ac750  w   DF .text	0000005c _ZN16StructureFeatureD0Ev
005e1518 g    DO .data.rel.ro	00000378 _ZTV13PathfinderMob
002ac7ac g    DF .text	0000004c _ZN13PathfinderMobD1Ev
002ac7f8 g    DF .text	00000012 _ZN13PathfinderMobD0Ev
002ac80c  w   DF .text	0000001c _ZN9LavaSlimeD2Ev
00601440 g    DO .data.rel.ro	00000380 _ZTV7Monster
002ac80c  w   DF .text	0000001c _ZN9LavaSlimeD1Ev
002ac828  w   DF .text	00000020 _ZN9LavaSlimeD0Ev
002ac848  w   DF .text	0000001c _ZN6SpiderD2Ev
002ac848  w   DF .text	0000001c _ZN6SpiderD1Ev
002ac864  w   DF .text	00000020 _ZN6SpiderD0Ev
002ac884  w   DF .text	0000001c _ZN10CaveSpiderD2Ev
002ac884  w   DF .text	0000001c _ZN10CaveSpiderD1Ev
002ac8a0  w   DF .text	00000020 _ZN10CaveSpiderD0Ev
002ac8c0  w   DF .text	0000001c _ZN10SilverfishD2Ev
002ac8c0  w   DF .text	0000001c _ZN10SilverfishD1Ev
002ac8dc  w   DF .text	00000020 _ZN10SilverfishD0Ev
002ac8fc  w   DF .text	0000001c _ZN5SquidD2Ev
002ac8fc  w   DF .text	0000001c _ZN5SquidD1Ev
002ac918  w   DF .text	00000020 _ZN5SquidD0Ev
002ac938  w   DF .text	0000001c _ZN3CowD2Ev
002ac938  w   DF .text	0000001c _ZN3CowD1Ev
002ac954  w   DF .text	00000020 _ZN3CowD0Ev
002ac974  w   DF .text	0000001c _ZN11MushroomCowD2Ev
002ac974  w   DF .text	0000001c _ZN11MushroomCowD1Ev
002ac990  w   DF .text	00000020 _ZN11MushroomCowD0Ev
002ac9b0  w   DF .text	0000001c _ZN6RabbitD2Ev
002ac9b0  w   DF .text	0000001c _ZN6RabbitD1Ev
002ac9cc  w   DF .text	00000020 _ZN6RabbitD0Ev
002ac9ec  w   DF .text	00000040 _ZN10SquidModelD0Ev
002aca2c  w   DF .text	0000003c _ZN8SkeletonD2Ev
00601928 g    DO .data.rel.ro	0000038c _ZTV15HumanoidMonster
002aca2c  w   DF .text	0000003c _ZN8SkeletonD1Ev
002aca68 g    DF .text	00000068 _ZN8PlayGoal5startEv
002acad0  w   DF .text	00000054 _ZN16MinecartRendererD2Ev
005e1e68 g    DO .data.rel.ro	00000024 _ZTV16MinecartRenderer
00600270 g    DO .data.rel.ro	0000003c _ZTV13MinecartModel
002acad0  w   DF .text	00000054 _ZN16MinecartRendererD1Ev
002acb24  w   DF .text	00000044 _ZN8SkeletonD0Ev
002acb68  w   DF .text	0000005c _ZN16MinecartRendererD0Ev
002acbc4 g    DF .text	0000003e _ZN21WorldLimitChunkSource12requestChunkERK8ChunkPosN11ChunkSource8LoadModeE
002acc04 g    DF .text	0000003e _ZN21WorldLimitChunkSource16getExistingChunkERK8ChunkPos
002acc44 g    DF .text	0000003c _ZN15SoundSystemFMOD14isPlayingMusicERKSs
00000000      DF *UND*	00000000 _ZN4FMOD14ChannelControl9isPlayingEPb
002acc80 g    DF .text	000000d6 _ZN25WallClimberPathNavigation6moveToER3Mobf
002acd58 g    DF .text	0000007c _ZN30HoloScreenSetupCleanupStrategy11SetupScreenEf
002acdd4 g    DF .text	0000005c _ZN15ChunkViewSource16getExistingChunkERK8ChunkPos
002ace30  w   DF .text	00000044 _ZN14OcelotRendererD2Ev
005e5938 g    DO .data.rel.ro	0000004c _ZTV14OcelotRenderer
002ace30  w   DF .text	00000044 _ZN14OcelotRendererD1Ev
002ace74  w   DF .text	00000044 _ZN22VillagerZombieRendererD2Ev
005e2788 g    DO .data.rel.ro	0000004c _ZTV22VillagerZombieRenderer
002ace74  w   DF .text	00000044 _ZN22VillagerZombieRendererD1Ev
002aceb8 g    DF .text	00000146 _ZN23TouchGlyphButtonControl4tickER15InputEventQueueR17TouchPointResults
0052583c g    DF .text	0000004a _ZNK13RectangleArea8isInsideEff
002ad068  w   DF .text	0000004c _ZN22VillagerZombieRendererD0Ev
002ad0b4  w   DF .text	0000004c _ZN14OcelotRendererD0Ev
002ad100 g    DF .text	00000062 _ZN14TakeFlowerGoal16canContinueToUseEv
002ad168 g    DF .text	000002e4 _ZN11LookControl4tickEv
002ad450 g    DF .text	00000054 _ZN21WorldLimitChunkSourceD2Ev
005e49e8 g    DO .data.rel.ro	00000050 _ZTV21WorldLimitChunkSource
002ad450 g    DF .text	00000054 _ZN21WorldLimitChunkSourceD1Ev
002ad4a4 g    DF .text	00000012 _ZN21WorldLimitChunkSourceD0Ev
002ad4b8 g    DF .text	00000010 _ZNK27SilverfishWakeUpFriendsGoal15appendDebugInfoERSs
002ad4c8 g    DF .text	00000010 _ZNK28SilverfishMergeWithStoneGoal15appendDebugInfoERSs
002ad4d8 g    DF .text	00000010 _ZNK13SquidIdleGoal15appendDebugInfoERSs
002ad4e8 g    DF .text	00000010 _ZNK13SquidFleeGoal15appendDebugInfoERSs
002ad4f8 g    DF .text	00000010 _ZNK27SquidMoveAwayFromGroundGoal15appendDebugInfoERSs
002ad508 g    DF .text	00000010 _ZNK19SquidOutOfWaterGoal15appendDebugInfoERSs
002ad518 g    DF .text	00000010 _ZNK13SquidDiveGoal15appendDebugInfoERSs
002ad528 g    DF .text	00000010 _ZNK9FloatGoal15appendDebugInfoERSs
002ad538 g    DF .text	00000010 _ZNK14TakeFlowerGoal15appendDebugInfoERSs
002ad548  w   DF .text	00000010 _ZNK14RaidGardenGoal15appendDebugInfoERSs
002ad558  w   DF .text	00000010 _ZNK15RabbitPanicGoal15appendDebugInfoERSs
002ad568 g    DF .text	00000010 _ZNK15RecieveLoveGoal15appendDebugInfoERSs
002ad578 g    DF .text	00000010 _ZNK8PlayGoal15appendDebugInfoERSs
002ad588  w   DF .text	00000108 _ZN19FallingDustParticle6renderER11Tessellatorffffff
002ad690 g    DF .text	000001fc _ZNK20TelemetryEventPacket5writeEPN6RakNet9BitStreamE
002ad88c  w   DF .text	00000050 _ZN12MakeLoveGoalD2Ev
005e62c0 g    DO .data.rel.ro	0000002c _ZTV12MakeLoveGoal
002ad88c  w   DF .text	00000050 _ZN12MakeLoveGoalD1Ev
002ad8dc g    DF .text	00000050 _ZN18ScrollbarComponentD2Ev
005e20a0 g    DO .data.rel.ro	00000014 _ZTV18ScrollbarComponent
002ad8dc g    DF .text	00000050 _ZN18ScrollbarComponentD1Ev
002ad92c g    DF .text	00000012 _ZN18ScrollbarComponentD0Ev
002ad940  w   DF .text	00000130 _ZN15ExplodeParticle10normalTickEv
002ada70  w   DF .text	00000150 _ZN15RedDustParticle10normalTickEv
002adbc0  w   DF .text	0000014c _ZN13SmokeParticle6renderER11Tessellatorffffff
002add0c g    DF .text	00000200 _ZN20TelemetryEventPacket4readEPN6RakNet9BitStreamE
002adf0c g    DF .text	00000044 _ZN15SoundSystemFMOD9stopMusicEv
00000000      DF *UND*	00000000 _ZN4FMOD14ChannelControl4stopEv
00000000      DF *UND*	00000000 _ZNSs6assignEPKcj
002adf50  w   DF .text	00000150 _ZN11InkParticle6renderER11Tessellatorffffff
002ae0a0 g    DF .text	00000078 _ZNK23TouchGlyphButtonControl6renderER18InputRenderContext
00525888 g    DF .text	00000034 _ZNK13RectangleArea7isEmptyEv
00525a2c g    DF .text	00000038 _ZNK13RectangleArea5scaleEf
002ae118  w   DF .text	0000004c _ZN12MakeLoveGoalD0Ev
00000000      DF *UND*	00000000 strlen
002ae274  w   DF .text	00000098 _ZN12BoatRendererD2Ev
005e43c0 g    DO .data.rel.ro	00000050 _ZTV12BoatRenderer
005ea278 g    DO .data.rel.ro	0000003c _ZTV9BoatModel
002ae274  w   DF .text	00000098 _ZN12BoatRendererD1Ev
002ae30c  w   DF .text	00000008 _ZThn128_N12BoatRendererD1Ev
002ae314  w   DF .text	0000009c _ZN12BoatRendererD0Ev
002ae3b0  w   DF .text	00000006 _ZThn128_N12BoatRendererD0Ev
002ae3b8 g    DF .text	00000058 _ZN14InputComponentD2Ev
005e20d0 g    DO .data.rel.ro	00000014 _ZTV14InputComponent
002ae3b8 g    DF .text	00000058 _ZN14InputComponentD1Ev
002ae410 g    DF .text	00000012 _ZN14InputComponentD0Ev
0042efb8 g    DF .text	00000090 _ZN16FillingContainer14clearInventoryEi
002ae498  w   DF .text	000000c4 _ZNK22SetSpawnPositionPacket5writeEPN6RakNet9BitStreamE
002ae55c g    DF .text	00000064 _ZN12MakeLoveGoal4stopEv
0032fb68 g    DF .text	00000006 _ZNK8Villager13lovePartnerIdEv
0032fb70 g    DF .text	0000002c _ZN8Villager9setInLoveEPS_
002ae5c0  w   DF .text	00000100 _ZNK17RemoveBlockPacket5writeEPN6RakNet9BitStreamE
002ae6c0  w   DF .text	000000b0 _ZN22SetSpawnPositionPacket4readEPN6RakNet9BitStreamE
002ae770 g    DF .text	000000d4 _ZN26TouchGuiPassthroughControl4tickER15InputEventQueueR17TouchPointResults
004ca99c g    DF .text	0000003e _ZN15InputEventQueue22enqueuePointerLocationE9InputModess
002ae844  w   DF .text	000000dc _ZN17RemoveBlockPacket4readEPN6RakNet9BitStreamE
002ae920  w   DF .text	00000198 _ZNK18PlayerActionPacket5writeEPN6RakNet9BitStreamE
002aeab8  w   DF .text	0000016c _ZN18PlayerActionPacket4readEPN6RakNet9BitStreamE
004279e8 g    DF .text	00000044 _ZN5Level11setStopTimeEi
00427984 g    DF .text	00000062 _ZN5Level7setTimeEi
002aed94  w   DF .text	00000210 _ZNK13UseItemPacket5writeEPN6RakNet9BitStreamE
003bf71c g    DF .text	000000f4 _ZN10PacketUtil17writeItemInstanceERK12ItemInstancePN6RakNet9BitStreamEb
002aefa4  w   DF .text	00000234 _ZN13UseItemPacket4readEPN6RakNet9BitStreamE
003c05f4 g    DF .text	0000019c _ZN10PacketUtil16readItemInstanceEPN6RakNet9BitStreamE
002af1d8 g    DF .text	00000066 _ZN18NetworkChunkSource16getExistingChunkERK8ChunkPos
00529810 g    DF .text	00000004 _ZNK13ChunkRefCount3getEv
002af240 g    DF .text	0000009e _ZN15SoundSystemFMOD9playMusicERKSsS1_
00000000      DF *UND*	00000000 _ZN4FMOD6System9playSoundEPNS_5SoundEPNS_12ChannelGroupEbPPNS_7ChannelE
002af2e0 g    DF .text	00000102 _ZN15SoundSystemFMOD6playAtERKSsfffff
00000000      DF *UND*	00000000 _ZN4FMOD5Sound15getNumSubSoundsEPi
00000000      DF *UND*	00000000 _ZN4FMOD5Sound11getSubSoundEiPPS0_
00000000      DF *UND*	00000000 _ZN4FMOD14ChannelControl15set3DAttributesEPK11FMOD_VECTORS3_S3_
00000000      DF *UND*	00000000 _ZN4FMOD14ChannelControl8setPitchEf
00000000      DF *UND*	00000000 _ZN4FMOD14ChannelControl9setPausedEb
006464cc g    DO .bss	00000040 _ZN13DyePowderItem11COLOR_DESCSE
002af43c  w   DF .text	00000044 _ZN9AttributeD2Ev
002af43c  w   DF .text	00000044 _ZN9AttributeD1Ev
002af620  w   DF .text	00000054 _ZN9SavedDataD2Ev
005e07d8  w   DO .data.rel.ro	00000018 _ZTV9SavedData
002af620  w   DF .text	00000054 _ZN9SavedDataD1Ev
006467bc g    DO .bss	00000008 _ZN9WallBlock12COBBLE_NAMESE
002af6ec  w   DF .text	00000080 _ZN3AppD2Ev
005e0708  w   DO .data.rel.ro	00000064 _ZTV3App
002af6ec  w   DF .text	00000080 _ZN3AppD1Ev
002af76c  w   DF .text	00000084 _ZN3AppD0Ev
002af7f0  w   DF .text	0000005c _ZN11SmallButtonD2Ev
002af7f0  w   DF .text	0000005c _ZN11SmallButtonD1Ev
002af84c g    DF .text	0000005c _ZN14SoundComponentD2Ev
005e4ab8 g    DO .data.rel.ro	00000014 _ZTV14SoundComponent
002af84c g    DF .text	0000005c _ZN14SoundComponentD1Ev
002af8a8 g    DF .text	00000012 _ZN14SoundComponentD0Ev
002af8bc  w   DF .text	0000005c _ZN9SavedDataD0Ev
002af918  w   DF .text	0000005c _ZN4Json10FastWriterD2Ev
005e1288 g    DO .data.rel.ro	00000014 _ZTVN4Json10FastWriterE
002af918  w   DF .text	0000005c _ZN4Json10FastWriterD1Ev
002af974  w   DF .text	00000078 _ZNSt13unordered_setISsSt4hashISsESt8equal_toISsESaISsEED2Ev
002af974  w   DF .text	00000078 _ZNSt13unordered_setISsSt4hashISsESt8equal_toISsESaISsEED1Ev
002af9ec g    DF .text	00000060 _ZN12TouchControlD2Ev
005e44f0 g    DO .data.rel.ro	0000001c _ZTV12TouchControl
002af9ec g    DF .text	00000060 _ZN12TouchControlD1Ev
002afa4c g    DF .text	00000012 _ZN12TouchControlD0Ev
002afa60 g    DF .text	0000001c _ZN24TouchTurnInteractControlD2Ev
005e4550 g    DO .data.rel.ro	0000001c _ZTV24TouchTurnInteractControl
002afa60 g    DF .text	0000001c _ZN24TouchTurnInteractControlD1Ev
002afa7c g    DF .text	00000012 _ZN24TouchTurnInteractControlD0Ev
002afa90 g    DF .text	0000001c _ZN26TouchGuiPassthroughControlD2Ev
005e4570 g    DO .data.rel.ro	0000001c _ZTV26TouchGuiPassthroughControl
002afa90 g    DF .text	0000001c _ZN26TouchGuiPassthroughControlD1Ev
002afaac g    DF .text	00000012 _ZN26TouchGuiPassthroughControlD0Ev
002afac0  w   DF .text	00000060 _ZN4Json10FastWriterD0Ev
002afb20  w   DF .text	00000060 _ZN11SmallButtonD0Ev
002afb80  w   DF .text	00000064 _ZN10ClothBlockD2Ev
005e4708 g    DO .data.rel.ro	0000016c _ZTV10ClothBlock
002afb80  w   DF .text	00000064 _ZN10ClothBlockD1Ev
002afbe4  w   DF .text	00000064 _ZN9WoodBlockD2Ev
005e5630 g    DO .data.rel.ro	0000016c _ZTV9WoodBlock
002afbe4  w   DF .text	00000064 _ZN9WoodBlockD1Ev
002afc48  w   DF .text	00000074 _ZN10CocoaBlockD2Ev
005e3908 g    DO .data.rel.ro	0000016c _ZTV10CocoaBlock
002afc48  w   DF .text	00000074 _ZN10CocoaBlockD1Ev
002afcbc  w   DF .text	00000070 _ZN16LargeImageButtonD2Ev
005ff5b0 g    DO .data.rel.ro	0000009c _ZTV11ImageButton
002afcbc  w   DF .text	00000070 _ZN16LargeImageButtonD1Ev
002afea0 g    DF .text	00000090 _ZN15SoundSystemFMOD7destroyEv
00000000      DF *UND*	00000000 _ZN4FMOD5Sound7releaseEv
00000000      DF *UND*	00000000 _ZN4FMOD6System5closeEv
00000000      DF *UND*	00000000 _ZN4FMOD6System7releaseEv
002aff30 g    DF .text	00000068 _ZN23TouchGlyphButtonControlD2Ev
005e4510 g    DO .data.rel.ro	0000001c _ZTV23TouchGlyphButtonControl
002aff30 g    DF .text	00000068 _ZN23TouchGlyphButtonControlD1Ev
002aff98 g    DF .text	00000012 _ZN23TouchGlyphButtonControlD0Ev
002affac g    DF .text	0000003c _ZN22TouchTextButtonControlD2Ev
005e4530 g    DO .data.rel.ro	0000001c _ZTV22TouchTextButtonControl
002affac g    DF .text	0000003c _ZN22TouchTextButtonControlD1Ev
002affe8 g    DF .text	00000012 _ZN22TouchTextButtonControlD0Ev
002afffc g    DF .text	00000068 _ZN8Skeleton14_playStepSoundERK8BlockPosi
002b0064  w   DF .text	0000006c _ZN10ClothBlockD0Ev
002b00d0 g    DF .text	00000068 _ZN6Spider14_playStepSoundERK8BlockPosi
002b0138 g    DF .text	0000006c _ZN3Cow14_playStepSoundERK8BlockPosi
002b01a4 g    DF .text	0000006c _ZN10Silverfish14_playStepSoundERK8BlockPosi
002b0210  w   DF .text	0000006c _ZN9WoodBlockD0Ev
002b027c  w   DF .text	00000074 _ZN16LargeImageButtonD0Ev
002b02f0  w   DF .text	00000078 _ZN10CocoaBlockD0Ev
002b0368  w   DF .text	00000058 _ZNSt10shared_ptrI17AttributeModifierED2Ev
002b0368  w   DF .text	00000058 _ZNSt10shared_ptrI17AttributeModifierED1Ev
002b03c0  w   DF .text	00000058 _ZNSt10shared_ptrI13AttributeBuffED2Ev
002b03c0  w   DF .text	00000058 _ZNSt10shared_ptrI13AttributeBuffED1Ev
002b0418  w   DF .text	000000bc _ZN11PotatoBlockD2Ev
005e59a8 g    DO .data.rel.ro	0000017c _ZTV11PotatoBlock
00600ee0 g    DO .data.rel.ro	0000017c _ZTV9CropBlock
002b0418  w   DF .text	000000bc _ZN11PotatoBlockD1Ev
002b04d4  w   DF .text	00000058 _ZNSt10shared_ptrI9AmplifierED2Ev
002b04d4  w   DF .text	00000058 _ZNSt10shared_ptrI9AmplifierED1Ev
002b052c g    DF .text	00000070 _ZN8Skeleton21addAdditionalSaveDataER11CompoundTag
00541078 g    DF .text	00000084 _ZN15HumanoidMonster21addAdditionalSaveDataER11CompoundTag
0037e600 g    DF .text	00000004 _ZN9Minecraft7getUserEv
0050d770 g    DF .text	000000a0 _ZN6Player19filterValidUserNameERKSs
002b0768  w   DF .text	000000c0 _ZN11PotatoBlockD0Ev
002b0954  w   DF .text	0000006c _ZN18DownfallMixerLayerD2Ev
005e1dc8 g    DO .data.rel.ro	0000001c _ZTV18DownfallMixerLayer
002b0954  w   DF .text	0000006c _ZN18DownfallMixerLayerD1Ev
00527d5c g    DF .text	00000004 _ZNK9LevelData14getCurrentTickEv
00000000      DF *UND*	00000000 sprintf
002b0a68  w   DF .text	000000e8 _ZNSt13unordered_mapISsSt6vectorISsSaISsEESt4hashISsESt8equal_toISsESaISt4pairIKSsS2_EEED2Ev
002b0a68  w   DF .text	000000e8 _ZNSt13unordered_mapISsSt6vectorISsSaISsEESt4hashISsESt8equal_toISsESaISt4pairIKSsS2_EEED1Ev
002b0b50  w   DF .text	00000074 _ZN18DownfallMixerLayerD0Ev
002b0bc4  w   DF .text	000000e2 _ZNSt6vectorIN13PotionBrewing3MixISt10shared_ptrIK6PotionEEESaIS6_EED2Ev
002b0bc4  w   DF .text	000000e2 _ZNSt6vectorIN13PotionBrewing3MixISt10shared_ptrIK6PotionEEESaIS6_EED1Ev
002b0ca8  w   DF .text	000000dc _ZN4Json12StyledWriterD2Ev
005e12a0 g    DO .data.rel.ro	00000014 _ZTVN4Json12StyledWriterE
002b0ca8  w   DF .text	000000dc _ZN4Json12StyledWriterD1Ev
002b0d84  w   DF .text	000000e4 _ZN4Json12StyledWriterD0Ev
002b0f20 g    DF .text	000001e4 _ZNK6IntTag8toStringEv
00000000      DF *UND*	00000000 _ZNSolsEi
00527d70 g    DF .text	0000000a _ZN9LevelData14setCurrentTickER4Tick
00303468 g    DF .text	00000010 _ZN16ScreenControllerD2Ev
005e1cb8 g    DO .data.rel.ro	00000088 _ZTV25MinecraftScreenController
002b12d8 g    DF .text	000000c4 _ZN25MinecraftScreenControllerD1Ev
002b139c g    DF .text	00000012 _ZN25MinecraftScreenControllerD0Ev
002b13b0 g    DF .text	0000001c _ZN21PauseScreenControllerD2Ev
005e1d40 g    DO .data.rel.ro	00000088 _ZTV21PauseScreenController
002b13b0 g    DF .text	0000001c _ZN21PauseScreenControllerD1Ev
002b13cc g    DF .text	00000012 _ZN21PauseScreenControllerD0Ev
002b13e0 g    DF .text	0000001c _ZN33CraftingInventoryScreenControllerD2Ev
005e20e8 g    DO .data.rel.ro	00000088 _ZTV33CraftingInventoryScreenController
002b13e0 g    DF .text	0000001c _ZN33CraftingInventoryScreenControllerD1Ev
002b13fc g    DF .text	00000012 _ZN33CraftingInventoryScreenControllerD0Ev
006aef24 g    DO .bss	00000014 _ZN6Player6HUNGERE
002b15ac  w   DF .text	000000e0 _ZZN11ThreadLocalIN21HellRandomLevelSource10ThreadDataEE5_initEvENUlPvE_4_FUNES3_
005f07d8 g    DO .data.rel.ro	00000018 _ZTV20LargeHellCaveFeature
005ed710 g    DO .data.rel.ro	00000030 _ZTV11BiomeSource
002b168c g    DF .text	00000178 _ZN12MakeLoveGoal16canContinueToUseEv
0036ea0c g    DF .text	00000022 _ZNK7Village22checkNeedMoreVillagersEv
0032fbac g    DF .text	00000006 _ZN8Villager16isWillingToBreedEb
002b1a18  w   DF .text	00000144 _ZN13DyePowderItemD2Ev
005e27d8 g    DO .data.rel.ro	000000c8 _ZTV13DyePowderItem
002b1a18  w   DF .text	00000144 _ZN13DyePowderItemD1Ev
002b1b5c g    DF .text	00000130 _ZN23RestorePurchaseDialogueD2Ev
005e1eb0 g    DO .data.rel.ro	00000080 _ZTV23RestorePurchaseDialogue
002b1b5c g    DF .text	00000130 _ZN23RestorePurchaseDialogueD1Ev
002b1c8c g    DF .text	00000012 _ZN23RestorePurchaseDialogueD0Ev
0037d4e8 g    DF .text	00000008 _ZN9Minecraft23getServerNetworkHandlerEv
0037d3c8 g    DF .text	00000010 _ZN9Minecraft14isOnlineClientEv
0037d444 g    DF .text	00000028 _ZN9Minecraft13getServerNameEv
00510a18 g    DF .text	00000070 _ZN20ServerNetworkHandler24allowIncomingConnectionsERKSsb
002b1e14  w   DF .text	00000148 _ZN13DyePowderItemD0Ev
002b1f5c g    DF .text	0000020c _ZN18ShowSkinPackScreenD2Ev
005e5820 g    DO .data.rel.ro	00000114 _ZTV18ShowSkinPackScreen
002b1f5c g    DF .text	0000020c _ZN18ShowSkinPackScreenD1Ev
002b2168 g    DF .text	00000008 _ZThn8_N18ShowSkinPackScreenD1Ev
002b2170 g    DF .text	00000012 _ZN18ShowSkinPackScreenD0Ev
002b2184 g    DF .text	00000008 _ZThn8_N18ShowSkinPackScreenD0Ev
002b218c  w   DF .text	000001dc _ZN21HellRandomLevelSourceD2Ev
00000000      DF *UND*	00000000 pthread_key_delete
005e5f08 g    DO .data.rel.ro	00000050 _ZTV21HellRandomLevelSource
002b218c  w   DF .text	000001dc _ZN21HellRandomLevelSourceD1Ev
002b2368  w   DF .text	00000012 _ZN21HellRandomLevelSourceD0Ev
0042be08 g    DF .text	00000004 _ZNK20MinecraftScreenModel18getHotbarSlotCountEv
00000000      DO *UND*	00000000 _ZTTSt19basic_ostringstreamIcSt11char_traitsIcESaIcEE
00000000      DO *UND*	00000000 _ZTVSt19basic_ostringstreamIcSt11char_traitsIcESaIcEE
002b25bc g    DF .text	00000018 _ZNK33CraftingInventoryScreenController40_indexFromCollectionAndInventoryLocationEi12ItemLocation
002b25d4 g    DF .text	000002fc _ZN12PortalForcer4saveER11CompoundTag
005483a8 g    DF .text	00000020 _ZN6RakNet10RakNetGUIDC1Ev
00547f80 g    DF .text	00000020 _ZN6RakNet13SystemAddressaSERKS0_
002b29b4 g    DF .text	000001a0 _ZNK22TouchTextButtonControl6renderER18InputRenderContext
002b2c7c  w   DF .text	0000011c _ZNSt19_Sp_counted_deleterIP12TextureAtlasNSt12__shared_ptrIS0_LN9__gnu_cxx12_Lock_policyE2EE8_DeleterISaIS0_EEES7_LS4_2EE10_M_disposeEv
002b2d98 g    DF .text	00000140 _ZN8DeadBush16getResourceCountER6Randomii
002b2ed8 g    DF .text	00000168 _ZNK17JungleTreeFeature5placeER11BlockSourceRK8BlockPosR6Random
002b3040 g    DF .text	0000017c _ZN9FloatGoal4tickEv
0032a020 g    DF .text	00000006 _ZN11JumpControl4jumpEv
002b31c0 g    DF .text	00000140 _ZN11PotatoBlock16getResourceCountER6Randomii
002b3300 g    DF .text	00000390 _ZN23AddExternalServerScreenD2Ev
005e45f0 g    DO .data.rel.ro	00000114 _ZTV23AddExternalServerScreen
002b3300 g    DF .text	00000390 _ZN23AddExternalServerScreenD1Ev
002b3690 g    DF .text	00000008 _ZThn8_N23AddExternalServerScreenD1Ev
002b3698 g    DF .text	00000012 _ZN23AddExternalServerScreenD0Ev
002b36ac g    DF .text	00000008 _ZThn8_N23AddExternalServerScreenD0Ev
002b36b4 g    DF .text	000001dc _ZN14TakeFlowerGoal5startEv
002b3890 g    DF .text	0000049c _ZN19ProgressBarRenderer6renderER15MinecraftClientRSt10shared_ptrI9UIControlE
002b3d30  w   DF .text	00000218 _ZN12LavaParticle10normalTickEv
002b3f48 g    DF .text	00000248 _ZN27SilverfishWakeUpFriendsGoal4tickEv
004283b0 g    DF .text	000000d8 _ZN5Level12destroyBlockER11BlockSourceRK8BlockPosb
002b4190  w   DF .text	00000240 _ZN14BubbleParticle4initERK4Vec3S2_iR14ParticleEngine
002b43d0 g    DF .text	00000158 _ZNK5Squid19getExperienceRewardEv
002b4528 g    DF .text	00000124 _ZN33CraftingInventoryScreenController27handleGameEventNotificationEN2UI21GameEventNotificationE
0046e0a8 g    DF .text	0000005c _ZN13ScreenChooser19setDisconnectScreenERKSs
003cfa00 g    DF .text	00000250 _ZNK6Social16XboxLiveGameInfo20getOptimumConnectionEv
003cf97c g    DF .text	00000084 _ZNK6Social16XboxLiveGameInfo26findConnectionMatchingTypeENS_14ConnectionTypeE
0037d4e4 g    DF .text	00000004 _ZN9Minecraft17getRakNetInstanceEv
00451424 g    DF .text	00000094 _ZN14RakNetInstance7connectEN6Social18GameConnectionInfoES1_
002b4930  w   DF .text	000002e4 _ZN12LavaParticle4initERK4Vec3S2_iR14ParticleEngine
002b4c18  w   DF .text	00000124 _ZN15SoundSystemFMODD2Ev
005e4590 g    DO .data.rel.ro	0000005c _ZTV15SoundSystemFMOD
005f72b8 g    DO .data.rel.ro	0000005c _ZTV11SoundSystem
002b4c18  w   DF .text	00000124 _ZN15SoundSystemFMODD1Ev
002b4d3c  w   DF .text	0000012c _ZN15SoundSystemFMODD0Ev
002b4e68 g    DF .text	0000006e _ZN9LavaSlime13dropDeathLootEi
002b4ed8 g    DF .text	000000dc _ZN11PortalBlock4tickER11BlockSourceRK8BlockPosR6Random
003c5270 g    DF .text	00000004 _ZNK9Dimension13getLevelConstEv
0051abd0 g    DF .text	00000040 _ZN11BlockSource20isSolidBlockingBlockEiii
004a9bd8 g    DF .text	000001d8 _ZN17MonsterPlacerItem10spawnMobAtER11BlockSource10EntityTypeRK4Vec3S5_PK12ItemInstance
002b4fb8  w   DF .text	00000368 _ZN15ExplodeParticle4initERK4Vec3S2_iR14ParticleEngine
002b5320  w   DF .text	0000028c _ZN13FlameParticle4initERK4Vec3S2_iR14ParticleEngine
002b55b0  w   DF .text	000003a4 _ZN21SuspendedTownParticle4initERK4Vec3S2_iR14ParticleEngine
002b5958 g    DF .text	000001bc _ZNK13SpruceFeature5placeER11BlockSourceRK8BlockPosR6Random
0037e960 g    DF .text	00000178 _ZNK11TreeFeature13_prepareSpawnER11BlockSourceRK8BlockPosi
00366db8 g    DF .text	00000358 _ZNK11TreeFeature11_placeTrunkER11BlockSourceRK8BlockPosR6Randomi
00366b34 g    DF .text	0000004c _ZNK11TreeFeature10_placeLeafER11BlockSourceRK8BlockPos
002b5b14 g    DF .text	00000100 _ZN3Cow13dropDeathLootEi
006acfa4 g    DO .bss	00000004 _ZN4Item12mBeef_cookedE
006acfa8 g    DO .bss	00000004 _ZN4Item9mBeef_rawE
002b5c14 g    DF .text	000001ac _ZN6Spider13dropDeathLootEi
006acfcc g    DO .bss	00000004 _ZN4Item11mSpider_eyeE
002b5dc0 g    DF .text	00000298 _ZN28SilverfishMergeWithStoneGoal6canUseEv
005279a8 g    DF .text	00000004 _ZN9LevelData12setRainLevelEf
005279b0 g    DF .text	00000004 _ZN9LevelData11setRainTimeEi
00527984 g    DF .text	00000004 _ZN9LevelData17setLightningLevelEf
0052798c g    DF .text	00000004 _ZN9LevelData16setLightningTimeEi
002b6368 g    DF .text	00000090 _ZN5Squid13dropDeathLootEi
002b63f8 g    DF .text	00000084 _ZN11PotatoBlock14spawnResourcesER11BlockSourceRK8BlockPosifi
00517a78 g    DF .text	000001cc _ZN9CropBlock14spawnResourcesER11BlockSourceRK8BlockPosifi
006acfc4 g    DO .bss	00000004 _ZN4Item17mPoisonous_potatoE
002b647c g    DF .text	00000120 _ZN6Rabbit13dropDeathLootEi
006ad058 g    DO .bss	00000004 _ZN4Item11mRabbitHideE
006acf94 g    DO .bss	00000004 _ZN4Item10mRabbitRawE
006acf90 g    DO .bss	00000004 _ZN4Item13mRabbitCookedE
006acf88 g    DO .bss	00000004 _ZN4Item11mRabbitFootE
002b659c g    DF .text	000001f8 _ZNK17GroundBushFeature5placeER11BlockSourceRK8BlockPosR6Random
0037e7d8 g    DF .text	0000001e _ZNK11TreeFeature7_isFreeERK8Material
003671a0 g    DF .text	00000004 _ZNK11TreeFeature12_getLeafTypeEv
003d5108 g    DF .text	00000022 _ZNK7Feature16_setBlockAndDataER11BlockSourceRK8BlockPosRK9FullBlock
002b6bdc g    DF .text	00000122 _ZN6Spider16finalizeMobSpawnEv
002b6d00 g    DF .text	0000040c _ZN11PortalBlock11animateTickER11BlockSourceRK8BlockPosR6Random
002b7110  w   DF .text	00000364 _ZN21HappyVillagerParticle4initERK4Vec3S2_iR14ParticleEngine
002b7478 g    DF .text	00000404 _ZN10Silverfish9spawnAnimEv
002b7880  w   DF .text	000000aa _ZN6Matrix10transform3ER4Vec3Rf
002b792c g    DF .text	00000328 _ZN10SquidModel6renderER6Entityffffff
002b7c54  w   DF .text	00000090 _ZN6Matrix8setOrthoEffffff
002b7ce4 g    DF .text	00000068 _ZN14TextEditScreenC2ER15MinecraftClientP15SignBlockEntity
005e13b0 g    DO .data.rel.ro	0000014c _ZTV14TextEditScreen
002b7ce4 g    DF .text	00000068 _ZN14TextEditScreenC1ER15MinecraftClientP15SignBlockEntity
002b7d4c g    DF .text	00000024 _ZN27SilverfishWakeUpFriendsGoalC2ER10Silverfish
002b7d4c g    DF .text	00000024 _ZN27SilverfishWakeUpFriendsGoalC1ER10Silverfish
002b7d70 g    DF .text	0000000a _ZN27SilverfishWakeUpFriendsGoal10notifyHurtEv
002b7d7c g    DF .text	00000028 _ZN10Silverfish4hurtERK18EntityDamageSourcei
005279b8 g    DF .text	0000009c _ZN7Monster4hurtERK18EntityDamageSourcei
002b7da4 g    DF .text	00000034 _ZN28SilverfishMergeWithStoneGoalC2ER10Silverfish
005e1c40 g    DO .data.rel.ro	0000002c _ZTV28SilverfishMergeWithStoneGoal
002b7da4 g    DF .text	00000034 _ZN28SilverfishMergeWithStoneGoalC1ER10Silverfish
002b7dd8 g    DF .text	0000005c _ZN12TextureGroupC2Ev
002b7dd8 g    DF .text	0000005c _ZN12TextureGroupC1Ev
002b7e34 g    DF .text	0000003a _ZN12TextureGroup9unloadAllEv
0043a3e0 g    DF .text	00000006 _ZN11TextureData6unloadEv
002b7e70 g    DF .text	00000038 _ZN15MinecraftClient14onAppSuspendedEv
00437ba4 g    DF .text	00000010 _ZN3mce4Mesh18clearGlobalBuffersEv
002b7ea8 g    DF .text	0000003a _ZN12TextureGroup9reloadAllEv
0043a39c g    DF .text	00000044 _ZN11TextureData4loadEv
002b7ee4 g    DF .text	000000dc _ZN12TextureGroup10_removeRefERN3mce10TexturePtrE
002b7fc0 g    DF .text	00000060 _ZN12TextureGroup18getInternalNameForE14DynamicTexture
002b802c g    DF .text	0000005c _ZN12TextureGroup10getTextureE14DynamicTexture
002b80b8 g    DF .text	000000ba _ZN12TextureGroup23removeManualTextureDataER11TextureData
002b8174 g    DF .text	000001e8 _ZN7Palette8getColorE12PaletteColor
006475a4 g    DO .bss	00000010 _ZN7Palette5WHITEE
00647594 g    DO .bss	00000010 _ZN7Palette6ORANGEE
00647584 g    DO .bss	00000010 _ZN7Palette7MAGENTAE
00647574 g    DO .bss	00000010 _ZN7Palette10LIGHT_BLUEE
00647564 g    DO .bss	00000010 _ZN7Palette6YELLOWE
00647554 g    DO .bss	00000010 _ZN7Palette11LIGHT_GREENE
00647544 g    DO .bss	00000010 _ZN7Palette4PINKE
00647534 g    DO .bss	00000010 _ZN7Palette4GRAYE
00647524 g    DO .bss	00000010 _ZN7Palette6SILVERE
006474e4 g    DO .bss	00000010 _ZN7Palette5BROWNE
00647514 g    DO .bss	00000010 _ZN7Palette4CYANE
00647504 g    DO .bss	00000010 _ZN7Palette6PURPLEE
006474f4 g    DO .bss	00000010 _ZN7Palette4BLUEE
006474d4 g    DO .bss	00000010 _ZN7Palette5GREENE
006474c4 g    DO .bss	00000010 _ZN7Palette3REDE
006474b4 g    DO .bss	00000010 _ZN7Palette5BLACKE
002b835c g    DF .text	00000002 _ZN7Palette8fromByteEh
002b8360 g    DF .text	00000028 _ZN13FlowerFeatureC2E7BlockID
005e1ca0 g    DO .data.rel.ro	00000014 _ZTV13FlowerFeature
002b8360 g    DF .text	00000028 _ZN13FlowerFeatureC1E7BlockID
002b8388 g    DF .text	0000032c _ZNK13FlowerFeature11placeFlowerER11BlockSourceRK8BlockPos9FullBlockR6Random
002b86b4 g    DF .text	0000001c _ZNK13FlowerFeature5placeER11BlockSourceRK8BlockPosR6Random
002b86d0 g    DF .text	000000bc _ZN18DownfallMixerLayerC2ESt10shared_ptrI5LayerERS2_i
002b86d0 g    DF .text	000000bc _ZN18DownfallMixerLayerC1ESt10shared_ptrI5LayerERS2_i
002b878c g    DF .text	00000008 _ZN10LightLayerC2Ei10Brightness
002b878c g    DF .text	00000008 _ZN10LightLayerC1Ei10Brightness
002b8794 g    DF .text	0000000c _ZNK10LightLayereqERKS_
002b87a0 g    DF .text	00000024 _ZN3mce15UniformMetaDataC2Ev
002b87c4 g    DF .text	00000044 _ZN3mce15UniformMetaDataD2Ev
002b8808 g    DF .text	00000006 _ZNK3mce15UniformMetaData23getUniformPrimitiveSizeEv
002b8810 g    DF .text	0000000a _ZNK3mce15UniformMetaData17getElementsExtentEv
002b8834 g    DF .text	00000028 _ZN13SpruceFeatureC2Eb
005e1de8 g    DO .data.rel.ro	00000014 _ZTV13SpruceFeature
002b885c g    DF .text	00000002 _ZN11Tessellator4initEv
002b8860 g    DF .text	00000040 _ZN11Tessellator5clearEv
0064677c g    DO .bss	00000008 _ZN3mce12VertexFormat5EMPTYE
002b88a0 g    DF .text	00000008 _ZN11Tessellator6cancelEv
002b88a8 g    DF .text	00000006 _ZN11Tessellator8getColorEv
002b88b0 g    DF .text	00000004 _ZNK11Tessellator15getVertexFormatEv
002b88b4 g    DF .text	00000006 _ZNK11Tessellator14isTessellatingEv
002b88bc g    DF .text	00000022 _ZN11Tessellator7scale2dEff
002b88e0 g    DF .text	00000032 _ZN11Tessellator7scale3dEfff
002b8914 g    DF .text	00000010 _ZN11Tessellator10resetScaleEv
002b8924 g    DF .text	0000005e _ZN11Tessellator16_allocateIndicesEi
002b8a20 g    DF .text	0000000c _ZN11Tessellator4quadEb
002b8a2c g    DF .text	00000008 _ZN11Tessellator7noColorEv
002b8ab4 g    DF .text	00000100 _ZN11Tessellator14rotationOffsetEfRK4Vec3
002b8bb4 g    DF .text	00000006 _ZNK11Tessellator14getVertexCountEv
004379c4 g    DF .text	0000005c _ZN3mce4MeshC1ERKNS_12VertexFormatEjjhNS_13PrimitiveModeEPhb
00437a8c g    DF .text	00000028 _ZN3mce4MeshC1EOS0_
002b8cd4 g    DF .text	00000050 _ZN11Tessellator4drawERKN3mce11MaterialPtrE
002b8d84 g    DF .text	00000064 _ZN11Tessellator4drawERKN3mce11MaterialPtrERKNS0_10TexturePtrES6_
002b8df0 g    DF .text	00000008 _ZN11Tessellator11enableColorEv
002b8df8 g    DF .text	00000008 _ZN11Tessellator4tiltEv
002b8e00 g    DF .text	00000008 _ZN11Tessellator9resetTiltEv
002b8e08 g    DF .text	00000008 _ZNK11Tessellator11getByteSizeEv
002b8e10 g    DF .text	00000014 _ZN11Tessellator4trimEv
002b8e24 g    DF .text	0000005a _ZNK11Tessellator15getPolygonCountEv
002b8e80 g    DF .text	00000048 _ZN20MoveEntityPacketDataC2ER6Entity
002b8fe4 g    DF .text	000000a0 _ZN16MinecartRendererC2ER12TextureGroup
00536b20 g    DF .text	00000290 _ZN13MinecartModelC1Ev
002b8fe4 g    DF .text	000000a0 _ZN16MinecartRendererC1ER12TextureGroup
002b9084 g    DF .text	00000020 _ZN16MinecartRenderer22renderMinecartContentsER6EntityfP5Blocki
002b90a4 g    DF .text	00000024 _ZN23HealthAttributeDelegateC2ERK17AttributeInstanceP3Mob
003796e0 g    DF .text	0000001c _ZN25AttributeInstanceDelegateC2ERK17AttributeInstance
002b90c8 g    DF .text	0000001a _ZN23RestorePurchaseDialogue13buttonClickedEPK6ButtonP15MinecraftClient
002b90e4 g    DF .text	00000040 _ZN17FoodItemComponentC2ER4Item
002b90e4 g    DF .text	00000040 _ZN17FoodItemComponentC1ER4Item
002b9124 g    DF .text	00000004 _ZNK17FoodItemComponent12getNutritionEv
002b9128 g    DF .text	00000004 _ZNK17FoodItemComponent21getSaturationModifierEv
002b912c g    DF .text	0000007c _ZN17FoodItemComponent3useER12ItemInstanceR6Player
00512604 g    DF .text	00000044 _ZNK6Player8isHungryEv
0050c778 g    DF .text	0000003c _ZN6Player14startUsingItemE12ItemInstancei
006ad094 g    DO .bss	00000004 _ZN4Item11mApple_goldE
006ad090 g    DO .bss	00000004 _ZN4Item16mApple_enchantedE
002b91a8 g    DF .text	00000004 _ZN17FoodItemComponent5useOnER12ItemInstanceR6PlayerRK8BlockPosaRK4Vec3
002b91b0 g    DF .text	00000210 _ZN17FoodItemComponent16_applyEatEffectsER12ItemInstanceR6PlayerR5Level
002b93c0 g    DF .text	00000218 _ZN17FoodItemComponent15useTimeDepletedER12ItemInstanceR6PlayerR5Level
0053ea18 g    DF .text	00000078 _ZN6Player3eatERK12ItemInstance
004c02dc g    DF .text	000000fc _ZN4Item12lookupByNameERKSsb
002b95d8 g    DF .text	0000001e _ZN4AABBC2Ev
002b95f8 g    DF .text	00000094 _ZN4AABBC2Effffff
002b968c g    DF .text	0000009c _ZN4AABBC2ERK4Vec3S2_
002b9728 g    DF .text	0000003a _ZN4AABBC2ERK4Vec3f
002b9728 g    DF .text	0000003a _ZN4AABBC1ERK4Vec3f
002b97fc g    DF .text	0000009e _ZN4AABB10fromPointsERK4Vec3S2_
002b9a48 g    DF .text	00000068 _ZNK4AABB10translatedERK4Vec3
002b9ab0 g    DF .text	000000b0 _ZNK4AABB5mergeERKS_
002b9bc8 g    DF .text	000000a8 _ZN14TakeFlowerGoal6canUseEv
002b9c70 g    DF .text	0000029c _ZN8PlayGoal6canUseEv
0032fba4 g    DF .text	00000006 _ZNK8Villager9isChasingEv
002b9f0c g    DF .text	000004a0 _ZN12MakeLoveGoal6canUseEv
003306b8 g    DF .text	00000008 _ZN8Villager9stopGoalsEv
002ba69c g    DF .text	00000076 _ZNK4AABB15intersectsInnerERKS_
002ba714 g    DF .text	00000150 _ZNK4AABB10intersectsERK4Vec3S2_
002ba8c8 g    DF .text	0000004c _ZN11PortalBlock7getAABBER11BlockSourceRK8BlockPosR4AABBibi
002ba914 g    DF .text	0000005a _ZN9WallBlock7getAABBER11BlockSourceRK8BlockPosR4AABBibi
002ba9c8 g    DF .text	0000006a _ZNK4AABB8containsERK4Vec3
002bac14 g    DF .text	00000114 _ZN9SignBlock7getAABBER11BlockSourceRK8BlockPosR4AABBibi
002bad28 g    DF .text	000002d0 _ZNK4AABB8toStringEv
002baff8 g    DF .text	00000004 _ZNK4AABB7isEmptyEv
0032a648 g    DF .text	00000030 _ZN9HitResultC1ERK8BlockPosaRK4Vec3
002bb7c4 g    DF .text	00000050 _ZNK4AABB17flooredCeiledCopyEv
00000000      DF *UND*	00000000 ceilf
002bb814 g    DF .text	00000042 _ZNK4AABB9getCenterEv
002bb908 g    DF .text	00000004 _ZNK4AABB5isNanEv
002bb90c g    DF .text	00000154 _ZN13TrapDoorBlockC2ERKSsiRK8Material
002bb90c g    DF .text	00000154 _ZN13TrapDoorBlockC1ERKSsiRK8Material
002bba60 g    DF .text	0000008e _ZN13TrapDoorBlock7setOpenER11BlockSourceRK8BlockPosb
002bbaf0 g    DF .text	0000000c _ZN13TrapDoorBlock16onRedstoneUpdateER11BlockSourceRK8BlockPosib
002bbafc g    DF .text	0000000e _ZN13TrapDoorBlock6getDirEi
002bbb0c g    DF .text	00000006 _ZN13TrapDoorBlock7_isOpenEh
002bbb14 g    DF .text	0000005c _ZN13TrapDoorBlock11_attachesToE7BlockID
003803b8 g    DF .text	0000000c _ZNK8Material15isSolidBlockingEv
006ac038 g    DO .bss	00000004 _ZN5Block10mGlowStoneE
002bbb70 g    DF .text	00000088 _ZN13TrapDoorBlock15neighborChangedER11BlockSourceRK8BlockPosS4_
002bbbf8 g    DF .text	0000004e _ZN13TrapDoorBlock8mayPlaceER11BlockSourceRK8BlockPosa
002bbc48 g    DF .text	00000006 _ZN13TrapDoorBlock13_isUpsideDownEh
002bbc50 g    DF .text	0000014c _ZN13TrapDoorBlock14getVisualShapeEhR4AABBb
002bbd9c g    DF .text	00000090 _ZN18ScrollbarComponentC2ERSt10shared_ptrI9UIControlE
0031d818 g    DF .text	00000038 _ZN3mce16VerletIntegratorC1Ev
002bbd9c g    DF .text	00000090 _ZN18ScrollbarComponentC1ERSt10shared_ptrI9UIControlE
002bbe2c g    DF .text	00000028 _ZNK18ScrollbarComponent22getScrollbarBoxControlEv
002bbe54 g    DF .text	0000005e _ZN18ScrollbarComponent22setScrollbarBoxControlERSt10shared_ptrI9UIControlE
002bbeb4 g    DF .text	00000006 _ZN18ScrollbarComponent26setScrollbarBoxTrackButtonEs
002bbebc g    DF .text	00000006 _ZN18ScrollbarComponent23setScrollbarTouchButtonEs
002bbec4 g    DF .text	00000006 _ZN18ScrollbarComponent12setDampeningEf
00573a6c g    DF .text	0000007c __aeabi_l2f
002bbecc g    DF .text	00000098 _ZN18ScrollbarComponent24_addTouchScrollingSampleERKN3glm6detail5tvec2IfEES5_RKNSt6chrono10time_pointINS6_3_V212steady_clockENS6_8durationIxSt5ratioILx1ELx1000000000EEEEEE
002bbf64 g    DF .text	0000005e _ZN18ScrollbarComponent27_resetTouchScrollingSamplesEv
002bbfc4 g    DF .text	0000002c _ZN18ScrollbarComponent28_getLastTouchScrollingSampleEv
002bbff0 g    DF .text	00000062 _ZN18ScrollbarComponent51_addTouchScrollingSampleBasedOnLastPointerMoveEventEv
002bc054 g    DF .text	0000000a _ZN18ScrollbarComponent32animationPollPointerLocationDataERKN3mce8TimeStepE
002bc060 g    DF .text	00000238 _ZNK18ScrollbarComponent23_getScrollableContainerEv
002bc298 g    DF .text	00000134 _ZN33CraftingInventoryScreenController25_handleCraftingOutTakeOneEv
00450630 g    DF .text	00000024 _ZN20MinecraftScreenModel18takeItemFromResultE15ScreenItemStack
002bc3cc g    DF .text	00000006 _ZN33CraftingInventoryScreenController25_handleCraftingOutTakeMaxEv
0047f8c0 g    DF .text	000000d0 _ZN20MinecraftScreenModel23autoPlaceMaxResultStackEv
002bc3d4 g    DF .text	00000028 _ZN17JungleTreeFeatureC2Eb
005e2170 g    DO .data.rel.ro	00000014 _ZTV17JungleTreeFeature
002bc3d4 g    DF .text	00000028 _ZN17JungleTreeFeatureC1Eb
002bc3fc g    DF .text	0000009c _ZN17RedstoneLampBlockC2ERKSsib
002bc3fc g    DF .text	0000009c _ZN17RedstoneLampBlockC1ERKSsib
002bc49c g    DF .text	000000b2 _ZNK6Social9Telemetry16TelemetryManager17getCommonPropertyESs
00573870 g    DF .text	0000005a __aeabi_l2d
002bc908 g    DF .text	00000060 _ZNK6Social9Telemetry16TelemetryManager26needToSendAggregatedEventsEv
002bc968 g    DF .text	00000018 _ZN6Social9Telemetry16TelemetryManager21onThrottledConnectionEv
004ae5ac g    DF .text	00000004 _ZNK5Block13getPropertiesEv
002bc9a4 g    DF .text	00000034 _ZN9LavaSlimeC2ER11BlockSource
004b9c40 g    DF .text	00000150 _ZN5SlimeC2ER11BlockSource
005e22f8 g    DO .data.rel.ro	000003a8 _ZTV9LavaSlime
002bc9d8 g    DF .text	00000244 _ZN9LavaSlime11createChildEi
002bcc20 g    DF .text	00000324 _ZN5ModelC1Ev
002bcf44 g    DF .text	00000040 _ZNK5Model9buildAABBEv
00517234 g    DF .text	0000001e _ZN9ModelPart10expandAABBER4AABB
002bcfa0 g    DF .text	000007e4 _ZN14ParticleEngine7_createE12ParticleType
0043e964 g    DF .text	0000005c _ZN12NoteParticleC1ER11BlockSource12ParticleType
00525b9c g    DF .text	00000028 _ZN15TrackingEmitterC1ER11BlockSource12ParticleType
00368960 g    DF .text	0000002c _ZN23EnchantingTableParticleC1ER11BlockSource12ParticleType
005174ac g    DF .text	0000001c _ZN18RainSplashParticleC1ER11BlockSource12ParticleType
00429660 g    DF .text	00000064 _ZN17WaterWakeParticleC1ER11BlockSource12ParticleType
00517490 g    DF .text	0000001c _ZN14SplashParticleC1ER11BlockSource12ParticleType
005e0a70  w   DO .data.rel.ro	00000024 _ZTV21SuspendedTownParticle
005e0a98  w   DO .data.rel.ro	00000024 _ZTV21HappyVillagerParticle
005e1e00 g    DO .data.rel.ro	00000024 _ZTV13HeartParticle
005e0810  w   DO .data.rel.ro	00000024 _ZTV21AngryVillagerParticle
006ad040 g    DO .bss	00000004 _ZN4Item10mSlimeBallE
005e09f8  w   DO .data.rel.ro	00000024 _ZTV20BreakingItemParticle
005e0a48  w   DO .data.rel.ro	00000024 _ZTV11InkParticle
005e0a20  w   DO .data.rel.ro	00000024 _ZTV13SpellParticle
005e08b8  w   DO .data.rel.ro	00000024 _ZTV19FallingDustParticle
00381e24 g    DF .text	00000030 _ZN15TerrainParticleC1ER11BlockSource12ParticleType
003da000 g    DF .text	00000088 _ZN16MobFlameParticleC1ER11BlockSource12ParticleType
0050fe38 g    DF .text	00000020 _ZN21HugeExplosionParticleC1ER11BlockSource12ParticleType
005f14b0 g    DO .data.rel.ro	00000024 _ZTV14PortalParticle
006ad070 g    DO .bss	00000004 _ZN4Item9mSnowBallE
005e09a8  w   DO .data.rel.ro	00000024 _ZTV15RedDustParticle
005e0980  w   DO .data.rel.ro	00000024 _ZTV12LavaParticle
005e0958  w   DO .data.rel.ro	00000024 _ZTV13FlameParticle
005e0930  w   DO .data.rel.ro	00000024 _ZTV15ExplodeParticle
005e09d0  w   DO .data.rel.ro	00000024 _ZTV13SmokeParticle
005e0908  w   DO .data.rel.ro	00000024 _ZTV12CritParticle
005e08e0  w   DO .data.rel.ro	00000024 _ZTV14BubbleParticle
002bd784 g    DF .text	00000042 _ZN14ParticleEngine4_getE12ParticleType
002bd7c8 g    DF .text	0000026c _ZN14ParticleEngine5crackEP6EntityRK8BlockPosa
003251a8 g    DF .text	00000040 _ZN8Particle8setPowerEf
003251e8 g    DF .text	00000028 _ZN8Particle5scaleEf
006abf7c g    DO .bss	00000004 _ZN5Block6mSkullE
002bda38 g    DF .text	000001f4 _ZN14ParticleEngine14countParticlesEv
002bdc2c g    DF .text	000000a0 _ZN14ParticleEngine5clearEv
002bdccc g    DF .text	00000008 _ZN14ParticleEngine8setLevelEP5Level
002bdcd4 g    DF .text	000001ec _ZN14ParticleEngineC2ER7OptionsR5LevelR12TextureGroupR15SeasonsRenderer
002bdcd4 g    DF .text	000001ec _ZN14ParticleEngineC1ER7OptionsR5LevelR12TextureGroupR15SeasonsRenderer
002bdec0 g    DF .text	000000f0 _ZN14ParticleEngineD2Ev
002bdec0 g    DF .text	000000f0 _ZN14ParticleEngineD1Ev
002bdfb0 g    DF .text	000001b4 _ZN12PropertyFile20savePropertiesToFileERKSsRKSt6vectorINS_8PropertyESaIS3_EE
002be164 g    DF .text	000001ac _ZN12PropertyFile21savePropertyMapToFileERKSsRKSt3mapISsSsSt4lessISsESaISt4pairIS0_SsEEE
002be310 g    DF .text	00000068 _ZN8GameModeC1ER12PacketSenderR5LevelR11SoundPlayerR9Vibration
002be378 g    DF .text	0000021c _ZN8GameMode21_destroyBlockInternalER6Player8BlockPosa
004adc68 g    DF .text	00000028 _ZN5Block13destroyEffectER11BlockSourceRK8BlockPosRK4Vec3f
006abf34 g    DO .bss	00000004 _ZN5Block8mLeaves2E
005e0b00  w   DO .data.rel.ro	00000020 _ZTV17RemoveBlockPacket
0050cc5c g    DF .text	00000008 _ZN6Player10canDestroyER5Block
00323f7c g    DF .text	0000002e _ZN12ItemInstance9mineBlockE7BlockIDiiiP3Mob
002be6b8 g    DF .text	0000004a _ZN8GameMode21_creativeDestroyBlockER6Player8BlockPosa
004276a0 g    DF .text	00000148 _ZN5Level14extinguishFireER11BlockSourceiiia
002bec34 g    DF .text	00000004 _ZN8GameMode21getOldDestroyProgressEv
002bec38 g    DF .text	00000004 _ZN8GameMode18getDestroyProgressEv
002bec3c g    DF .text	00000058 _ZN8GameMode25_releaseUsingItemInternalER6Player
0050c840 g    DF .text	00000026 _ZN6Player16releaseUsingItemEv
002bed14 g    DF .text	0000002c _ZN8GameMode14getHitProgressEf
002bed40 g    DF .text	0000000e _ZN8GameMode19toggleLongPickRangeEv
002bed50 g    DF .text	00000010 _ZN3mce9ShaderOGL12deleteShaderEv
00000000      DF *UND*	00000000 glDeleteProgram
002bed60 g    DF .text	000000e4 _ZN3mce9ShaderOGLD2Ev
00423330 g    DF .text	00000002 _ZN3mce10ShaderBaseD2Ev
002bed60 g    DF .text	000000e4 _ZN3mce9ShaderOGLD1Ev
002bee44 g    DF .text	00000038 _ZN3mce9ShaderOGL22finalizeShaderUniformsEv
002bee7c g    DF .text	00000002 _ZN3mce9ShaderOGL20compileAndLinkShaderEv
002bee80 g    DF .text	0000000e _ZN3mce9ShaderOGL21freeCompilerResourcesEv
00000000      DF *UND*	00000000 glReleaseShaderCompiler
00000000      DF *UND*	00000000 glGetError
002bee90 g    DF .text	0000000e _ZN3mce9ShaderOGL16resetLastProgramEv
00573b20 g    DF .text	00000000 __aeabi_uldivmod
002beea0 g    DF .text	00000090 _ZN4Json13valueToStringEx
002bef30 g    DF .text	00000078 _ZN4Json13valueToStringEy
002befa8 g    DF .text	00000010 _ZN4Json13valueToStringEi
002befb8 g    DF .text	00000010 _ZN4Json13valueToStringEj
002befc8 g    DF .text	0000009c _ZN4Json13valueToStringEd
002bf064 g    DF .text	00000028 _ZN4Json13valueToStringEb
002bf08c g    DF .text	00000488 _ZN4Json19valueToQuotedStringEPKc
00000000      DF *UND*	00000000 strpbrk
002bf514 g    DF .text	00000028 _ZN4Json10FastWriterC2Ev
002bf514 g    DF .text	00000028 _ZN4Json10FastWriterC1Ev
002bf53c g    DF .text	00000006 _ZN4Json10FastWriter23enableYAMLCompatibilityEv
002bf544 g    DF .text	00000270 _ZN4Json10FastWriter10writeValueERKNS_5ValueE
004cc154 g    DF .text	000000e0 _ZNK4Json5Value14getMemberNamesEv
004a6540 g    DF .text	00000008 _ZNK4Json5Value12asLargestIntEv
004a6548 g    DF .text	00000008 _ZNK4Json5Value13asLargestUIntEv
004a63c8 g    DF .text	00000004 _ZNK4Json5Value9asCStringEv
002bf7b4 g    DF .text	00000040 _ZN4Json10FastWriter5writeERKNS_5ValueE
002bf7f4 g    DF .text	00000038 _ZN4Json12StyledWriterC2Ev
002bf7f4 g    DF .text	00000038 _ZN4Json12StyledWriterC1Ev
002bf82c g    DF .text	0000008c _ZN4Json12StyledWriter11writeIndentEv
002bf8b8 g    DF .text	00000018 _ZN4Json12StyledWriter15writeWithIndentERKSs
002bf8d0 g    DF .text	0000005c _ZN4Json12StyledWriter6indentEv
002bf92c g    DF .text	00000014 _ZN4Json12StyledWriter8unindentEv
00000000      DF *UND*	00000000 _ZNSs6resizeEjc
002bf940 g    DF .text	0000002a _ZN4Json12StyledWriter18hasCommentForValueERKNS_5ValueE
004a7440 g    DF .text	00000010 _ZNK4Json5Value10hasCommentENS_16CommentPlacementE
002bf96c g    DF .text	000000e0 _ZN4Json12StyledWriter12normalizeEOLERKSs
002bfa4c g    DF .text	000000b0 _ZN4Json12StyledWriter23writeCommentBeforeValueERKNS_5ValueE
004a7450 g    DF .text	00000040 _ZNK4Json5Value10getCommentENS_16CommentPlacementE
002bfafc g    DF .text	000001b0 _ZN4Json12StyledWriter32writeCommentAfterValueOnSameLineERKNS_5ValueE
002bfcac g    DF .text	0000002c _ZN4Json18StyledStreamWriterC2ESs
002bfcac g    DF .text	0000002c _ZN4Json18StyledStreamWriterC1ESs
002bfcd8 g    DF .text	00000024 _ZN4Json18StyledStreamWriter11writeIndentEv
002bfcfc g    DF .text	0000001a _ZN4Json18StyledStreamWriter15writeWithIndentERKSs
002bfd18 g    DF .text	0000000a _ZN4Json18StyledStreamWriter6indentEv
002bfd24 g    DF .text	00000018 _ZN4Json18StyledStreamWriter8unindentEv
002bfd3c g    DF .text	0000002a _ZN4Json18StyledStreamWriter18hasCommentForValueERKNS_5ValueE
002bfd68 g    DF .text	000000e0 _ZN4Json18StyledStreamWriter12normalizeEOLERKSs
002bfe48 g    DF .text	000000b4 _ZN4Json18StyledStreamWriter23writeCommentBeforeValueERKNS_5ValueE
002bfefc g    DF .text	000001b4 _ZN4Json18StyledStreamWriter32writeCommentAfterValueOnSameLineERKNS_5ValueE
002c00b0 g    DF .text	000000d0 _ZN17SnowGolemRendererC2ER12TextureGroupR16BlockTessellator
0043ea58 g    DF .text	00000214 _ZN14SnowGolemModelC1Ev
002c00b0 g    DF .text	000000d0 _ZN17SnowGolemRendererC1ER12TextureGroupR16BlockTessellator
002c0180 g    DF .text	00000038 _ZN11LookControlC2ER3Mob
005e2770 g    DO .data.rel.ro	00000014 _ZTV11LookControl
002c021c g    DF .text	000000bc _ZN15RecieveLoveGoal4tickEv
002c02d8 g    DF .text	000000ca _ZN14TakeFlowerGoal4tickEv
0042f854 g    DF .text	00000010 _ZN9IronGolem11offerFlowerEb
002c03c0 g    DF .text	000000d4 _ZN12EnchantUtils15getEnchantCostsERK12ItemInstancei
0032304c g    DF .text	0000000e _ZNK12ItemInstance15getEnchantValueEv
002c04d0 g    DF .text	0000002e _ZN12EnchantUtils22determineCompatibilityEi
0032306c g    DF .text	00000048 _ZNK12ItemInstance23getEnchantsFromUserDataEv
002c059c g    DF .text	0000004a _ZN12EnchantUtils10hasEnchantEiRK12ItemInstance
002c05e8 g    DF .text	00000056 _ZN12EnchantUtils17getRandomItemWithEiR3Mob
002c09c0 g    DF .text	000000a0 _ZN12EnchantUtils19doPostDamageEffectsER3MobS1_
002c0a60 g    DF .text	00000014 _ZN12EnchantUtils16isCompatibleWithEii
002c0a74 g    DF .text	000001cc _ZN12EnchantUtils13getRandomNameEv
006469cc g    DO .bss	0000000c _ZN12EnchantUtils17mEnchantmentNamesE
002c0c40 g    DF .text	00000054 _ZN12EnchantUtils17_convertBookCheckER12ItemInstance
006ad044 g    DO .bss	00000004 _ZN4Item5mBookE
006acf64 g    DO .bss	00000004 _ZN4Item15mEnchanted_bookE
002c0c94 g    DF .text	00000048 _ZN12EnchantUtils12applyEnchantER12ItemInstanceRK19EnchantmentInstance
00322fbc g    DF .text	00000090 _ZN12ItemInstance22saveEnchantsToUserDataERK12ItemEnchants
002c0cdc g    DF .text	00000018 _ZN12EnchantUtils12applyEnchantER12ItemInstanceii
002c0cf4 g    DF .text	00000024 _ZN12EnchantUtils21generateEnchantedBookERK19EnchantmentInstance
002c0d18 g    DF .text	00000044 _ZN12EnchantUtils12applyEnchantER12ItemInstanceRK12ItemEnchants
002c0d5c g    DF .text	00000024 _ZN12EnchantUtils21generateEnchantedBookERK12ItemEnchants
002c0d80 g    DF .text	0000008e _ZN12EnchantUtils21combineEnchantedItemsERK12ItemInstanceS2_RS0_b
002c0e10 g    DF .text	00000074 _ZN10PathFinderC2EP11BlockSourcebbbb
00499e60 g    DF .text	00000014 _ZN10BinaryHeapC1Ev
002c0e10 g    DF .text	00000074 _ZN10PathFinderC1EP11BlockSourcebbbb
002c0e84 g    DF .text	00000038 _ZN10PathFinderD2Ev
00499e74 g    DF .text	00000010 _ZN10BinaryHeapD1Ev
002c0e84 g    DF .text	00000038 _ZN10PathFinderD1Ev
002c0ebc g    DF .text	000000e8 _ZN10PathFinder13_classifyNodeEP6EntityRK8BlockPos7BlockIDS4_
002c0fa4 g    DF .text	0000002e _ZN10PathFinder13_classifyNodeEP6EntityRK8BlockPosS4_
002c0fd4 g    DF .text	000002b0 _ZN10PathFinder28_findNearestPathableNeighborER8BlockPosP6EntityRKS0_
002c1284 g    DF .text	0000011c _ZN10PathFinder7_isFreeEP6EntityRK8BlockPosS4_P4Node
002c13a0 g    DF .text	000000a4 _ZN10PathFinder16_reconstructPathEP4NodeS1_
002c1444 g    DF .text	00000010 _ZN4I18n14chooseLanguageERK12Localization
00646974 g    DO .bss	00000004 _ZN4I18n16mCurrentLanguageE
002c1454 g    DF .text	0000000c _ZN4I18n19getSupportedLocalesEv
00646968 g    DO .bss	0000000c _ZN4I18n10mLanguagesE
002c1460 g    DF .text	00000174 _ZN4I18n12getLocaleForERKSs
0032d790 g    DF .text	0000000e _ZNK12Localization19getFullLanguageCodeEv
0032d764 g    DF .text	00000028 _ZN12Localization15getLanguageCodeERKSs
0032d7a0 g    DF .text	0000000e _ZNK12Localization15getLanguageCodeEv
002c15d4 g    DF .text	0000000e _ZN4I18n14chooseLanguageERKSs
002c15e4 g    DF .text	00000078 _ZN4I18n3getERKSsRKSt6vectorISsSaISsEE
0033dda8 g    DF .text	00000064 _ZNK12Localization3getERKSsRSsRKSt6vectorISsSaISsEE
002c165c g    DF .text	00000010 _ZN4I18n18getCurrentLanguageEv
002c166c g    DF .text	00000002 _ZN4I18n21_initFormatDictionaryEv
002c1670 g    DF .text	00000014 _ZN4I18n13_getKeyExistsERKSs
0033d928 g    DF .text	00000014 _ZNK12Localization17getStringIdExistsERKSs
002c1684 g    DF .text	00000002 _ZN13FishRewardMgr12getTrashListEv
002c1688 g    DF .text	00000004 _ZN13FishRewardMgr15getTreasureListEv
002c168c g    DF .text	00000004 _ZN13FishRewardMgr11getFishListEv
002c1690 g    DF .text	0000006e _ZN13FishRewardMgrD2Ev
002c1690 g    DF .text	0000006e _ZN13FishRewardMgrD1Ev
002c1700 g    DF .text	00000024 _ZN13FishRewardMgr9DeletePtrEv
0064694c g    DO .bss	00000004 g_fishRewardMgr
002c1724 g    DF .text	00000028 _ZN10FishRewardC2ERK12ItemInstancei
002c1724 g    DF .text	00000028 _ZN10FishRewardC1ERK12ItemInstancei
002c174c g    DF .text	00000004 _ZN10FishReward9setDamageEf
002c1750 g    DF .text	00000008 _ZN10FishReward12setEnchantedEv
002c1758 g    DF .text	0000024c _ZN5SquidC2ER11BlockSource
003eb9d8 g    DF .text	00000020 _ZN11WaterAnimalC2ER11BlockSource
005088a0 g    DF .text	00000034 _ZN11MoveControlC2ER3Mob
003ba018 g    DF .text	00000018 _ZN9AgableMob10updateSizeEb
005e28a0 g    DO .data.rel.ro	0000037c _ZTV5Squid
005e0b40  w   DO .data.rel.ro	00000014 _ZTV16SquidMoveControl
002c19a8 g    DF .text	00000268 _ZN5Squid13_randomInkDirEv
002c1c10 g    DF .text	0000053c _ZN5Squid6aiStepEv
00412e30 g    DF .text	00000154 _ZN9AgableMob6aiStepEv
002c2150 g    DF .text	000000d8 _ZN5Squid17spawnInkParticlesEv
002c2228 g    DF .text	00000038 _ZN5Squid4hurtERK18EntityDamageSourcei
002c2260 g    DF .text	0000000c _ZN5Squid17handleEntityEventE11EntityEvent
002c226c g    DF .text	000000c6 _ZN5Squid15getWaterHeightsERhRfS1_
002c2338 g    DF .text	00000308 _ZN5Squid21chooseRandomDirectionER4Vec3
002c2640 g    DF .text	00000008 _ZN5Squid5setTxEf
002c2648 g    DF .text	00000008 _ZN5Squid5getTyEv
002c2650 g    DF .text	00000008 _ZN5Squid5setTyEf
002c2658 g    DF .text	00000008 _ZN5Squid5setTzEf
002c2660 g    DF .text	00000150 _ZN13SquidIdleGoal4tickEv
002c27b0 g    DF .text	00000032 _ZN19SquidOutOfWaterGoal5startEv
002c27e8 g    DF .text	00000234 _ZN13SquidDiveGoal5startEv
002c2a20 g    DF .text	00000008 _ZNK5Squid11getXBodyRotEv
002c2a28 g    DF .text	0000000a _ZN5Squid11setXBodyRotERf
002c2a34 g    DF .text	00000008 _ZNK5Squid12getXBodyRotOEv
002c2a3c g    DF .text	0000000a _ZN5Squid12setXBodyRotOERf
002c2a48 g    DF .text	00000008 _ZNK5Squid11getZBodyRotEv
002c2a50 g    DF .text	0000000a _ZN5Squid11setZBodyRotERf
002c2a5c g    DF .text	00000008 _ZNK5Squid12getZBodyRotOEv
002c2a64 g    DF .text	0000000a _ZN5Squid12setZBodyRotOERf
002c2a70 g    DF .text	00000008 _ZNK5Squid16getTentacleAngleEv
002c2a78 g    DF .text	00000008 _ZNK5Squid19getOldTentacleAngleEv
002c2a80 g    DF .text	00000014 _ZN12SkinInfoDataC1Eb
002c2a98 g    DF .text	000000ea _ZN12SkinInfoData12copySkinPartERSsiiiiiiii
002c2b84 g    DF .text	0000003a _ZN12SkinInfoData10setNoAlphaERSsiiii
002c2bc0 g    DF .text	00000054 _ZN12SkinInfoData13setForceAlphaERSsiiii
002c2edc g    DF .text	0000000a _ZN13PotionBrewing10IngredientC2EPK4Itemi
002c2edc g    DF .text	0000000a _ZN13PotionBrewing10IngredientC1EPK4Itemi
002c2ee8 g    DF .text	00000030 _ZNK13PotionBrewing10Ingredient6equalsEPK12ItemInstance
002c2f18 g    DF .text	00000004 _ZNK13PotionBrewing10Ingredient9getItemIdEv
002c2f1c g    DF .text	00000004 _ZNK13PotionBrewing10Ingredient7getDataEv
002c2f20 g    DF .text	00000034 _ZN13PotionBrewing21isContainerIngredientEPK12ItemInstance
00646934 g    DO .bss	0000000c _ZN13PotionBrewing15mContainerMixesE
002c2f54 g    DF .text	00000080 _ZN13PotionBrewing18isPotionIngredientEPK12ItemInstance
006ad01c g    DO .bss	00000004 _ZN4Item20mFish_raw_pufferfishE
0064691c g    DO .bss	00000018 _ZN13PotionBrewing17mValidIngredientsE
002c2fd4 g    DF .text	00000018 _ZN13PotionBrewing12isIngredientEPK12ItemInstance
002c2fec g    DF .text	00000044 _ZN13PotionBrewing15hasContainerMixEPK12ItemInstanceS2_
002c3030 g    DF .text	000000a8 _ZN13PotionBrewing12hasPotionMixEPK12ItemInstanceS2_
0036fb80 g    DF .text	0000004c _ZN6Potion9getPotionEi
00646940 g    DO .bss	0000000c _ZN13PotionBrewing12mPotionMixesE
002c30d8 g    DF .text	0000001c _ZN13PotionBrewing6hasMixEPK12ItemInstanceS2_
002c30f4 g    DF .text	0000000c _ZN3mce26ConstantBufferContainerOGLC2Ev
00436fd4 g    DF .text	00000028 _ZN3mce27ConstantBufferContainerBaseC2Ev
002c30f4 g    DF .text	0000000c _ZN3mce26ConstantBufferContainerOGLC1Ev
002c3100 g    DF .text	0000000c _ZN3mce26ConstantBufferContainerOGLC2EOS0_
00436ffc g    DF .text	00000064 _ZN3mce27ConstantBufferContainerBaseC2EOS0_
002c3100 g    DF .text	0000000c _ZN3mce26ConstantBufferContainerOGLC1EOS0_
002c310c g    DF .text	0000000c _ZN3mce26ConstantBufferContainerOGLD2Ev
00437060 g    DF .text	0000006a _ZN3mce27ConstantBufferContainerBaseD2Ev
002c310c g    DF .text	0000000c _ZN3mce26ConstantBufferContainerOGLD1Ev
002c3118 g    DF .text	00000002 _ZN3mce26ConstantBufferContainerOGL4syncERNS_13RenderContextE
002c311c g    DF .text	00000044 _ZN20TelemetryEventPacketC2EPK6PlayerRKNS_4DataE
005e2d38 g    DO .data.rel.ro	00000020 _ZTV20TelemetryEventPacket
002c311c g    DF .text	00000044 _ZN20TelemetryEventPacketC1EPK6PlayerRKNS_4DataE
002c3160 g    DF .text	00000028 _ZN20TelemetryEventPacketC2Ev
002c3160 g    DF .text	00000028 _ZN20TelemetryEventPacketC1Ev
002c3188 g    DF .text	00000034 _ZN20TelemetryEventPacketC2EPK6PlayerN18MinecraftTelemetry14AchievementIdsE
002c3188 g    DF .text	00000034 _ZN20TelemetryEventPacketC1EPK6PlayerN18MinecraftTelemetry14AchievementIdsE
002c31bc g    DF .text	00000034 _ZN20TelemetryEventPacketC2EPK6Player11DimensionId
002c31f0 g    DF .text	0000003c _ZN20TelemetryEventPacketC2EPK6Player11DimensionIdS3_
002c31f0 g    DF .text	0000003c _ZN20TelemetryEventPacketC1EPK6Player11DimensionIdS3_
002c322c g    DF .text	00000048 _ZN20TelemetryEventPacketC2EPK6PlayerPK6EntityN18MinecraftTelemetry15InteractionTypeE
002c322c g    DF .text	00000048 _ZN20TelemetryEventPacketC1EPK6PlayerPK6EntityN18MinecraftTelemetry15InteractionTypeE
002c3274 g    DF .text	00000058 _ZN20TelemetryEventPacketC2EPK6PlayerPK6EntityPK3Mob17EntityDamageCause
002c32cc g    DF .text	00000004 _ZNK20TelemetryEventPacket16getTelemetryDataEv
002c32d0 g    DF .text	0000000a _ZNK20TelemetryEventPacket17getPlayerUniqueIdEv
002c32dc g    DF .text	0000001e _ZN3mce17ShaderProgramBaseC2ERKSsS2_NS_10ShaderTypeE
002c32dc g    DF .text	0000001e _ZN3mce17ShaderProgramBaseC1ERKSsS2_NS_10ShaderTypeE
002c32fc g    DF .text	00000098 _ZN17AddDeepOceanLayerC2EjRSt10shared_ptrI5LayerE
002c32fc g    DF .text	00000098 _ZN17AddDeepOceanLayerC1EjRSt10shared_ptrI5LayerE
002c3394 g    DF .text	00000056 _ZN18ButtonChordTrackerC2ER15InputEventQueueRK14ButtonRegistry
002c3394 g    DF .text	00000056 _ZN18ButtonChordTrackerC1ER15InputEventQueueRK14ButtonRegistry
002c33ec g    DF .text	000000c2 _ZN18ButtonChordTracker26raiseLongestChordSequencesEv
002c34b0 g    DF .text	00000238 _ZN16SharedAttributes22_saveAttributeModifierERK17AttributeModifier
003d8354 g    DF .text	00000004 _ZNK17AttributeModifier7getNameEv
003d8360 g    DF .text	00000004 _ZNK17AttributeModifier9getAmountEv
003d8358 g    DF .text	00000004 _ZNK17AttributeModifier12getOperationEv
003d835c g    DF .text	00000004 _ZNK17AttributeModifier10getOperandEv
003d8350 g    DF .text	00000004 _ZNK17AttributeModifier5getIdEv
002c36e8 g    DF .text	0000017c _ZN16SharedAttributes18_saveAttributeBuffERK21TemporalAttributeBuff
00439998 g    DF .text	00000004 _ZNK21TemporalAttributeBuff13getBaseAmountEv
00439990 g    DF .text	00000004 _ZNK21TemporalAttributeBuff11getDurationEv
00439994 g    DF .text	00000004 _ZNK21TemporalAttributeBuff12getLifeTimerEv
002c3864 g    DF .text	000002e0 _ZN16SharedAttributes14_saveAttributeERK17AttributeInstance
00512114 g    DF .text	00000004 _ZNK17AttributeInstance12getAttributeEv
005220e0 g    DF .text	00000004 _ZNK9Attribute7getNameEv
005125fc g    DF .text	00000008 _ZNK17AttributeInstance15getDefaultValueEi
00538aec g    DF .text	00000066 _ZNK17AttributeInstance12getModifiersEv
003d8364 g    DF .text	00000006 _ZNK17AttributeModifier14isSerializableEv
00512ddc g    DF .text	0000001c _ZNK17AttributeInstance16hasTemporalBuffsEv
002c3bb4 g    DF .text	00000314 _ZN16SharedAttributes21loadAttributeModifierEPK11CompoundTag
003d82b0 g    DF .text	00000050 _ZN17AttributeModifierC1EN3mce4UUIDERKSsfiib
005e1130  w   DO .data.rel.ro	0000001c _ZTVSt19_Sp_counted_deleterIP17AttributeModifierNSt12__shared_ptrIS0_LN9__gnu_cxx12_Lock_policyE2EE8_DeleterISaIS0_EEES7_LS4_2EE
002c3ec8 g    DF .text	000001b0 _ZN16SharedAttributes17loadAttributeBuffEPK11CompoundTag
0043992c g    DF .text	00000064 _ZN21TemporalAttributeBuffC1Efi17AttributeBuffTypebRKSs
0043999c g    DF .text	00000004 _ZN21TemporalAttributeBuff24serializationSetLifeTimeEi
002c4078 g    DF .text	00000004 _ZN3mce17DepthStencilState16createDepthStateERNS_13RenderContextERKNS_28DepthStencilStateDescriptionE
00379590 g    DF .text	00000150 _ZN3mce20DepthStencilStateOGL16createDepthStateERNS_13RenderContextERKNS_28DepthStencilStateDescriptionE
002c407c g    DF .text	00000006 _ZNK3mce17DepthStencilState21bindDepthStencilStateERNS_13RenderContextE
003793ec g    DF .text	000001a4 _ZNK3mce20DepthStencilStateOGL21bindDepthStencilStateERNS_13RenderContextEb
002c4084 g    DF .text	000001bc _ZN21DaylightDetectorBlockC2ERKSsib
005e3498 g    DO .data.rel.ro	00000174 _ZTV21DaylightDetectorBlock
002c4084 g    DF .text	000001bc _ZN21DaylightDetectorBlockC1ERKSsib
002c4240 g    DF .text	0000001a _ZN12PortalRecordC2ERK8BlockPos
002c4240 g    DF .text	0000001a _ZN12PortalRecordC1ERK8BlockPos
002c425c g    DF .text	0000001a _ZN12PortalRecordC2ERK8BlockPosiii
002c425c g    DF .text	0000001a _ZN12PortalRecordC1ERK8BlockPosiii
002c4278 g    DF .text	000000be _ZNK12PortalRecord17closestBlockPosToERK6Entity
002c4338 g    DF .text	0000003e _ZNK12PortalRecordltERKS_
002c4378 g    DF .text	00000020 _ZNK12PortalRecordeqERKS_
002c4398 g    DF .text	000000c0 _ZN12PortalForcerC2ER5Level
00427a2c g    DF .text	00000006 _ZN5Level7getSeedEv
006467d4 g    DO .bss	00000004 _ZN12PortalForcer14PORTAL_FILE_IDE
005e3610 g    DO .data.rel.ro	00000018 _ZTV12PortalForcer
002c4398 g    DF .text	000000c0 _ZN12PortalForcerC1ER5Level
002c4458 g    DF .text	000000d8 _ZNK12PortalForcer27translatePosAcrossDimensionERK4Vec311DimensionIdS3_
002c4530 g    DF .text	0000010c _ZNK12PortalForcer10findPortalE11DimensionIdRK8BlockPosiRS1_
002c463c g    DF .text	00000424 _ZN12PortalForcer12travelPortalER6EntityRK8BlockPos
005a8ac4 g    DO .rodata	00000010 _ZN9Direction27DIRECTION_COUNTER_CLOCKWISEE
005a8ad4 g    DO .rodata	00000010 _ZN9Direction19DIRECTION_CLOCKWISEE
002c4a60 g    DF .text	000000a6 _ZN12PortalForcer18removePortalRecordER11BlockSourceRK8BlockPos
002c4b08 g    DF .text	00000028 _ZN11PortalBlock8onRemoveER11BlockSourceRK8BlockPos
00425c58 g    DF .text	00000006 _ZN5Level15getPortalForcerEv
002c4b30 g    DF .text	00000002 _ZN12PortalForcer18printPortalRecordsEi
002c4b34 g    DF .text	00000016 _ZN14HeldButtonDataC2Ev
002c4b34 g    DF .text	00000016 _ZN14HeldButtonDataC1Ev
002c4b4c g    DF .text	00000006 _ZNK14HeldButtonData11getButtonIdEv
002c4b54 g    DF .text	00000004 _ZN14HeldButtonData11setButtonIdEs
002c4b58 g    DF .text	00000004 _ZNK14HeldButtonData15getItemLocationEv
0042ebd4 g    DF .text	00000054 _ZN20MinecraftScreenModel13getStackCountEi12ItemLocation
002c4b7c g    DF .text	00000004 _ZN14HeldButtonData15setItemLocationE12ItemLocation
002c4b80 g    DF .text	00000004 _ZNK14HeldButtonData18getTotalStackCountEv
002c4b84 g    DF .text	00000004 _ZN14HeldButtonData18setTotalStackCountEi
002c4b88 g    DF .text	00000004 _ZNK14HeldButtonData18getCollectionIndexEv
002c4b8c g    DF .text	00000004 _ZN14HeldButtonData18setCollectionIndexEi
002c4b90 g    DF .text	00000004 _ZNK14HeldButtonData14getAmountTakenEv
002c4be0 g    DF .text	00000004 _ZN14HeldButtonData14setAmountTakenEi
002c4be4 g    DF .text	00000040 _ZN25MinecraftScreenController24getItemStackSizeAsStringEPK12ItemInstance
00323840 g    DF .text	0000000c _ZNK12ItemInstance12getMaxDamageEv
00323128 g    DF .text	00000018 _ZNK12ItemInstance9isDamagedEv
0032316c g    DF .text	00000006 _ZNK12ItemInstance14getDamageValueEv
0030349c g    DF .text	00000002 _ZN16ScreenController4bindERKSsiS1_S1_R11PropertyBag
002c4ed8 g    DF .text	00000078 _ZN33CraftingInventoryScreenController4bindERKSsiS1_S1_R11PropertyBag
002c4f50 g    DF .text	00000430 _ZN25MinecraftScreenControllerC1ESt10shared_ptrI20MinecraftScreenModelE
002c5380 g    DF .text	000001f0 _ZN33CraftingInventoryScreenControllerC2ESt10shared_ptrI20MinecraftScreenModelE
002c5380 g    DF .text	000001f0 _ZN33CraftingInventoryScreenControllerC1ESt10shared_ptrI20MinecraftScreenModelE
002c5570 g    DF .text	00000004 _ZNK25MinecraftScreenController12getInputModeEv
002c5574 g    DF .text	00000004 _ZN25MinecraftScreenController16_setExitBehaviorE18ScreenExitBehavior
002c5578 g    DF .text	00000250 _ZN21PauseScreenControllerC2ESt10shared_ptrI20MinecraftScreenModelE
002c5578 g    DF .text	00000250 _ZN21PauseScreenControllerC1ESt10shared_ptrI20MinecraftScreenModelE
002c57d4 g    DF .text	0000001a _ZN33CraftingInventoryScreenController21_handleArmorAutoPlaceEi
00449120 g    DF .text	00000096 _ZN20MinecraftScreenModel18autoPlaceArmorItemE9ArmorSlot
00449d20 g    DF .text	00000178 _ZN20MinecraftScreenModel22autoPlaceInventoryItemEi12ItemLocation
00450654 g    DF .text	00000164 _ZN20MinecraftScreenModel24dropItemsItemsFromScreenEi12ItemLocationb
0044662c g    DF .text	00000078 _ZN15ScreenItemStack13decreaseCountEi
002c5928 g    DF .text	00000208 _ZN33CraftingInventoryScreenController21_handleArmorTakePlaceEi
0044904c g    DF .text	000000d4 _ZN20MinecraftScreenModel16placeItemInArmorE9ArmorSlot15ScreenItemStack
00448170 g    DF .text	000000d8 _ZN20MinecraftScreenModel17takeItemFromArmorE9ArmorSlot
002c5b30 g    DF .text	00000034 _ZN33CraftingInventoryScreenController16_handleTakePlaceEs12ItemLocationi
002c5b64 g    DF .text	0000004c _ZN33CraftingInventoryScreenController17_handleHeldButtonEi
00449ba4 g    DF .text	0000017c _ZN20MinecraftScreenModel21placeStackInInventoryEi9PlaceType15ScreenItemStack12ItemLocation
00448e90 g    DF .text	000001ba _ZN20MinecraftScreenModel27takeAllInventoryItemsOfTypeE15ScreenItemStack
002c6100 g    DF .text	00000074 _ZN25MinecraftScreenController27_updateHeldButtonStackTakenEv
002c61a8 g    DF .text	0000004a _ZN25MinecraftScreenController23_handleHeldButtonUpdateEi12ItemLocationi
002c61f4 g    DF .text	0000001e _ZNK25MinecraftScreenController11_viewItemAtEiRK12ItemLocation
002c6214 g    DF .text	00000118 _ZN13HayBlockBlockC2ERKSsi
00320928 g    DF .text	00000020 _ZN18RotatedPillarBlockC2ERKSsiRK8Material
005e3798 g    DO .data.rel.ro	00000170 _ZTV13HayBlockBlock
002c6214 g    DF .text	00000118 _ZN13HayBlockBlockC1ERKSsi
002c632c g    DF .text	000000ac _ZN13GamePadLayout4saveEv
002c63d8 g    DF .text	0000004c _ZN13GamePadLayout16_clearDuplicatesEi
006467d0 g    DO .bss	00000004 _ZN13GamePadLayout10UNASSIGNEDE
002c6424 g    DF .text	00000014 _ZN13GamePadLayout13setUnassignedEi
002c6438 g    DF .text	00000030 _ZNK13GamePadLayout10isAssignedEi
002c6468 g    DF .text	00000020 _ZNK13GamePadLayout9isTriggerEi
00000000      DF *UND*	00000000 _ZNKSs4findEPKcjj
002c6488 g    DF .text	00000044 _ZNK13GamePadLayout16getDefaultLayoutEi
006467cc g    DO .bss	00000004 _ZN13GamePadLayout14DEFAULT_LAYOUTE
006467c4 g    DO .bss	00000004 _ZN13GamePadLayout15DEFAULT_LAYOUT3E
006467c8 g    DO .bss	00000004 _ZN13GamePadLayout15DEFAULT_LAYOUT2E
005a8b30 g    DO .rodata	00000001 _ZN16DirectionalBlock18DIRECTION_INV_MASKE
002c6508 g    DF .text	000001bc _ZN10CocoaBlock14getVisualShapeEhR4AABBb
002c66c4 g    DF .text	000001ec _ZN10CocoaBlock4tickER11BlockSourceRK8BlockPosR6Random
002c68b0 g    DF .text	00000064 _ZN10CocoaBlock12onFertilizedER11BlockSourceRK8BlockPosP6Player
002c6914 g    DF .text	0000005c _ZN10CocoaBlock14spawnResourcesER11BlockSourceRK8BlockPosifi
002c6970 g    DF .text	00000050 _ZN9ChestMenu20_getChestBlockEntityEv
006abf74 g    DO .bss	00000004 _ZN5Block13mTrappedChestE
002c69c0 g    DF .text	00000050 _ZN9ChestMenuC2ER6PlayerRK8BlockPos
0037cbac g    DF .text	00000044 _ZN13ContainerMenuC2ER6PlayerRK8BlockPosi
0049ab10 g    DF .text	0000000c _ZNK16ChestBlockEntity12isLargeChestEv
0049acdc g    DF .text	00000006 _ZN16ChestBlockEntity14getPairedChestEv
002c69c0 g    DF .text	00000050 _ZN9ChestMenuC1ER6PlayerRK8BlockPos
002c6a10 g    DF .text	0000001c _ZN9ChestMenu7getSlotEi
002c6a2c g    DF .text	0000001e _ZN9ChestMenu23updatePlayerSlotChangedEiRK12ItemInstance
002c6a4c g    DF .text	0000003e _ZN9ChestMenu10removeSlotEii
002c6a8c g    DF .text	00000078 _ZN9ChestMenu12isChestValidEv
002c6b04 g    DF .text	0000001c _ZN6IntTagC2ERKSs
005e3ab0 g    DO .data.rel.ro	0000003c _ZTV6IntTag
002c6b20 g    DF .text	00000020 _ZN6IntTagC2ERKSsi
002c6b20 g    DF .text	00000020 _ZN6IntTagC1ERKSsi
002c6b40 g    DF .text	00000064 _ZNK6IntTag4copyEv
002c6ba4 g    DF .text	0000006c _ZN9WallBlockC2ERKSsiR5Block
004ad410 g    DF .text	00000004 _ZN5Block22getExplosionResistanceEv
002c6ba4 g    DF .text	0000006c _ZN9WallBlockC1ERKSsiR5Block
002c6c84 g    DF .text	00000140 _ZN9WallBlock14getVisualShapeER11BlockSourceRK8BlockPosR4AABBb
002c6dc4  w   DF .text	000000a4 _ZN6BoundsC2ERK8BlockPosS2_ib
002c6dc4  w   DF .text	000000a4 _ZN6BoundsC1ERK8BlockPosS2_ib
002c6e68 g    DF .text	0000003c _ZN30HoloScreenSetupCleanupStrategyC2ER15MinecraftClient
005e3c60 g    DO .data.rel.ro	00000018 _ZTV30HoloScreenSetupCleanupStrategy
002c6e68 g    DF .text	0000003c _ZN30HoloScreenSetupCleanupStrategyC1ER15MinecraftClient
002c6ea4 g    DF .text	00000002 _ZN30HoloScreenSetupCleanupStrategy27_setDrawToStereoTextureModeEv
002c6ea8 g    DF .text	00000002 _ZN30HoloScreenSetupCleanupStrategy29_resetDrawToStereoTextureModeEv
002c6eac g    DF .text	00000002 _ZN30HoloScreenSetupCleanupStrategy25_clearStereoTextureTargetEf
002c6eb0 g    DF .text	00000034 _ZN9FloatGoalC2ER3Mob
002c6ee4 g    DF .text	00000150 _ZN10SilverfishC2ER11BlockSource
00512cbc g    DF .text	00000034 _ZN7MonsterC2ER11BlockSource
00514998 g    DF .text	00000070 _ZN15MeleeAttackGoalC1ER13PathfinderMobfb10EntityType
0037ce0c g    DF .text	00000038 _ZN16HurtByTargetGoalC1ER13PathfinderMobb
005e1890 g    DO .data.rel.ro	00000380 _ZTV10Silverfish
002c7034 g    DF .text	000001f4 _ZN3CowC2ER11BlockSource
00460d28 g    DF .text	000000b0 _ZN6AnimalC2ER11BlockSource
003c17e8 g    DF .text	0000002c _ZN9PanicGoalC1ER13PathfinderMobf
004377d8 g    DF .text	00000048 _ZN16FollowParentGoalC1ER6Animalf
004967e0 g    DF .text	00000030 _ZN20RandomLookAroundGoalC1ER3Mob
005e2d78 g    DO .data.rel.ro	0000038c _ZTV3Cow
002c7228 g    DF .text	00000022 _ZN3Cow20createBreedOffspringER6Animal
002c7250 g    DF .text	0000024c _ZN11MushroomCow18interactWithPlayerER6Player
006ac0f8 g    DO .bss	00000004 _ZN5Block12mRedMushroomE
006ad134 g    DO .bss	00000004 _ZN4Item13mMushroomStewE
002c74a0 g    DF .text	00000020 _ZN11MushroomCowC2ER11BlockSource
005e3108 g    DO .data.rel.ro	0000038c _ZTV11MushroomCow
002c74c0 g    DF .text	00000022 _ZN11MushroomCow20createBreedOffspringER6Animal
002c74e4 g    DF .text	0000000c _ZN3mce15ImmediateBufferC2Ev
00498c20 g    DF .text	0000000c _ZN3mce18ImmediateBufferOGLC2Ev
002c74e4 g    DF .text	0000000c _ZN3mce15ImmediateBufferC1Ev
002c74f0 g    DF .text	00000004 _ZNK3mce15ImmediateBuffer7isValidEv
004326a8 g    DF .text	0000000a _ZNK3mce9BufferOGL7isValidEv
002c74f4 g    DF .text	00000004 _ZN3mce15ImmediateBuffer19createDynamicBufferERNS_13RenderContextEjNS_10BufferTypeEPKv
00498c2c g    DF .text	0000004c _ZN3mce18ImmediateBufferOGL19createDynamicBufferERNS_13RenderContextEjNS_10BufferTypeEPKv
002c74f8 g    DF .text	00000004 _ZN3mce15ImmediateBuffer13releaseBufferEv
004325dc g    DF .text	00000022 _ZN3mce9BufferOGL13releaseBufferEv
002c74fc g    DF .text	00000004 _ZN3mce15ImmediateBuffer12updateBufferERNS_13RenderContextEjRPvj
00498c78 g    DF .text	0000008c _ZN3mce18ImmediateBufferOGL12updateBufferERNS_13RenderContextEjRPvj
002c7500 g    DF .text	000000d2 _ZN18ScreenInputContextC2Ev
002c7500 g    DF .text	000000d2 _ZN18ScreenInputContextC1Ev
002c75d4 g    DF .text	00000120 _ZN18ScreenInputContext12enqueueEventERK11ScreenEvent
002c76f4 g    DF .text	00000002 _ZN18ScreenInputContext13getEventQueueEv
002c76f8 g    DF .text	00000044 _ZN14InputComponentC2ERSt10shared_ptrI9UIControlE
002c76f8 g    DF .text	00000044 _ZN14InputComponentC1ERSt10shared_ptrI9UIControlE
002c773c g    DF .text	0000000c _ZN14InputComponent19addRemappingMappingE16ScreenEventScope
002c7748 g    DF .text	0000010a _ZN14InputComponent21handleInputModeChangeER10VisualTreeR19AnimationControllerR18ScreenInputContext9InputMode
0042a55c g    DF .text	00000024 _ZN11ScreenEventC1Ev
003b8dd8 g    DF .text	0000005a _ZN9UIControl14broadcastEventER10VisualTreeR19AnimationControllerP11UIComponent11ScreenEvent
002c7854 g    DF .text	0000022e _ZN14InputComponent21handlePointerLocationER10VisualTreeR19AnimationControllerR18ScreenInputContextRKN3glm6detail5tvec2IfEESB_b
003b8cc8 g    DF .text	00000006 _ZNK9UIControl8getHoverEv
003b8cd0 g    DF .text	00000006 _ZN9UIControl8setHoverEb
003b8e5c g    DF .text	00000052 _ZNK9UIControl13containsPointERKN3glm6detail5tvec2IfEE
002c7a84 g    DF .text	0000019c _ZN14InputComponent19handleFocusLocationER10VisualTreeR19AnimationControllerRKN3glm6detail5tvec2IfEEb
002c7c20 g    DF .text	00000006 _ZNK14InputComponent15getFocusEnabledEv
002c7c28 g    DF .text	00000006 _ZN14InputComponent15setFocusEnabledEb
002c7c38 g    DF .text	00000006 _ZNK14InputComponent22getAlwaysHandlePointerEv
002c7c40 g    DF .text	00000006 _ZN14InputComponent22setAlwaysHandlePointerEb
002c7c48 g    DF .text	00000006 _ZNK14InputComponent23getAlwaysListensToInputEv
002c7c50 g    DF .text	00000006 _ZN14InputComponent23setAlwaysListensToInputEb
002c7c58 g    DF .text	00000056 _ZN14InputComponent15setContentPanelESt8weak_ptrI9UIControlE
002c7cb0 g    DF .text	00000004 _ZN14InputComponent15getContentPanelEv
002c7cb4 g    DF .text	000000ba _ZN14InputComponent16_sendScreenEventER18ScreenInputContextRSt10shared_ptrI9UIControlEssb11ButtonStateS6_28ScreenButtonMappingCondition16ScreenEventScopeRKN3glm6detail5tvec2IfEER10VisualTreeR19AnimationControllerbb
002c7d70 g    DF .text	00000006 _ZN11PortalBlock7getAxisEi
002c7d78 g    DF .text	000000b8 _ZN11PortalBlock14getVisualShapeER11BlockSourceRK8BlockPosR4AABBb
002c7e30 g    DF .text	0000009c _ZN11PortalBlockC2ERKSsi
004b2460 g    DF .text	00000038 _ZN20HalfTransparentBlockC2ERKSsiS1_RK8Materialb
005e3628 g    DO .data.rel.ro	0000016c _ZTV11PortalBlock
002c7e30 g    DF .text	0000009c _ZN11PortalBlockC1ERKSsi
002c7ecc g    DF .text	00000004 _ZN11PortalShape9getHeightEv
002c7ed0 g    DF .text	00000004 _ZN11PortalShape8getWidthEv
002c7ed4 g    DF .text	00000004 _ZN11PortalShape23getNumberOfPortalBlocksEv
002c7ed8 g    DF .text	00000040 _ZN11PortalShape12isEmptyBlockE7BlockID
002c7f18 g    DF .text	000000a8 _ZN11PortalShape20getDistanceUntilEdgeERK8BlockPosi
002c7fc0 g    DF .text	00000174 _ZN11PortalShape21calculatePortalHeightEv
002c8134 g    DF .text	000000f4 _ZN11PortalShapeC2ER11BlockSource8BlockPosi
002c8134 g    DF .text	000000f4 _ZN11PortalShapeC1ER11BlockSource8BlockPosi
002c8228 g    DF .text	00000024 _ZN11PortalShape7isValidEv
002c824c g    DF .text	000000f8 _ZN11PortalBlock15neighborChangedER11BlockSourceRK8BlockPosS4_
002c8344 g    DF .text	00000088 _ZN11PortalShape18createPortalBlocksEv
002c83cc g    DF .text	00000080 _ZN9NoteBlockC2ERKSsi
005e3d80 g    DO .data.rel.ro	0000016c _ZTV9NoteBlock
002c83cc g    DF .text	00000080 _ZN9NoteBlockC1ERKSsi
002c844c g    DF .text	00000038 _ZN9NoteBlock13getInstrumentEi
002c8484 g    DF .text	00000158 _ZN9NoteBlock12triggerEventER11BlockSourceRK8BlockPosii
00000000      DF *UND*	00000000 powf
002c85dc g    DF .text	00000010 _ZN8JavaUtil5setVMEP7_JavaVM
002c85ec g    DF .text	00000010 _ZN8JavaUtil5getVMEv
002c85fc g    DF .text	00000148 _ZN21TickingTextureFactory20createDynamicTextureE18TickingTextureTypeRK12TextureAtlasR12TextureGroup
00438a4c g    DF .text	0000003c _ZN13PortalTextureC1ER12TextureGroup
0037c04c g    DF .text	000000d4 _ZN11FireTextureC1Ev
004a05f8 g    DF .text	00000076 _ZNK12TextureAtlas14getTextureItemERKSs
004a770c g    DF .text	0000003c _ZN16WaterSideTextureC1Ev
00524edc g    DF .text	000000b4 _ZN11LavaTextureC1Ev
00511ee8 g    DF .text	000000a0 _ZN15LavaSideTextureC1ERK22TextureUVCoordinateSet
002c8744 g    DF .text	00000020 _ZN16LargeImageButtonC2EiRKSs
0050ee94 g    DF .text	00000070 _ZN11ImageButtonC2EiRKSs
005e3f38 g    DO .data.rel.ro	0000009c _ZTV16LargeImageButton
002c8744 g    DF .text	00000020 _ZN16LargeImageButtonC1EiRKSs
002c8764 g    DF .text	00000060 _ZN16LargeImageButtonC2EiRKSs8ImageDef
002c8764 g    DF .text	00000060 _ZN16LargeImageButtonC1EiRKSs8ImageDef
002c87c4 g    DF .text	0000000a _ZN16ExperiencePotion5_initEv
002c87d0 g    DF .text	00000020 _ZN16ExperiencePotionC2ER11BlockSource
005e3fd8 g    DO .data.rel.ro	000001f4 _ZTV16ExperiencePotion
002c87f0 g    DF .text	00000020 _ZN16ExperiencePotionC2ER3Mob
002c87f0 g    DF .text	00000020 _ZN16ExperiencePotionC1ER3Mob
002c8810 g    DF .text	00000020 _ZN16ExperiencePotionC2ER11BlockSourceRK4Vec3
002c8810 g    DF .text	00000020 _ZN16ExperiencePotionC1ER11BlockSourceRK4Vec3
002c8830 g    DF .text	000000b4 _ZN11PigRendererC2ER12TextureGroupSt10unique_ptrI5ModelSt14default_deleteIS3_EES6_f
002c8830 g    DF .text	000000b4 _ZN11PigRendererC1ER12TextureGroupSt10unique_ptrI5ModelSt14default_deleteIS3_EES6_f
002c88e4 g    DF .text	00000004 _ZN11PigRenderer12prepareArmorEP3Mobif
002c88e8 g    DF .text	00000098 _ZN16StructureFeature17postProcessMobsAtEP11BlockSourceiiR6Random
00367730 g    DF .text	00000030 _ZN14StructureStart17postProcessMobsAtEP11BlockSourceR6RandomRK11BoundingBox
002c8980 g    DF .text	00000010 _ZN16StructureFeature15isInsideFeatureEiii
002c8990 g    DF .text	00000040 _ZN16StructureFeature23isInsideBoundingFeatureEiii
002c89d0 g    DF .text	00000080 _ZN21HellRandomLevelSource9getMobsAtER11BlockSource10EntityTypeRK8BlockPos
006abfac g    DO .bss	00000004 _ZN5Block12mNetherBrickE
002c8a50 g    DF .text	00000060 _ZN8DeadBushC2ERKSsiS1_
005e4248 g    DO .data.rel.ro	00000174 _ZTV8DeadBush
002c8a50 g    DF .text	00000060 _ZN8DeadBushC1ERKSsiS1_
002c8ab0 g    DF .text	00000344 _ZN12BoatRendererC2ER12TextureGroup
00328960 g    DF .text	00000378 _ZN9BoatModelC1Ev
002c8ab0 g    DF .text	00000344 _ZN12BoatRendererC1ER12TextureGroup
002c8df4 g    DF .text	00000050 _ZN14TakeFlowerGoalC2ER8Villager
002c8df4 g    DF .text	00000050 _ZN14TakeFlowerGoalC1ER8Villager
002c8e44 g    DF .text	00000010 _ZN19ProgressBarRendererC2Ev
005e4480 g    DO .data.rel.ro	0000002c _ZTV19ProgressBarRenderer
002c8e44 g    DF .text	00000010 _ZN19ProgressBarRendererC1Ev
002c8e54 g    DF .text	00000028 _ZN17GroundBushFeatureC2Eii
005e44b0 g    DO .data.rel.ro	00000014 _ZTV17GroundBushFeature
002c8e54 g    DF .text	00000028 _ZN17GroundBushFeatureC1Eii
002c8e7c g    DF .text	00000030 _ZN11SmallButtonC2EiiiRKSs
005e0e68  w   DO .data.rel.ro	00000090 _ZTV11SmallButton
002c8e7c g    DF .text	00000030 _ZN11SmallButtonC1EiiiRKSs
002c8eac g    DF .text	00000030 _ZN11SmallButtonC2EiiiiiRKSs
002c8eac g    DF .text	00000030 _ZN11SmallButtonC1EiiiiiRKSs
002c8edc g    DF .text	00000034 _ZN11SmallButtonC2EiiiPN7Options6OptionERKSs
002c8edc g    DF .text	00000034 _ZN11SmallButtonC1EiiiPN7Options6OptionERKSs
002c8f10 g    DF .text	00000004 _ZN11SmallButton9getOptionEv
002c8f14 g    DF .text	0000026c _ZN15MinecraftClient20_initMinecraftClientEv
00384490 g    DF .text	00000004 _ZN10WorkerPool12setTargetFPSEi
0036b408 g    DF .text	00000038 _ZN11VoiceSystemC1Ev
00000000      DF *UND*	00000000 bsd_signal
005ea400 g    DO .data.rel.ro	0000006c _ZTV19HolographicPlatform
002c9180 g    DF .text	00000274 _ZN15MinecraftClientC2EiPPc
003d74b4 g    DF .text	0000018c _ZN3AppC2EiPPc
00000000      DF *UND*	00000000 _ZNSt6thread20hardware_concurrencyEv
0039c428 g    DF .text	0000003c _ZN10WorkerPool5startEi
005e12e0 g    DO .data.rel.ro	000000cc _ZTV15MinecraftClient
002c9180 g    DF .text	00000274 _ZN15MinecraftClientC1EiPPc
002c93f4 g    DF .text	00000058 _ZN15MinecraftClient33handleSetSpawnPositionButtonPressEv
0037d478 g    DF .text	00000004 _ZN9Minecraft15getPacketSenderEv
005e0ef8  w   DO .data.rel.ro	00000020 _ZTV22SetSpawnPositionPacket
002c944c g    DF .text	00000012 _ZN15MinecraftClient29handleToggleNoClipButtonPressEv
002c9460 g    DF .text	00000002 _ZN15MinecraftClient28handleNextAVCStatButtonPressEv
002c9464 g    DF .text	00000002 _ZN15MinecraftClient40handleToggleFrameTimerDisplayButtonPressEv
002c9468 g    DF .text	00000002 _ZN15MinecraftClient31handleToggleFlyFlastButtonPressEv
002c946c g    DF .text	0000000e _ZN15MinecraftClient38handleToggleAdvancedCullingButtonPressEv
002c947c g    DF .text	00000002 _ZN15MinecraftClient28handleRedstoneLogButtonPressEv
002c9480 g    DF .text	00000098 _ZN15MinecraftClient20registerUpsellScreenEv
0037d4f0 g    DF .text	00000008 _ZN9Minecraft11getGameModeEv
002c9518 g    DF .text	00000014 _ZN15MinecraftClient39handleTogglePlayerUpdateMobsButtonPressEv
002c952c g    DF .text	00000010 _ZN15MinecraftClient33handleLowMemoryWarningButtonPressEv
0036454c g    DF .text	00000022 _ZN11AppPlatform14_fireLowMemoryEv
002c953c g    DF .text	00000026 _ZN15MinecraftClient37handleToggleDayCycleActiveButtonPressEv
002c9564 g    DF .text	0000001c _ZN15MinecraftClient30handleSuspendResumeButtonPressEv
00364570 g    DF .text	00000032 _ZN11AppPlatform17_fireAppSuspendedEv
003645a4 g    DF .text	00000022 _ZN11AppPlatform15_fireAppResumedEv
002c9580 g    DF .text	00000048 _ZN15MinecraftClient31handleToggleGameModeButtonPressEv
00527d3c g    DF .text	00000008 _ZN9LevelData26setHasBeenLoadedInCreativeEv
002c95c8 g    DF .text	00000060 _ZN15MinecraftClient25handleReloadUIDefinitionsEv
0035322c g    DF .text	000002e4 _ZN17UIDefinitionStore12loadDefsListERKSs
002c9628 g    DF .text	00000026 _ZN15MinecraftClient39handleToggleEnableNewScreensButtonPressEv
004229e0 g    DF .text	00000004 _ZNK13ScreenChooser19isNewScreensEnabledEv
004229dc g    DF .text	00000004 _ZN13ScreenChooser16enableNewScreensEb
002c9650 g    DF .text	00000014 _ZN15MinecraftClient44handleToggleEnableNewScreensDebugButtonPressEv
003c1248 g    DF .text	00000010 _ZN10ScreenView16isDebugRenderingEv
003c1238 g    DF .text	00000010 _ZN10ScreenView17setDebugRenderingEb
002c9664 g    DF .text	00000002 _ZN15MinecraftClient32handlePickDebugObjectButtonPressEv
002c9668 g    DF .text	00000024 _ZN15MinecraftClient32handleTimeStepForwardButtonPressEv
00427a34 g    DF .text	00000006 _ZNK5Level7getTimeEv
002c968c g    DF .text	0000004e _ZN15MinecraftClient29handleDropAllItemsButtonPressEv
0042f760 g    DF .text	000000a8 _ZN16FillingContainer8dropSlotEibbb
002c96dc g    DF .text	00000004 _ZN15MinecraftClient28handleMemoryStatsButtonPressEv
0050887c g    DF .text	00000002 _ZN13MemoryTracker11memoryStatsEv
002c96e0 g    DF .text	00000014 _ZN15MinecraftClient24handleHideGuiButtonPressEv
00469158 g    DF .text	0000036c _ZN7Options6toggleEPKNS_6OptionEi
006aada8 g    DO .bss	00000008 _ZN7Options6Option8HIDE_GUIE
002c96f4 g    DF .text	00000018 _ZN15MinecraftClient36handleToggleSimulateTouchButtonPressEv
002c970c g    DF .text	0000000c _ZN15MinecraftClient23handlePaddleButtonPressE4Side
00505694 g    DF .text	0000001a _ZN11LocalPlayer13startPaddlingE4Side
002c9718 g    DF .text	00000014 _ZN15MinecraftClient25handleDismountButtonPressEv
002c972c g    DF .text	00000002 _ZN15MinecraftClient29handleBiomeDisplayButtonPressEv
002c9730 g    DF .text	0000006c _ZN15MinecraftClient39handleDecreaseRenderDistanceButtonPressEv
00440ebc g    DF .text	000000e8 _ZN7Options9getValuesEPKNS_6OptionE
00421e58 g    DF .text	0000004c _ZN7Options11getIntValueEPKNS_6OptionE
00421ea4 g    DF .text	00000094 _ZN7Options3setEPKNS_6OptionEi
006aade0 g    DO .bss	00000008 _ZN7Options6Option13VIEW_DISTANCEE
002c979c g    DF .text	00000080 _ZN15MinecraftClient39handleIncreaseRenderDistanceButtonPressEv
002c981c g    DF .text	00000018 _ZN15MinecraftClient30handleNextAVCStatButtonReleaseEv
002c9834 g    DF .text	00000032 _ZN15MinecraftClient30handleBuildActionButtonReleaseEv
0050c3f4 g    DF .text	00000012 _ZNK6Player11isUsingItemEv
002c9868 g    DF .text	0000000e _ZN15MinecraftClient31handleAttackActionButtonReleaseEv
002c9878 g    DF .text	0000000c _ZN15MinecraftClient25handlePaddleButtonReleaseE4Side
005056b0 g    DF .text	00000018 _ZN11LocalPlayer12stopPaddlingE4Side
002c9884 g    DF .text	00000002 _ZN15MinecraftClient27handleDebugToggleLSRCommandEv
002c9888 g    DF .text	00000002 _ZN15MinecraftClient31handleDebugToggleAnchorsCommandEv
002c988c g    DF .text	00000010 _ZN15MinecraftClient18getHoloviewerScaleEv
006432e8 g    DO .data	00000004 _ZN18InGameViewerScreen16mHoloviewerScaleE
002c989c g    DF .text	0000000a _ZN15MinecraftClient21startHoloviewerRevealEv
0049fda8 g    DF .text	00000010 _ZN17HolosceneRenderer11startRevealEv
002c98a8 g    DF .text	00000036 _ZN15MinecraftClient20handleDictationEventEv
0036b440 g    DF .text	00000006 _ZN11VoiceSystem15getDictationStrEv
002c98e0 g    DF .text	00000070 _ZN15MinecraftClient12_reloadFancyEb
003a2000 g    DF .text	0000004a _ZN3mce19RenderMaterialGroup8loadListERKSs
002c9978 g    DF .text	00000002 _ZN15MinecraftClient11updateStatsEv
002c997c g    DF .text	00000016 _ZN15MinecraftClient4playERKSsRK4Vec3ff
002c9994 g    DF .text	0000000e _ZN15MinecraftClient6playUIERKSsff
002c99a4 g    DF .text	000000e0 _ZN23RestorePurchaseDialogue15pointerReleasedEP15MinecraftClientii
002c9a84 g    DF .text	00000058 _ZN15MinecraftClient19getSituationalMusicEv
002c9adc g    DF .text	00000062 _ZN15MinecraftClient14updateGraphicsERK5Timer
003790e8 g    DF .text	00000004 _ZNK5Timer8getAlphaEv
004b0ad8 g    DF .text	000000dc _ZN11SoundEngine6updateEP3Mobf
003859ac g    DF .text	00000528 _ZN12GameRenderer6renderEf
002c9b40 g    DF .text	0000000c _ZNK15MinecraftClient17isSRPlacementModeEv
002c9b54 g    DF .text	0000000e _ZN15MinecraftClient22getHoloscreenHalfWidthEv
002c9b64 g    DF .text	00000074 _ZN15MinecraftClient20forEachVisibleScreenESt8functionIFvRSt10shared_ptrI14AbstractScreenEEE
002c9bd8 g    DF .text	00000070 _ZN15MinecraftClient15handleDirectionE11DirectionIdff
002c9c48 g    DF .text	0000002a _ZN15MinecraftClient13forEachScreenESt8functionIFbRSt10shared_ptrI14AbstractScreenEEE
002c9c74 g    DF .text	00000064 _ZN15MinecraftClient18handleCommandEventERK12VoiceCommand
002c9cd8  w   DF .text	00000250 _ZN6Social16XboxLiveGameInfoD2Ev
002c9cd8  w   DF .text	00000250 _ZN6Social16XboxLiveGameInfoD1Ev
002c9f28 g    DF .text	0000000e _ZN15MinecraftClient9popScreenEi
002c9f40 g    DF .text	00000030 _ZN14TextEditScreen22failedToFindSignEntityEv
002c9f70 g    DF .text	00000082 _ZN18ShowSkinPackScreen15handleBackEventEb
002c9ff4 g    DF .text	00000008 _ZN15MinecraftClient31setInhibitInputDueToTextBoxModeEv
002c9ffc g    DF .text	00000008 _ZN15MinecraftClient33resetInhibitInputDueToTextBoxModeEv
002ca004 g    DF .text	00000006 _ZNK15MinecraftClient25newDictationDataAvailableEv
002ca00c g    DF .text	00000008 _ZN15MinecraftClient27clearDictationDataAvailableEv
002ca014 g    DF .text	00000004 _ZNK15MinecraftClient16getDictationTextEv
002ca020 g    DF .text	00000004 _ZNK15MinecraftClient16getLevelRendererEv
002ca028 g    DF .text	00000004 _ZNK15MinecraftClient17getParticleEngineEv
002ca02c g    DF .text	00000004 _ZNK15MinecraftClient17getExternalServerEv
002ca038 g    DF .text	00000004 _ZNK15MinecraftClient11getRuneFontEv
002ca040 g    DF .text	0000006c _ZN14TextEditScreen13onFocusGainedEv
003c4454 g    DF .text	00000008 _ZNK15SignBlockEntity10getMessageEi
002ca0ac g    DF .text	00000002 _ZN15MinecraftClient21setCameraTargetPlayerEP3Mob
002ca0b0 g    DF .text	00000006 _ZNK15MinecraftClient15getMouseGrabbedEv
002ca0b8 g    DF .text	00000004 _ZNK15MinecraftClient18getConnectedServerEv
002ca0bc g    DF .text	00000006 _ZNK15MinecraftClient16getConnectedPortEv
002ca0c4 g    DF .text	0000006c _ZN15MinecraftClient21_getGuiScaleFromWidthEif
002ca130 g    DF .text	00000072 _ZN15MinecraftClient22_getGuiScaleFromHeightEif
002ca1a4 g    DF .text	0000006c _ZN15MinecraftClient12setDpadScaleEf
004245e8 g    DF .text	00000014 _ZN9PixelCalc22setPixelsPerMillimeterEf
002ca218 g    DF .text	00000090 _Z20_storageStateMessage17LevelStorageState
002ca2a8 g    DF .text	00000078 _Z20_extractErrorMessageRKSs
002ca328 g    DF .text	0000002e _ZN15MinecraftClient35handleToggleShowChunkMapButtonPressEv
004215f0 g    DF .text	00000006 _ZNK7Options18getDevShowChunkMapEv
004215e8 g    DF .text	00000006 _ZN7Options18setDevShowChunkMapEb
00468d70 g    DF .text	000003e8 _ZN7Options4saveEv
002ca358 g    DF .text	0000001a _ZN15MinecraftClient41handleDecrementMaxCullingStepsButtonPressEv
002ca374 g    DF .text	0000001a _ZN15MinecraftClient41handleIncrementMaxCullingStepsButtonPressEv
002ca390 g    DF .text	00000024 _ZN15MinecraftClient28handleRenderDebugButtonPressEv
00421404 g    DF .text	00000006 _ZNK7Options14getRenderDebugEv
004213fc g    DF .text	00000006 _ZN7Options14setRenderDebugEb
002ca3b4 g    DF .text	0000003a _ZN15MinecraftClient21toggleThirdPersonViewEv
004213f4 g    DF .text	00000006 _ZNK7Options24getPlayerViewPerspectiveEv
004213ec g    DF .text	00000006 _ZN7Options24setPlayerViewPerspectiveEi
002ca3f0 g    DF .text	00000004 _ZN15MinecraftClient38handleToggleThirdPersonViewButtonPressEv
002ca3f4 g    DF .text	00000028 _ZN15MinecraftClient7vibrateEi
00421374 g    DF .text	00000006 _ZNK7Options19getDestroyVibrationEv
002ca41c g    DF .text	00000008 _ZThn28_N15MinecraftClient7vibrateEi
00421830 g    DF .text	00000006 _ZNK7Options18getMultiPlayerGameEv
002ca448 g    DF .text	000000a4 _ZN15MinecraftClient13reloadShadersEv
005077d0 g    DF .text	00000006 _ZN3mce17RenderContextBase18setHolographicModeEb
003d4cb4 g    DF .text	0000034c _ZN13LevelRenderer29initializeEndcapLookupTextureEb
00421324 g    DF .text	00000006 _ZNK7Options16getFancyGraphicsEv
002ca4ec g    DF .text	00000004 _ZN15MinecraftClient22onStereoEnabledChangedEv
002ca4f8 g    DF .text	0000008c _ZN23RestorePurchaseDialogue19handleButtonReleaseEP15MinecraftClients
00314a28 g    DF .text	00000014 _ZNK21MinecraftInputHandler11getButtonIdERKSs
002ca584 g    DF .text	000000c8 _ZN23AddExternalServerScreen19handleButtonReleaseEs
002ca64c g    DF .text	00000108 _ZN18ShowSkinPackScreen19handleButtonReleaseEs
002ca754 g    DF .text	00000006 _ZNK15MinecraftClient14getSoundEngineEv
002ca75c g    DF .text	00000006 _ZNK15MinecraftClient14getVoiceSystemEv
002ca76c g    DF .text	0000001c _ZN15MinecraftClient14setVoiceSystemESt10unique_ptrI11VoiceSystemSt14default_deleteIS1_EE
002ca788 g    DF .text	0000001c _ZN15MinecraftClient12setHoloInputESt10unique_ptrI19HolographicPlatformSt14default_deleteIS1_EE
002ca7a4 g    DF .text	0000000c _ZN15MinecraftClient21onPrepChangeDimensionEv
003f1b24 g    DF .text	00000134 _ZN13LevelRenderer12setDimensionEP9Dimensionbb
002ca7b0 g    DF .text	00000002 _ZN15MinecraftClient18setupCommandParserEv
002ca7b4 g    DF .text	00000040 _ZN15MinecraftClient13freeResourcesEb
003f19cc g    DF .text	00000158 _ZN13LevelRenderer8setLevelEP5Level
0046df8c g    DF .text	0000011c _ZN13ScreenChooser18setStartMenuScreenEv
003665a4 g    DF .text	00000016 _ZN12GameRenderer8setLevelEP5LevelP9Dimension
00379cf0 g    DF .text	00000002 _ZN6Social11Multiplayer13leaveLiveGameEv
00314fac g    DF .text	00000010 _ZN21MinecraftInputHandler16resetPlayerStateEv
0037d204 g    DF .text	0000001a _ZN9Minecraft8stopGameEv
002ca838 g    DF .text	00000006 _ZN15MinecraftClient14onLevelCorruptEv
002ca840 g    DF .text	00000008 _ZThn32_N15MinecraftClient14onLevelCorruptEv
002ca850 g    DF .text	00000032 _ZN15MinecraftClient31handlePointerPressedButtonPressEv
00376634 g    DF .text	0000003a _ZNK3Gui17wasToolbarClickedEv
00314fec g    DF .text	00000006 _ZN21MinecraftInputHandler25updateInteractActiveStateEb
002ca884 g    DF .text	00000042 _ZN15MinecraftClient27handleSlotSelectButtonPressEi
00374aac g    DF .text	00000006 _ZNK3Gui11getNumSlotsEv
003dac2c g    DF .text	00000008 _ZN9Inventory10selectSlotEi
002ca8c8 g    DF .text	00000046 _ZN15MinecraftClient30handleInventoryMoveButtonPressEi
002ca910 g    DF .text	00000012 _ZN15MinecraftClient21handleMenuButtonPressEs
002ca924 g    DF .text	0000004c _ZN15MinecraftClient33handlePointerPressedButtonReleaseEv
00376670 g    DF .text	000000ce _ZN3Gui11handleClickEv
002ca970 g    DF .text	00000012 _ZN15MinecraftClient23handleMenuButtonReleaseEs
002ca984 g    DF .text	00000016 _ZN15MinecraftClient14handleTextCharERKSsb
002ca99c g    DF .text	0000002c _ZN15MinecraftClient21handlePointerLocationEss
003664d0 g    DF .text	00000006 _ZN12GameRenderer21updatePointerLocationEss
00374acc g    DF .text	00000006 _ZN3Gui21updatePointerLocationEss
002ca9c8 g    DF .text	00000088 _ZN15MinecraftClient10handleBackEb
0046dd44 g    DF .text	000000f8 _ZN13ScreenChooser19pushPausePrevScreenEv
002caa50 g    DF .text	00000010 _ZN15MinecraftClient18handleBackNoReturnEv
002caa60 g    DF .text	00000012 _ZN15MinecraftClient14setTextboxTextERKSs
002caa74 g    DF .text	00000012 _ZN15MinecraftClient23onGameEventNotificationEN2UI21GameEventNotificationE
002caa88 g    DF .text	0000000e _ZN15MinecraftClient16onInternetUpdateEv
002caa98 g    DF .text	00000008 _ZThn32_N15MinecraftClient16onInternetUpdateEv
002caaa0 g    DF .text	00000008 _ZNK15MinecraftClient9getScreenEv
002caaa8 g    DF .text	0000000e _ZNK15MinecraftClient13isShowingMenuEv
002caab8 g    DF .text	00000014 _ZNK15MinecraftClient19isScreenReplaceableEv
002caacc g    DF .text	00000018 _ZN15MinecraftClient21handleChatButtonPressEv
00447f14 g    DF .text	00000054 _ZN13ScreenChooser14pushChatScreenEv
